ASxxxx Linker V03.00/V05.40 + sdld,  page 1.
Hexadecimal  [32-Bits]

Area                                    Addr        Size        Decimal Bytes (Attributes)
--------------------------------        ----        ----        ------- ----- ------------
.  .ABS.                            00000000    00000000 =           0. bytes (ABS,CON)

      Value  Global                              Global Defined In Module
      -----  --------------------------------   ------------------------
     00000000  .__.ABS.                           
     00000000  _rRAMG                             
     00000000  l__BASE                         
     00000000  l__BSS                          
     00000000  l__CABS                         
     00000000  l__CODE_0                       
     00000000  l__CRASH_HEADER                 
     00000000  l__CRASH_SCRATCH                
     00000000  l__DABS                         
     00000000  l__HEADER                       
     00000000  l__HEADER_LCD                   
     00000000  l__HEADER_SIO                   
     00000000  l__HEADER_TIMER                 
     00000000  l__HEAP                         
     00000000  l__HEAP_END                     
     00000000  l__HRAM                         
     00000000  l__LIT                          
     00000000  s__CABS                         
     00000000  s__CRASH_HEADER                 
     00000000  s__CRASH_HEADER0                
     00000000  s__CRASH_HEADER1                
     00000000  s__CRASH_SCRATCH                
     00000000  s__CRASH_SCRATCH2               
     00000000  s__DABS                         
     00000000  s__HEADER                       
     00000000  s__HEADER0                      
     00000000  s__HEADER1                      
     00000000  s__HEADER10                     
     00000000  s__HEADER11                     
     00000000  s__HEADER2                      
     00000000  s__HEADER3                      
     00000000  s__HEADER4                      
     00000000  s__HEADER5                      
     00000000  s__HEADER6                      
     00000000  s__HEADER7                      
     00000000  s__HEADER8                      
     00000000  s__HEADER9                      
     00000000  s__HEADER_LCD                   
     00000000  s__HEADER_LCD0                  
     00000000  s__HEADER_SIO                   
     00000000  s__HEADER_SIO0                  
     00000000  s__HEADER_TIMER                 
     00000000  s__HEADER_TIMER0                
     00000000  s__HEADERa                      
     00000000  s__HEADERb                      
     00000000  s__HEADERc                      
     00000000  s__HEADERd                      
     00000000  s__HEADERe                      
     00000000  s__HEADERf                      
     00000000  s__HRAM                         
ASxxxx Linker V03.00/V05.40 + sdld,  page 2.
Hexadecimal  [32-Bits]

Area                                    Addr        Size        Decimal Bytes (Attributes)
--------------------------------        ----        ----        ------- ----- ------------
.  .ABS.                            00000000    00000000 =           0. bytes (ABS,CON)

      Value  Global                              Global Defined In Module
      -----  --------------------------------   ------------------------
     00000000  s__HRAM12                       
     00000001  ___bank_VM_PROJECTILE              vm_projectiles
     00000001  ___bank_VM_SGB                     vm_sgb
     00000001  ___bank_font_condensed             font_condensed
     00000001  ___bank_scene_0_sprites            scene_0_sprites
     00000001  ___bank_script_input               script_input
     00000001  ___bank_sound_treasure_wav         sound_treasure_wav
     00000001  b_ui_draw_frame                    ui
     00000001  b_ui_draw_text_buffer_char         ui
     00000001  b_ui_init                          ui
     00000001  b_ui_load_tiles                    ui
     00000001  b_ui_run_menu                      ui
     00000001  b_ui_run_modal                     ui
     00000001  b_ui_set_start_tile                ui
     00000001  b_vm_projectile_launch             vm_projectiles
     00000001  b_vm_projectile_load_type          vm_projectiles
     00000001  l__GSFINAL                      
     00000001  l__HEADER0                      
     00000001  l__HEADER5                      
     00000001  l__HEADERa                      
     00000001  l__HEADERb                      
     00000001  l__HEADERc                      
     00000001  l__HEADERe                      
     00000001  l__HEADERf                      
     00000002  ___bank_scene_10_sprites           scene_10_sprites
     00000002  ___bank_sound_boss_jumpscare_wav   sound_boss_jumpscare_wav
     00000002  b_trigger_activate_at              trigger
     00000002  b_trigger_activate_at_intersecti   trigger
     00000002  b_trigger_at_intersection          trigger
     00000002  b_trigger_at_tile                  trigger
     00000002  b_trigger_interact                 trigger
     00000002  b_trigger_reset                    trigger
     00000002  l__HEADER10                     
     00000002  l__HEADER6                      
     00000002  l__HEADERd                      
     00000003  ___bank_actor_93_interact          actor_93_interact
     00000003  ___bank_bg_bathroom_b_tileset      bg_bathroom_b_tileset
     00000003  b_assign_state_script              platform
     00000003  b_basic_anim                       platform
     00000003  b_clear_state_script               platform
     00000003  b_dash_init_switch                 platform
     00000003  b_drop_press                       platform
     00000003  b_ladder_check                     platform
     00000003  b_ladder_switch                    platform
     00000003  b_platform_init                    platform
     00000003  b_platform_update                  platform
     00000003  b_wall_check                       platform
     00000003  l__HEADER9                      
     00000003  l__HEADER_LCD0                  
     00000003  l__HRAM12                       
     00000004  ___bank_bg_choice_b_tilemap_attr   bg_choice_b_tilemap_attr
ASxxxx Linker V03.00/V05.40 + sdld,  page 3.
Hexadecimal  [32-Bits]

Area                                    Addr        Size        Decimal Bytes (Attributes)
--------------------------------        ----        ----        ------- ----- ------------
.  .ABS.                            00000000    00000000 =           0. bytes (ABS,CON)

      Value  Global                              Global Defined In Module
      -----  --------------------------------   ------------------------
     00000004  ___bank_sound_game_over_wav        sound_game_over_wav
     00000004  ___bank_trigger_3_interact         trigger_3_interact
     00000004  ___mute_mask_sound_boss_jumpscar   sound_boss_jumpscare_wav
     00000004  ___mute_mask_sound_game_over_wav   sound_game_over_wav
     00000004  ___mute_mask_sound_scream1_wav     sound_scream1_wav
     00000004  ___mute_mask_sound_scream2_wav     sound_scream2_wav
     00000004  ___mute_mask_sound_treasure_wav    sound_treasure_wav
     00000004  ___mute_mask_sound_type1_wav       sound_type1_wav
     00000004  l__CRASH_HEADER1                
     00000004  l__HEADER_SIO0                  
     00000004  l__HEADER_TIMER0                
     00000005  ___bank_bg_bathroom_b              bg_bathroom_b
     00000005  ___bank_bg_tunnel_tileset          bg_tunnel_tileset
     00000005  ___bank_song_bs_cyb_city_night_D   song_bs_cyb_city_night_Data
     00000005  ___bank_song_bs_cyb_corporate_es   song_bs_cyb_corporate_espio_
     00000005  l__CRASH_HEADER0                
     00000005  l__HEADER1                      
     00000006  ___bank_bg_locker_inside_tiles     bg_locker_inside_tiles
     00000006  ___bank_script_input_39            script_input_39
     00000006  ___bank_song_bs_cyb_new_hero_fas   song_bs_cyb_new_hero_faster_
     00000006  ___bank_song_bz_cozy_midnight_st   song_bz_cozy_midnight_study_
     00000006  l__HEADER8                      
     00000007  ___bank_ACTOR                      actor
     00000007  ___bank_VM_MUSIC                   vm_music
     00000007  ___bank_scene_14_sprites           scene_14_sprites
     00000007  ___bank_song_bs_cyb_back_alley_D   song_bs_cyb_back_alley_Data
     00000007  ___bank_tileset_vending_button_t   tileset_vending_button_tile
     00000007  b_activate_actor                   actor
     00000007  b_activate_actors_in_col           actor
     00000007  b_activate_actors_in_row           actor
     00000007  b_actor_at_tile                    actor
     00000007  b_actor_get_frame_offset           actor
     00000007  b_actor_in_front_of_player         actor
     00000007  b_actor_overlapping_bb             actor
     00000007  b_actor_overlapping_player         actor
     00000007  b_actor_set_anim_idle              actor
     00000007  b_actor_set_anim_moving            actor
     00000007  b_actor_set_dir                    actor
     00000007  b_actor_set_frame_offset           actor
     00000007  b_actor_set_frames                 actor
     00000007  b_actors_handle_player_collision   actor
     00000007  b_actors_init                      actor
     00000007  b_check_collision_in_direction     actor
     00000007  b_deactivate_actor                 actor
     00000007  b_player_init                      actor
     00000007  b_vm_music_mute                    vm_music
     00000007  b_vm_music_play                    vm_music
     00000007  b_vm_music_routine                 vm_music
     00000007  b_vm_music_setpos                  vm_music
     00000007  b_vm_music_stop                    vm_music
     00000007  b_vm_sfx_play                      vm_music
ASxxxx Linker V03.00/V05.40 + sdld,  page 4.
Hexadecimal  [32-Bits]

Area                                    Addr        Size        Decimal Bytes (Attributes)
--------------------------------        ----        ----        ------- ----- ------------
.  .ABS.                            00000000    00000000 =           0. bytes (ABS,CON)

      Value  Global                              Global Defined In Module
      -----  --------------------------------   ------------------------
     00000007  b_vm_sound_mastervol               vm_music
     00000007  l__HEADER2                      
     00000008  ___bank_VM_ACTOR                   vm_actor
     00000008  ___bank_actor_3_update             actor_3_update
     00000008  ___bank_scene_3_init               scene_3_init
     00000008  ___bank_song_bs_cyb_surfing_the_   song_bs_cyb_surfing_the_net_
     00000008  ___bank_song_bz_cozy_midnight_st   song_bz_cozy_midnight_study_
     00000008  ___mute_mask_sound_legacy_0        sound_legacy_0
     00000008  ___mute_mask_sound_legacy_0_0      sound_legacy_0_0
     00000008  ___mute_mask_sound_legacy_0_1      sound_legacy_0_1
     00000008  ___mute_mask_sound_legacy_0_2      sound_legacy_0_2
     00000008  ___mute_mask_sound_legacy_0_3      sound_legacy_0_3
     00000008  ___mute_mask_sound_legacy_0_4      sound_legacy_0_4
     00000008  b_vm_actor_activate                vm_actor
     00000008  b_vm_actor_begin_update            vm_actor
     00000008  b_vm_actor_deactivate              vm_actor
     00000008  b_vm_actor_emote                   vm_actor
     00000008  b_vm_actor_get_angle               vm_actor
     00000008  b_vm_actor_get_anim_frame          vm_actor
     00000008  b_vm_actor_get_dir                 vm_actor
     00000008  b_vm_actor_get_pos                 vm_actor
     00000008  b_vm_actor_move_cancel             vm_actor
     00000008  b_vm_actor_move_to                 vm_actor
     00000008  b_vm_actor_replace_tile            vm_actor
     00000008  b_vm_actor_set_anim                vm_actor
     00000008  b_vm_actor_set_anim_frame          vm_actor
     00000008  b_vm_actor_set_anim_set            vm_actor
     00000008  b_vm_actor_set_anim_tick           vm_actor
     00000008  b_vm_actor_set_bounds              vm_actor
     00000008  b_vm_actor_set_dir                 vm_actor
     00000008  b_vm_actor_set_flags               vm_actor
     00000008  b_vm_actor_set_move_speed          vm_actor
     00000008  b_vm_actor_set_pos                 vm_actor
     00000008  b_vm_actor_set_spritesheet         vm_actor
     00000008  b_vm_actor_set_spritesheet_by_re   vm_actor
     00000008  b_vm_actor_terminate_update        vm_actor
     00000008  l__HEADER3                      
     00000009  ___bank_VM_MAIN                    vm
     00000009  ___bank_bg_choice_b_tilemap        bg_choice_b_tilemap
     00000009  ___bank_scene_1_init               scene_1_init
     00000009  ___bank_song_big_explosion_Data    song_big_explosion_Data
     00000009  ___bank_song_bs_cyb_server_room_   song_bs_cyb_server_room_Data
     00000009  ___bank_tileset_default_frame      tileset_default_frame
     00000009  b_script_detach_hthread            vm
     00000009  b_script_execute                   vm
     00000009  b_script_runner_init               vm
     00000009  b_script_terminate                 vm
     00000009  b_vm_call                          vm
     00000009  b_vm_call_far                      vm
     00000009  b_vm_get_indirect                  vm
     00000009  b_vm_get_tlocal                    vm
ASxxxx Linker V03.00/V05.40 + sdld,  page 5.
Hexadecimal  [32-Bits]

Area                                    Addr        Size        Decimal Bytes (Attributes)
--------------------------------        ----        ----        ------- ----- ------------
.  .ABS.                            00000000    00000000 =           0. bytes (ABS,CON)

      Value  Global                              Global Defined In Module
      -----  --------------------------------   ------------------------
     00000009  b_vm_idle                          vm
     00000009  b_vm_if                            vm
     00000009  b_vm_if_const                      vm
     00000009  b_vm_init_rng                      vm
     00000009  b_vm_invoke                        vm
     00000009  b_vm_join                          vm
     00000009  b_vm_jump                          vm
     00000009  b_vm_lock                          vm
     00000009  b_vm_loop                          vm
     00000009  b_vm_memcpy                        vm
     00000009  b_vm_memset                        vm
     00000009  b_vm_poll_loaded                   vm
     00000009  b_vm_pop                           vm
     00000009  b_vm_push                          vm
     00000009  b_vm_push_reference                vm
     00000009  b_vm_push_value                    vm
     00000009  b_vm_push_value_ind                vm
     00000009  b_vm_raise                         vm
     00000009  b_vm_rand                          vm
     00000009  b_vm_reserve                       vm
     00000009  b_vm_ret                           vm
     00000009  b_vm_ret_far                       vm
     00000009  b_vm_set                           vm
     00000009  b_vm_set_const                     vm
     00000009  b_vm_set_indirect                  vm
     00000009  b_vm_terminate                     vm
     00000009  b_vm_test_terminate                vm
     00000009  b_vm_unlock                        vm
     00000009  b_wait_frames                      vm
     0000000A  ___bank_bg_choice_tilemap          bg_choice_tilemap
     0000000A  ___bank_bg_choice_tilemap_attr     bg_choice_tilemap_attr
     0000000A  ___bank_scene_36_collisions        scene_36_collisions
     0000000A  ___bank_scene_37_collisions        scene_37_collisions
     0000000A  ___bank_scene_43_init              scene_43_init
     0000000A  ___bank_song_sr388_quake_Data      song_sr388_quake_Data
     0000000A  b_do_load_palette                  data_manager
     0000000A  b_load_background                  data_manager
     0000000A  b_load_bkg_tileset                 data_manager
     0000000A  b_load_bounds                      data_manager
     0000000A  b_load_emote                       data_manager
     0000000A  b_load_init                        data_manager
     0000000A  b_load_player                      data_manager
     0000000A  b_load_scene                       data_manager
     0000000A  b_load_sprite                      data_manager
     0000000B  ___bank_bg_cubicle_b_cgb_tileset   bg_cubicle_b_cgb_tileset
     0000000B  ___bank_bg_final_boss_tilemap      bg_final_boss_tilemap
     0000000B  ___bank_bg_final_boss_tilemap_at   bg_final_boss_tilemap_attr
     0000000B  ___bank_bg_storage_room_tileset    bg_storage_room_tileset
     0000000B  ___bank_bg_tunnel_cgb_tileset      bg_tunnel_cgb_tileset
     0000000B  ___bank_scene_41_collisions        scene_41_collisions
     0000000B  ___bank_scene_42_collisions        scene_42_collisions
ASxxxx Linker V03.00/V05.40 + sdld,  page 6.
Hexadecimal  [32-Bits]

Area                                    Addr        Size        Decimal Bytes (Attributes)
--------------------------------        ----        ----        ------- ----- ------------
.  .ABS.                            00000000    00000000 =           0. bytes (ABS,CON)

      Value  Global                              Global Defined In Module
      -----  --------------------------------   ------------------------
     0000000B  ___bank_trigger_11_interact        trigger_11_interact
     0000000C  ___bank_VM_GAMEBOY                 vm_gameboy
     0000000C  ___bank_bg_bathroom_tileset        bg_bathroom_tileset
     0000000C  ___bank_bg_boss_office_b_tileset   bg_boss_office_b_tileset
     0000000C  ___bank_bg_boss_office_c_tileset   bg_boss_office_c_tileset
     0000000C  ___bank_bg_boss_office_tileset     bg_boss_office_tileset
     0000000C  ___bank_bg_cubicle_b_tileset       bg_cubicle_b_tileset
     0000000C  ___bank_bg_cubicle_c_cgb_tileset   bg_cubicle_c_cgb_tileset
     0000000C  ___bank_bg_cubicle_c_tileset       bg_cubicle_c_tileset
     0000000C  ___bank_cursor_image               cursor_image
     0000000C  b_vm_context_prepare               vm_gameboy
     0000000C  b_vm_fade                          vm_gameboy
     0000000C  b_vm_get_tile_xy                   vm_gameboy
     0000000C  b_vm_input_attach                  vm_gameboy
     0000000C  b_vm_input_detach                  vm_gameboy
     0000000C  b_vm_input_get                     vm_gameboy
     0000000C  b_vm_input_wait                    vm_gameboy
     0000000C  b_vm_load_tileset                  vm_gameboy
     0000000C  b_vm_poll                          vm_gameboy
     0000000C  b_vm_replace_tile                  vm_gameboy
     0000000C  b_vm_replace_tile_xy               vm_gameboy
     0000000C  b_vm_rumble                        vm_gameboy
     0000000C  b_vm_set_sprite_mode               vm_gameboy
     0000000C  b_vm_set_sprites_visible           vm_gameboy
     0000000C  b_vm_timer_prepare                 vm_gameboy
     0000000C  b_vm_timer_reset                   vm_gameboy
     0000000C  b_vm_timer_set                     vm_gameboy
     0000000C  b_vm_timer_stop                    vm_gameboy
     0000000D  ___bank_bg_break_start_tileset     bg_break_start_tileset
     0000000D  ___bank_bg_breakroom_b_tileset     bg_breakroom_b_tileset
     0000000D  ___bank_bg_breakroom_tileset       bg_breakroom_tileset
     0000000D  ___bank_bg_choice_b_tileset        bg_choice_b_tileset
     0000000D  ___bank_bg_choice_tileset          bg_choice_tileset
     0000000D  ___bank_bg_cubicle_tileset         bg_cubicle_tileset
     0000000D  ___bank_bg_final_boss_tileset      bg_final_boss_tileset
     0000000D  ___bank_bg_locker_inside_tileset   bg_locker_inside_tileset
     0000000E  ___bank_VM_UI                      vm_ui
     0000000E  ___bank_avatar_font_0              avatar_font_0
     0000000E  ___bank_bg_final_escape_2_tilese   bg_final_escape_2_tileset
     0000000E  ___bank_bg_jumpscare_tileset       bg_jumpscare_tileset
     0000000E  ___bank_bg_locker_tileset          bg_locker_tileset
     0000000E  ___bank_bg_outside_tileset         bg_outside_tileset
     0000000E  ___bank_bg_secret_zone_1_tileset   bg_secret_zone_1_tileset
     0000000E  ___bank_bg_work_start_tileset      bg_work_start_tileset
     0000000E  b_scroll_init                      scroll
     0000000E  b_scroll_repaint                   scroll
     0000000E  b_scroll_reset                     scroll
     0000000E  b_scroll_update                    scroll
     0000000E  b_vm_choice                        vm_ui
     0000000E  b_vm_display_text                  vm_ui
     0000000E  b_vm_overlay_clear                 vm_ui
ASxxxx Linker V03.00/V05.40 + sdld,  page 7.
Hexadecimal  [32-Bits]

Area                                    Addr        Size        Decimal Bytes (Attributes)
--------------------------------        ----        ----        ------- ----- ------------
.  .ABS.                            00000000    00000000 =           0. bytes (ABS,CON)

      Value  Global                              Global Defined In Module
      -----  --------------------------------   ------------------------
     0000000E  b_vm_overlay_move_to               vm_ui
     0000000E  b_vm_overlay_scroll                vm_ui
     0000000E  b_vm_overlay_set_map               vm_ui
     0000000E  b_vm_overlay_set_scroll            vm_ui
     0000000E  b_vm_overlay_set_submap            vm_ui
     0000000E  b_vm_overlay_set_submap_ex         vm_ui
     0000000E  b_vm_overlay_setpos                vm_ui
     0000000E  b_vm_overlay_show                  vm_ui
     0000000E  b_vm_overlay_wait                  vm_ui
     0000000E  b_vm_set_font                      vm_ui
     0000000E  b_vm_set_text_sound                vm_ui
     0000000E  b_vm_switch_text_layer             vm_ui
     0000000F  ___bank_bg_bathroom_b_cgb_tilese   bg_bathroom_b_cgb_tileset
     0000000F  ___bank_bg_bathroom_cgb_tileset    bg_bathroom_cgb_tileset
     0000000F  ___bank_bg_boss_office_b_cgb_til   bg_boss_office_b_cgb_tileset
     0000000F  ___bank_bg_boss_office_c_cgb_til   bg_boss_office_c_cgb_tileset
     0000000F  ___bank_bg_boss_office_cgb_tiles   bg_boss_office_cgb_tileset
     0000000F  ___bank_bg_boss_warning_tileset    bg_boss_warning_tileset
     0000000F  ___bank_bg_final_escape_2_cgb_ti   bg_final_escape_2_cgb_tilese
     0000000F  ___bank_scene_19_init              scene_19_init
     0000000F  ___bank_sound_scream2_wav          sound_scream2_wav
     0000000F  ___bank_sprite_player_larry        sprite_player_larry
     0000000F  b_topdown_init                     topdown
     0000000F  b_topdown_update                   topdown
     00000010  ___bank_actor_92_interact          actor_92_interact
     00000010  ___bank_bg_cubicle_b_tilemap       bg_cubicle_b_tilemap
     00000010  ___bank_bg_cubicle_b_tilemap_att   bg_cubicle_b_tilemap_attr
     00000010  ___bank_bg_cubicle_c_tilemap       bg_cubicle_c_tilemap
     00000010  ___bank_bg_cubicle_c_tilemap_att   bg_cubicle_c_tilemap_attr
     00000010  ___bank_bg_hallway_tileset         bg_hallway_tileset
     00000010  ___bank_bg_secret_zone_1_tilemap   bg_secret_zone_1_tilemap
     00000010  ___bank_bg_secret_zone_1_tilemap   bg_secret_zone_1_tilemap_att
     00000010  ___bank_bg_title_screen_tileset    bg_title_screen_tileset
     00000010  ___bank_scene_15_init              scene_15_init
     00000010  ___bank_scene_38_collisions        scene_38_collisions
     00000010  ___bank_trigger_58_interact        trigger_58_interact
     00000010  b_projectile_launch                projectiles
     00000010  b_projectiles_init                 projectiles
     00000011  ___bank_actor_2_update             actor_2_update
     00000011  ___bank_bg_final_escape_2_tilema   bg_final_escape_2_tilemap
     00000011  ___bank_bg_final_escape_2_tilema   bg_final_escape_2_tilemap_at
     00000011  ___bank_bg_game_over_productivit   bg_game_over_productivity_ti
     00000011  ___bank_bg_lost_n_found_tileset    bg_lost_n_found_tileset
     00000011  ___bank_scene_21_init              scene_21_init
     00000011  ___bank_scene_25_collisions        scene_25_collisions
     00000011  ___bank_scene_25_init              scene_25_init
     00000011  ___bank_scene_26_collisions        scene_26_collisions
     00000011  ___bank_scene_27_collisions        scene_27_collisions
     00000011  ___bank_scene_29_init              scene_29_init
     00000011  ___bank_scene_37_init              scene_37_init
     00000011  ___bank_scene_4_init               scene_4_init
ASxxxx Linker V03.00/V05.40 + sdld,  page 8.
Hexadecimal  [32-Bits]

Area                                    Addr        Size        Decimal Bytes (Attributes)
--------------------------------        ----        ----        ------- ----- ------------
.  .ABS.                            00000000    00000000 =           0. bytes (ABS,CON)

      Value  Global                              Global Defined In Module
      -----  --------------------------------   ------------------------
     00000011  ___bank_trigger_81_interact        trigger_81_interact
     00000012  ___bank_bg_boss_hallway_tileset    bg_boss_hallway_tileset
     00000012  ___bank_bg_breakroom_b_cgb_tiles   bg_breakroom_b_cgb_tileset
     00000012  ___bank_bg_breakroom_cgb_tileset   bg_breakroom_cgb_tileset
     00000012  ___bank_bg_game_over_stress_tile   bg_game_over_stress_tileset
     00000012  ___bank_bg_hallway_b_tilemap_att   bg_hallway_b_tilemap_attr
     00000012  ___bank_bg_hallway_b_tileset       bg_hallway_b_tileset
     00000012  ___bank_bg_vending_machine_tiles   bg_vending_machine_tileset
     00000012  ___bank_scene_14_init              scene_14_init
     00000012  ___bank_scene_23_init              scene_23_init
     00000012  ___bank_scene_24_init              scene_24_init
     00000012  ___bank_scene_26_init              scene_26_init
     00000012  ___bank_scene_27_init              scene_27_init
     00000012  ___bank_scene_28_init              scene_28_init
     00000012  ___bank_scene_46_init              scene_46_init
     00000013  ___bank_VM_CAMERA                  vm_camera
     00000013  ___bank_bg_cubicle_tilemap         bg_cubicle_tilemap
     00000013  ___bank_bg_cubicle_tilemap_attr    bg_cubicle_tilemap_attr
     00000013  ___bank_bg_secret_zone_1_cgb_til   bg_secret_zone_1_cgb_tileset
     00000013  ___bank_bg_tunnel_tilemap          bg_tunnel_tilemap
     00000013  ___bank_bg_tunnel_tilemap_attr     bg_tunnel_tilemap_attr
     00000013  ___bank_bg_vents_2_tilemap         bg_vents_2_tilemap
     00000013  ___bank_bg_vents_2_tilemap_attr    bg_vents_2_tilemap_attr
     00000013  ___bank_bg_vents_tilemap           bg_vents_tilemap
     00000013  ___bank_bg_vents_tilemap_attr      bg_vents_tilemap_attr
     00000013  ___bank_scene_22_collisions        scene_22_collisions
     00000013  ___bank_scene_2_collisions         scene_2_collisions
     00000013  ___bank_scene_40_init              scene_40_init
     00000013  ___bank_scene_4_collisions         scene_4_collisions
     00000013  ___bank_sound_scream1_wav          sound_scream1_wav
     00000013  b_camera_shake_frames              vm_camera
     00000013  b_core_reset                       core
     00000013  b_core_run                         core
     00000013  b_data_clear                       load_save
     00000013  b_data_init                        load_save
     00000013  b_data_load                        load_save
     00000013  b_data_peek                        load_save
     00000013  b_data_save                        load_save
     00000013  b_scroll_rect                      
     00000013  b_vm_camera_move_to                vm_camera
     00000013  b_vm_camera_set_pos                vm_camera
     00000014  ___bank_VM_SIO                     vm_sio
     00000014  ___bank_bg_boss_office_b_tilemap   bg_boss_office_b_tilemap
     00000014  ___bank_bg_boss_office_b_tilemap   bg_boss_office_b_tilemap_att
     00000014  ___bank_bg_boss_office_c_tilemap   bg_boss_office_c_tilemap
     00000014  ___bank_bg_boss_office_c_tilemap   bg_boss_office_c_tilemap_att
     00000014  ___bank_bg_boss_office_tilemap     bg_boss_office_tilemap
     00000014  ___bank_bg_boss_office_tilemap_a   bg_boss_office_tilemap_attr
     00000014  ___bank_bg_break_start_cgb_tiles   bg_break_start_cgb_tileset
     00000014  ___bank_bg_final_escape_1_tilese   bg_final_escape_1_tileset
     00000014  ___bank_bg_vents_tileset           bg_vents_tileset
ASxxxx Linker V03.00/V05.40 + sdld,  page 9.
Hexadecimal  [32-Bits]

Area                                    Addr        Size        Decimal Bytes (Attributes)
--------------------------------        ----        ----        ------- ----- ------------
.  .ABS.                            00000000    00000000 =           0. bytes (ABS,CON)

      Value  Global                              Global Defined In Module
      -----  --------------------------------   ------------------------
     00000014  ___bank_bg_work_start_cgb_tilese   bg_work_start_cgb_tileset
     00000014  ___bank_scene_15_collisions        scene_15_collisions
     00000014  ___bank_scene_32_collisions        scene_32_collisions
     00000014  ___bank_scene_32_init              scene_32_init
     00000014  ___bank_scene_33_collisions        scene_33_collisions
     00000014  ___bank_scene_34_collisions        scene_34_collisions
     00000014  ___bank_scene_46_collisions        scene_46_collisions
     00000014  ___bank_sprite_player_larry_tile   sprite_player_larry_tileset
     00000014  ___bank_trigger_12_interact        trigger_12_interact
     00000014  b___HandleCrash_banked             
     00000014  b_atan2                            math_atan2
     00000014  b_erase_flash                      
     00000014  b_gbprinter_detect                 gbprinter
     00000014  b_gbprinter_print_overlay          gbprinter
     00000014  b_save_sram_banks                  
     00000014  b_vm_sio_exchange                  vm_sio
     00000014  b_vm_sio_set_mode                  vm_sio
     00000015  ___bank_VM_RTC                     vm_rtc
     00000015  ___bank_actor_0_update             actor_0_update
     00000015  ___bank_bg_break_start_tilemap     bg_break_start_tilemap
     00000015  ___bank_bg_break_start_tilemap_a   bg_break_start_tilemap_attr
     00000015  ___bank_bg_breakroom_b_tilemap     bg_breakroom_b_tilemap
     00000015  ___bank_bg_breakroom_b_tilemap_a   bg_breakroom_b_tilemap_attr
     00000015  ___bank_bg_breakroom_tilemap       bg_breakroom_tilemap
     00000015  ___bank_bg_breakroom_tilemap_att   bg_breakroom_tilemap_attr
     00000015  ___bank_bg_final_boss_b_tilemap    bg_final_boss_b_tilemap
     00000015  ___bank_bg_final_boss_b_tilemap_   bg_final_boss_b_tilemap_attr
     00000015  ___bank_bg_final_boss_b_tileset    bg_final_boss_b_tileset
     00000015  ___bank_bg_jumpscare_tilemap       bg_jumpscare_tilemap
     00000015  ___bank_bg_jumpscare_tilemap_att   bg_jumpscare_tilemap_attr
     00000015  ___bank_bg_vents_2_tileset         bg_vents_2_tileset
     00000015  ___bank_bg_work_start_tilemap      bg_work_start_tilemap
     00000015  ___bank_bg_work_start_tilemap_at   bg_work_start_tilemap_attr
     00000015  ___bank_scene_0_collisions         scene_0_collisions
     00000015  ___bank_scene_10_collisions        scene_10_collisions
     00000015  ___bank_scene_11_collisions        scene_11_collisions
     00000015  ___bank_scene_16_sprites           scene_16_sprites
     00000015  ___bank_scene_1_collisions         scene_1_collisions
     00000015  ___bank_scene_3_collisions         scene_3_collisions
     00000015  ___bank_scene_43_collisions        scene_43_collisions
     00000015  ___bank_scene_47_init              scene_47_init
     00000015  ___bank_scene_5_collisions         scene_5_collisions
     00000015  ___bank_sound_type1_wav            sound_type1_wav
     00000015  ___bank_sprite_boombar             sprite_boombar
     00000015  ___bank_sprite_breakbar            sprite_breakbar
     00000015  ___bank_sprite_player_larry_bank   sprite_player_larry_bank2_ti
     00000015  b_fade_applypalettechange          fade_manager
     00000015  b_fade_in                          fade_manager
     00000015  b_fade_in_modal                    fade_manager
     00000015  b_fade_init                        fade_manager
     00000015  b_fade_out                         fade_manager
ASxxxx Linker V03.00/V05.40 + sdld,  page 10.
Hexadecimal  [32-Bits]

Area                                    Addr        Size        Decimal Bytes (Attributes)
--------------------------------        ----        ----        ------- ----- ------------
.  .ABS.                            00000000    00000000 =           0. bytes (ABS,CON)

      Value  Global                              Global Defined In Module
      -----  --------------------------------   ------------------------
     00000015  b_fade_out_modal                   fade_manager
     00000015  b_fade_setspeed                    fade_manager
     00000015  b_fade_update                      fade_manager
     00000015  b_vm_rtc_get                       vm_rtc
     00000015  b_vm_rtc_latch                     vm_rtc
     00000015  b_vm_rtc_set                       vm_rtc
     00000015  b_vm_rtc_start                     vm_rtc
     00000016  ___bank_VM_PALETTE                 vm_palette
     00000016  ___bank_actor_106_update           actor_106_update
     00000016  ___bank_actor_107_update           actor_107_update
     00000016  ___bank_actor_99_update            actor_99_update
     00000016  ___bank_bg_bathroom_b_tilemap      bg_bathroom_b_tilemap
     00000016  ___bank_bg_bathroom_b_tilemap_at   bg_bathroom_b_tilemap_attr
     00000016  ___bank_bg_bathroom_tilemap        bg_bathroom_tilemap
     00000016  ___bank_bg_bathroom_tilemap_attr   bg_bathroom_tilemap_attr
     00000016  ___bank_bg_boss_hallway_tilemap    bg_boss_hallway_tilemap
     00000016  ___bank_bg_boss_hallway_tilemap_   bg_boss_hallway_tilemap_attr
     00000016  ___bank_bg_caught_tileset          bg_caught_tileset
     00000016  ___bank_bg_final_boss_cgb_tilese   bg_final_boss_cgb_tileset
     00000016  ___bank_bg_hallway_b_tilemap       bg_hallway_b_tilemap
     00000016  ___bank_bg_hallway_tilemap         bg_hallway_tilemap
     00000016  ___bank_bg_hallway_tilemap_attr    bg_hallway_tilemap_attr
     00000016  ___bank_bg_jumpscare_cgb_tileset   bg_jumpscare_cgb_tileset
     00000016  ___bank_bg_outside_cgb_tileset     bg_outside_cgb_tileset
     00000016  ___bank_bg_outside_tilemap         bg_outside_tilemap
     00000016  ___bank_bg_outside_tilemap_attr    bg_outside_tilemap_attr
     00000016  ___bank_scene_14_collisions        scene_14_collisions
     00000016  ___bank_scene_17_init              scene_17_init
     00000016  ___bank_scene_18_init              scene_18_init
     00000016  ___bank_scene_21_collisions        scene_21_collisions
     00000016  ___bank_scene_23_collisions        scene_23_collisions
     00000016  ___bank_scene_24_collisions        scene_24_collisions
     00000016  ___bank_scene_29_collisions        scene_29_collisions
     00000016  ___bank_scene_2_init               scene_2_init
     00000016  ___bank_scene_39_collisions        scene_39_collisions
     00000016  ___bank_scene_41_actors            scene_41_actors
     00000016  ___bank_scene_6_init               scene_6_init
     00000016  ___bank_script_engine_init         
     00000016  ___bank_script_input_0             script_input_0
     00000016  ___bank_script_input_14            script_input_14
     00000016  ___bank_sprite_conveyor            sprite_conveyor
     00000016  ___bank_sprite_secret_bank2_tile   sprite_secret_bank2_tileset
     00000016  ___bank_sprite_secret_tileset      sprite_secret_tileset
     00000016  b_set_sgb_border                   sgb_border
     00000016  b_vm_load_palette                  vm_palette
     00000017  ___bank_bg_boss_warning_tilemap    bg_boss_warning_tilemap
     00000017  ___bank_bg_boss_warning_tilemap_   bg_boss_warning_tilemap_attr
     00000017  ___bank_bg_caught_tilemap          bg_caught_tilemap
     00000017  ___bank_bg_caught_tilemap_attr     bg_caught_tilemap_attr
     00000017  ___bank_bg_final_escape_1_tilema   bg_final_escape_1_tilemap
     00000017  ___bank_bg_final_escape_1_tilema   bg_final_escape_1_tilemap_at
ASxxxx Linker V03.00/V05.40 + sdld,  page 11.
Hexadecimal  [32-Bits]

Area                                    Addr        Size        Decimal Bytes (Attributes)
--------------------------------        ----        ----        ------- ----- ------------
.  .ABS.                            00000000    00000000 =           0. bytes (ABS,CON)

      Value  Global                              Global Defined In Module
      -----  --------------------------------   ------------------------
     00000017  ___bank_bg_game_over_productivit   bg_game_over_productivity_ti
     00000017  ___bank_bg_game_over_productivit   bg_game_over_productivity_ti
     00000017  ___bank_bg_game_over_stress_tile   bg_game_over_stress_tilemap
     00000017  ___bank_bg_game_over_stress_tile   bg_game_over_stress_tilemap_
     00000017  ___bank_bg_intro_tilemap           bg_intro_tilemap
     00000017  ___bank_bg_intro_tilemap_attr      bg_intro_tilemap_attr
     00000017  ___bank_bg_locker_inside_tilemap   bg_locker_inside_tilemap
     00000017  ___bank_bg_locker_inside_tilemap   bg_locker_inside_tilemap_att
     00000017  ___bank_bg_locker_tilemap          bg_locker_tilemap
     00000017  ___bank_bg_locker_tilemap_attr     bg_locker_tilemap_attr
     00000017  ___bank_bg_lost_n_found_tilemap    bg_lost_n_found_tilemap
     00000017  ___bank_bg_lost_n_found_tilemap_   bg_lost_n_found_tilemap_attr
     00000017  ___bank_bg_productivity_too_low_   bg_productivity_too_low_tile
     00000017  ___bank_bg_productivity_too_low_   bg_productivity_too_low_tile
     00000017  ___bank_bg_storage_room_tilemap    bg_storage_room_tilemap
     00000017  ___bank_bg_storage_room_tilemap_   bg_storage_room_tilemap_attr
     00000017  ___bank_bg_stress_too_high_tilem   bg_stress_too_high_tilemap
     00000017  ___bank_bg_stress_too_high_tilem   bg_stress_too_high_tilemap_a
     00000017  ___bank_bg_title_screen_tilemap    bg_title_screen_tilemap
     00000017  ___bank_bg_title_screen_tilemap_   bg_title_screen_tilemap_attr
     00000017  ___bank_bg_vending_machine_tilem   bg_vending_machine_tilemap
     00000017  ___bank_bg_vending_machine_tilem   bg_vending_machine_tilemap_a
     00000017  ___bank_scene_12_collisions        scene_12_collisions
     00000017  ___bank_scene_13_collisions        scene_13_collisions
     00000017  ___bank_scene_16_collisions        scene_16_collisions
     00000017  ___bank_scene_17_collisions        scene_17_collisions
     00000017  ___bank_scene_18_collisions        scene_18_collisions
     00000017  ___bank_scene_19_collisions        scene_19_collisions
     00000017  ___bank_scene_20_collisions        scene_20_collisions
     00000017  ___bank_scene_28_collisions        scene_28_collisions
     00000017  ___bank_scene_2_actors             scene_2_actors
     00000017  ___bank_scene_30_collisions        scene_30_collisions
     00000017  ___bank_scene_31_collisions        scene_31_collisions
     00000017  ___bank_scene_35_collisions        scene_35_collisions
     00000017  ___bank_scene_3_actors             scene_3_actors
     00000017  ___bank_scene_40_collisions        scene_40_collisions
     00000017  ___bank_scene_41_init              scene_41_init
     00000017  ___bank_scene_44_collisions        scene_44_collisions
     00000017  ___bank_script_input_20            script_input_20
     00000017  ___bank_sprite_items               sprite_items
     00000018  ___bank_VM_MATH                    vm_math
     00000018  ___bank_actor_17_update            actor_17_update
     00000018  ___bank_actor_37_update            actor_37_update
     00000018  ___bank_actor_3_interact           actor_3_interact
     00000018  ___bank_actor_68_update            actor_68_update
     00000018  ___bank_actor_69_update            actor_69_update
     00000018  ___bank_actor_70_update            actor_70_update
     00000018  ___bank_actor_71_update            actor_71_update
     00000018  ___bank_actor_72_update            actor_72_update
     00000018  ___bank_actor_73_update            actor_73_update
     00000018  ___bank_actor_74_update            actor_74_update
ASxxxx Linker V03.00/V05.40 + sdld,  page 12.
Hexadecimal  [32-Bits]

Area                                    Addr        Size        Decimal Bytes (Attributes)
--------------------------------        ----        ----        ------- ----- ------------
.  .ABS.                            00000000    00000000 =           0. bytes (ABS,CON)

      Value  Global                              Global Defined In Module
      -----  --------------------------------   ------------------------
     00000018  ___bank_actor_75_update            actor_75_update
     00000018  ___bank_actor_76_update            actor_76_update
     00000018  ___bank_actor_77_update            actor_77_update
     00000018  ___bank_actor_78_update            actor_78_update
     00000018  ___bank_actor_83_update            actor_83_update
     00000018  ___bank_actor_84_update            actor_84_update
     00000018  ___bank_actor_85_update            actor_85_update
     00000018  ___bank_actor_86_update            actor_86_update
     00000018  ___bank_actor_87_update            actor_87_update
     00000018  ___bank_actor_88_update            actor_88_update
     00000018  ___bank_bg_productivity_too_low_   bg_productivity_too_low_tile
     00000018  ___bank_bg_stress_too_high_tiles   bg_stress_too_high_tileset
     00000018  ___bank_scene_1_actors             scene_1_actors
     00000018  ___bank_scene_26_actors            scene_26_actors
     00000018  ___bank_scene_31_init              scene_31_init
     00000018  ___bank_scene_39_init              scene_39_init
     00000018  ___bank_scene_47_collisions        scene_47_collisions
     00000018  ___bank_scene_6_collisions         scene_6_collisions
     00000018  ___bank_scene_7_collisions         scene_7_collisions
     00000018  ___bank_scene_8_collisions         scene_8_collisions
     00000018  ___bank_scene_9_collisions         scene_9_collisions
     00000018  ___bank_script_input_123           script_input_123
     00000018  ___bank_script_input_22            script_input_22
     00000018  ___bank_script_input_28            script_input_28
     00000018  ___bank_script_input_50            script_input_50
     00000018  ___bank_script_input_98            script_input_98
     00000018  ___bank_sprite_boombar_tileset     sprite_boombar_tileset
     00000018  ___bank_sprite_breakbar_tileset    sprite_breakbar_tileset
     00000018  ___bank_sprite_energy_bars         sprite_energy_bars
     00000018  ___bank_sprite_interact_button     sprite_interact_button
     00000018  ___bank_sprite_interact_button_b   sprite_interact_button_bank2
     00000018  ___bank_sprite_interact_button_t   sprite_interact_button_tiles
     00000018  ___bank_sprite_items_bank2_tiles   sprite_items_bank2_tileset
     00000018  ___bank_sprite_items_tileset       sprite_items_tileset
     00000018  ___bank_sprite_peekers             sprite_peekers
     00000018  ___bank_sprite_peekers_bank2_til   sprite_peekers_bank2_tileset
     00000018  ___bank_sprite_peekers_tileset     sprite_peekers_tileset
     00000018  ___bank_trigger_10_interact        trigger_10_interact
     00000018  ___bank_trigger_31_interact        trigger_31_interact
     00000018  ___bank_trigger_41_interact        trigger_41_interact
     00000018  ___bank_trigger_52_interact        trigger_52_interact
     00000018  ___bank_trigger_54_interact        trigger_54_interact
     00000018  b_itoa_fmt                         vm_ui_a
     00000018  b_music_events_poll                music_manager
     00000018  b_music_init_driver                music_manager
     00000018  b_music_init_events                music_manager
     00000018  b_vm_cos_scale                     vm_math
     00000018  b_vm_sin_scale                     vm_math
     00000018  l__INITIALIZED                  
     00000018  l__INITIALIZER                  
     00000019  ___bank_VM_GBPRINTER               vm_gbprinter
ASxxxx Linker V03.00/V05.40 + sdld,  page 13.
Hexadecimal  [32-Bits]

Area                                    Addr        Size        Decimal Bytes (Attributes)
--------------------------------        ----        ----        ------- ----- ------------
.  .ABS.                            00000000    00000000 =           0. bytes (ABS,CON)

      Value  Global                              Global Defined In Module
      -----  --------------------------------   ------------------------
     00000019  ___bank_VM_LOAD_SAVE               vm_load_save
     00000019  ___bank_VM_SCENE                   vm_scene
     00000019  ___bank_actor_10_update            actor_10_update
     00000019  ___bank_actor_11_update            actor_11_update
     00000019  ___bank_actor_4_update             actor_4_update
     00000019  ___bank_actor_5_update             actor_5_update
     00000019  ___bank_actor_6_update             actor_6_update
     00000019  ___bank_actor_82_update            actor_82_update
     00000019  ___bank_bg_choice_cgb_tileset      bg_choice_cgb_tileset
     00000019  ___bank_bg_cubicle_cgb_tileset     bg_cubicle_cgb_tileset
     00000019  ___bank_frame_image                frame_image
     00000019  ___bank_scene_11_init              scene_11_init
     00000019  ___bank_scene_12_init              scene_12_init
     00000019  ___bank_scene_13_init              scene_13_init
     00000019  ___bank_scene_14_actors            scene_14_actors
     00000019  ___bank_scene_15_actors            scene_15_actors
     00000019  ___bank_scene_16_init              scene_16_init
     00000019  ___bank_scene_19_actors            scene_19_actors
     00000019  ___bank_scene_19_triggers          scene_19_triggers
     00000019  ___bank_scene_20_init              scene_20_init
     00000019  ___bank_scene_21_actors            scene_21_actors
     00000019  ___bank_scene_22_init              scene_22_init
     00000019  ___bank_scene_23_actors            scene_23_actors
     00000019  ___bank_scene_24_actors            scene_24_actors
     00000019  ___bank_scene_25_actors            scene_25_actors
     00000019  ___bank_scene_27_actors            scene_27_actors
     00000019  ___bank_scene_28_actors            scene_28_actors
     00000019  ___bank_scene_29_actors            scene_29_actors
     00000019  ___bank_scene_30_triggers          scene_30_triggers
     00000019  ___bank_scene_32_actors            scene_32_actors
     00000019  ___bank_scene_33_init              scene_33_init
     00000019  ___bank_scene_35_init              scene_35_init
     00000019  ___bank_scene_36_actors            scene_36_actors
     00000019  ___bank_scene_36_init              scene_36_init
     00000019  ___bank_scene_37_actors            scene_37_actors
     00000019  ___bank_scene_42_actors            scene_42_actors
     00000019  ___bank_scene_42_init              scene_42_init
     00000019  ___bank_scene_44_init              scene_44_init
     00000019  ___bank_scene_4_actors             scene_4_actors
     00000019  ___bank_scene_5_init               scene_5_init
     00000019  ___bank_scene_7_init               scene_7_init
     00000019  ___bank_scene_8_init               scene_8_init
     00000019  ___bank_scene_9_init               scene_9_init
     00000019  ___bank_script_input_1             script_input_1
     00000019  ___bank_script_input_104           script_input_104
     00000019  ___bank_script_input_12            script_input_12
     00000019  ___bank_script_input_18            script_input_18
     00000019  ___bank_script_input_25            script_input_25
     00000019  ___bank_script_input_26            script_input_26
     00000019  ___bank_script_input_27            script_input_27
     00000019  ___bank_script_input_30            script_input_30
ASxxxx Linker V03.00/V05.40 + sdld,  page 14.
Hexadecimal  [32-Bits]

Area                                    Addr        Size        Decimal Bytes (Attributes)
--------------------------------        ----        ----        ------- ----- ------------
.  .ABS.                            00000000    00000000 =           0. bytes (ABS,CON)

      Value  Global                              Global Defined In Module
      -----  --------------------------------   ------------------------
     00000019  ___bank_script_input_4             script_input_4
     00000019  ___bank_script_input_40            script_input_40
     00000019  ___bank_script_input_42            script_input_42
     00000019  ___bank_script_input_49            script_input_49
     00000019  ___bank_script_input_58            script_input_58
     00000019  ___bank_script_input_6             script_input_6
     00000019  ___bank_script_input_60            script_input_60
     00000019  ___bank_script_input_65            script_input_65
     00000019  ___bank_script_input_70            script_input_70
     00000019  ___bank_script_input_8             script_input_8
     00000019  ___bank_script_input_9             script_input_9
     00000019  ___bank_script_input_96            script_input_96
     00000019  ___bank_script_timer               script_timer
     00000019  ___bank_script_timer_1             script_timer_1
     00000019  ___bank_script_timer_17            script_timer_17
     00000019  ___bank_script_timer_2             script_timer_2
     00000019  ___bank_script_timer_62            script_timer_62
     00000019  ___bank_script_timer_71            script_timer_71
     00000019  ___bank_sprite_boombar_bank2_til   sprite_boombar_bank2_tileset
     00000019  ___bank_sprite_breakbar_bank2_ti   sprite_breakbar_bank2_tilese
     00000019  ___bank_sprite_clock               sprite_clock
     00000019  ___bank_sprite_energy_bars_stres   sprite_energy_bars_stress
     00000019  ___bank_sprite_eyes                sprite_eyes
     00000019  ___bank_sprite_final_glass         sprite_final_glass
     00000019  ___bank_sprite_final_glass_bank2   sprite_final_glass_bank2_til
     00000019  ___bank_sprite_final_glass_tiles   sprite_final_glass_tileset
     00000019  ___bank_sprite_fire                sprite_fire
     00000019  ___bank_sprite_fire_bank2_tilese   sprite_fire_bank2_tileset
     00000019  ___bank_sprite_fire_tileset        sprite_fire_tileset
     00000019  ___bank_sprite_get_key             sprite_get_key
     00000019  ___bank_sprite_get_key_tileset     sprite_get_key_tileset
     00000019  ___bank_sprite_hearts              sprite_hearts
     00000019  ___bank_sprite_jo_bot              sprite_jo_bot
     00000019  ___bank_sprite_locker_dot          sprite_locker_dot
     00000019  ___bank_sprite_press_start_bank2   sprite_press_start_bank2_til
     00000019  ___bank_sprite_press_start_tiles   sprite_press_start_tileset
     00000019  ___bank_sprite_push_to_start       sprite_push_to_start
     00000019  ___bank_sprite_push_to_start_ban   sprite_push_to_start_bank2_t
     00000019  ___bank_sprite_push_to_start_til   sprite_push_to_start_tileset
     00000019  ___bank_sprite_secret              sprite_secret
     00000019  ___bank_trigger_0_interact         trigger_0_interact
     00000019  ___bank_trigger_1_interact         trigger_1_interact
     00000019  ___bank_trigger_25_interact        trigger_25_interact
     00000019  ___bank_trigger_29_interact        trigger_29_interact
     00000019  ___bank_trigger_2_interact         trigger_2_interact
     00000019  ___bank_trigger_30_interact        trigger_30_interact
     00000019  ___bank_trigger_32_interact        trigger_32_interact
     00000019  ___bank_trigger_33_interact        trigger_33_interact
     00000019  ___bank_trigger_34_interact        trigger_34_interact
     00000019  ___bank_trigger_35_interact        trigger_35_interact
     00000019  ___bank_trigger_36_interact        trigger_36_interact
ASxxxx Linker V03.00/V05.40 + sdld,  page 15.
Hexadecimal  [32-Bits]

Area                                    Addr        Size        Decimal Bytes (Attributes)
--------------------------------        ----        ----        ------- ----- ------------
.  .ABS.                            00000000    00000000 =           0. bytes (ABS,CON)

      Value  Global                              Global Defined In Module
      -----  --------------------------------   ------------------------
     00000019  ___bank_trigger_37_interact        trigger_37_interact
     00000019  ___bank_trigger_39_interact        trigger_39_interact
     00000019  ___bank_trigger_40_interact        trigger_40_interact
     00000019  ___bank_trigger_42_interact        trigger_42_interact
     00000019  ___bank_trigger_43_interact        trigger_43_interact
     00000019  ___bank_trigger_44_interact        trigger_44_interact
     00000019  ___bank_trigger_46_interact        trigger_46_interact
     00000019  ___bank_trigger_47_interact        trigger_47_interact
     00000019  ___bank_trigger_48_interact        trigger_48_interact
     00000019  ___bank_trigger_49_interact        trigger_49_interact
     00000019  ___bank_trigger_4_interact         trigger_4_interact
     00000019  ___bank_trigger_50_interact        trigger_50_interact
     00000019  ___bank_trigger_51_interact        trigger_51_interact
     00000019  ___bank_trigger_53_interact        trigger_53_interact
     00000019  ___bank_trigger_55_interact        trigger_55_interact
     00000019  ___bank_trigger_56_interact        trigger_56_interact
     00000019  ___bank_trigger_57_interact        trigger_57_interact
     00000019  ___bank_trigger_59_interact        trigger_59_interact
     00000019  ___bank_trigger_5_interact         trigger_5_interact
     00000019  ___bank_trigger_60_interact        trigger_60_interact
     00000019  ___bank_trigger_61_interact        trigger_61_interact
     00000019  ___bank_trigger_62_interact        trigger_62_interact
     00000019  ___bank_trigger_63_interact        trigger_63_interact
     00000019  ___bank_trigger_68_interact        trigger_68_interact
     00000019  ___bank_trigger_69_interact        trigger_69_interact
     00000019  ___bank_trigger_80_interact        trigger_80_interact
     00000019  ___bank_trigger_82_interact        trigger_82_interact
     00000019  ___bank_trigger_96_interact        trigger_96_interact
     00000019  ___bank_trigger_9_interact         trigger_9_interact
     00000019  b_CGBZeroPalette                   palette
     00000019  b_events_init                      events
     00000019  b_palette_init                     palette
     00000019  b_restore_sram                     flasher
     00000019  b_restore_sram_bank                flasher
     00000019  b_save_sram                        flasher
     00000019  b_timers_init                      events
     00000019  b_vm_print_detect                  vm_gbprinter
     00000019  b_vm_print_overlay                 vm_gbprinter
     00000019  b_vm_save_clear                    vm_load_save
     00000019  b_vm_save_peek                     vm_load_save
     00000019  b_vm_scene_pop                     vm_scene
     00000019  b_vm_scene_pop_all                 vm_scene
     00000019  b_vm_scene_push                    vm_scene
     00000019  b_vm_scene_stack_reset             vm_scene
     0000001A  ___bank_actor_117_interact         actor_117_interact
     0000001A  ___bank_actor_19_update            actor_19_update
     0000001A  ___bank_actor_35_update            actor_35_update
     0000001A  ___bank_actor_36_update            actor_36_update
     0000001A  ___bank_actor_56_update            actor_56_update
     0000001A  ___bank_actor_79_update            actor_79_update
     0000001A  ___bank_bg_bathroom                bg_bathroom
ASxxxx Linker V03.00/V05.40 + sdld,  page 16.
Hexadecimal  [32-Bits]

Area                                    Addr        Size        Decimal Bytes (Attributes)
--------------------------------        ----        ----        ------- ----- ------------
.  .ABS.                            00000000    00000000 =           0. bytes (ABS,CON)

      Value  Global                              Global Defined In Module
      -----  --------------------------------   ------------------------
     0000001A  ___bank_bg_boss_hallway            bg_boss_hallway
     0000001A  ___bank_bg_boss_office             bg_boss_office
     0000001A  ___bank_bg_boss_office_b           bg_boss_office_b
     0000001A  ___bank_bg_boss_office_c           bg_boss_office_c
     0000001A  ___bank_bg_boss_warning            bg_boss_warning
     0000001A  ___bank_bg_break_start             bg_break_start
     0000001A  ___bank_bg_breakroom               bg_breakroom
     0000001A  ___bank_bg_breakroom_b             bg_breakroom_b
     0000001A  ___bank_bg_caught                  bg_caught
     0000001A  ___bank_bg_choice                  bg_choice
     0000001A  ___bank_bg_choice_b                bg_choice_b
     0000001A  ___bank_bg_choice_b_cgb_tileset    bg_choice_b_cgb_tileset
     0000001A  ___bank_bg_cubicle                 bg_cubicle
     0000001A  ___bank_bg_cubicle_b               bg_cubicle_b
     0000001A  ___bank_bg_cubicle_c               bg_cubicle_c
     0000001A  ___bank_bg_final_boss              bg_final_boss
     0000001A  ___bank_bg_final_boss_b            bg_final_boss_b
     0000001A  ___bank_bg_final_escape_1          bg_final_escape_1
     0000001A  ___bank_bg_final_escape_2          bg_final_escape_2
     0000001A  ___bank_bg_game_over_productivit   bg_game_over_productivity
     0000001A  ___bank_bg_game_over_stress        bg_game_over_stress
     0000001A  ___bank_bg_hallway                 bg_hallway
     0000001A  ___bank_bg_hallway_b               bg_hallway_b
     0000001A  ___bank_bg_intro                   bg_intro
     0000001A  ___bank_bg_intro_tileset           bg_intro_tileset
     0000001A  ___bank_bg_jumpscare               bg_jumpscare
     0000001A  ___bank_bg_locker                  bg_locker
     0000001A  ___bank_bg_locker_inside           bg_locker_inside
     0000001A  ___bank_bg_lost_n_found            bg_lost_n_found
     0000001A  ___bank_bg_outside                 bg_outside
     0000001A  ___bank_bg_productivity_too_low    bg_productivity_too_low
     0000001A  ___bank_bg_secret_zone_1           bg_secret_zone_1
     0000001A  ___bank_bg_storage_room            bg_storage_room
     0000001A  ___bank_bg_stress_too_high         bg_stress_too_high
     0000001A  ___bank_bg_title_screen            bg_title_screen
     0000001A  ___bank_bg_tunnel                  bg_tunnel
     0000001A  ___bank_bg_vending_machine         bg_vending_machine
     0000001A  ___bank_bg_vents                   bg_vents
     0000001A  ___bank_bg_vents_2                 bg_vents_2
     0000001A  ___bank_bg_work_start              bg_work_start
     0000001A  ___bank_bootstrap_script           
     0000001A  ___bank_palette_0                  palette_0
     0000001A  ___bank_palette_1                  palette_1
     0000001A  ___bank_palette_2                  palette_2
     0000001A  ___bank_palette_3                  palette_3
     0000001A  ___bank_palette_4                  palette_4
     0000001A  ___bank_palette_5                  palette_5
     0000001A  ___bank_palette_6                  palette_6
     0000001A  ___bank_palette_7                  palette_7
     0000001A  ___bank_scene_0                    scene_0
     0000001A  ___bank_scene_0_actors             scene_0_actors
ASxxxx Linker V03.00/V05.40 + sdld,  page 17.
Hexadecimal  [32-Bits]

Area                                    Addr        Size        Decimal Bytes (Attributes)
--------------------------------        ----        ----        ------- ----- ------------
.  .ABS.                            00000000    00000000 =           0. bytes (ABS,CON)

      Value  Global                              Global Defined In Module
      -----  --------------------------------   ------------------------
     0000001A  ___bank_scene_0_init               scene_0_init
     0000001A  ___bank_scene_1                    scene_1
     0000001A  ___bank_scene_10                   scene_10
     0000001A  ___bank_scene_10_actors            scene_10_actors
     0000001A  ___bank_scene_10_init              scene_10_init
     0000001A  ___bank_scene_11                   scene_11
     0000001A  ___bank_scene_12                   scene_12
     0000001A  ___bank_scene_13                   scene_13
     0000001A  ___bank_scene_14                   scene_14
     0000001A  ___bank_scene_14_triggers          scene_14_triggers
     0000001A  ___bank_scene_15                   scene_15
     0000001A  ___bank_scene_15_sprites           scene_15_sprites
     0000001A  ___bank_scene_15_triggers          scene_15_triggers
     0000001A  ___bank_scene_16                   scene_16
     0000001A  ___bank_scene_16_actors            scene_16_actors
     0000001A  ___bank_scene_17                   scene_17
     0000001A  ___bank_scene_18                   scene_18
     0000001A  ___bank_scene_19                   scene_19
     0000001A  ___bank_scene_19_sprites           scene_19_sprites
     0000001A  ___bank_scene_1_sprites            scene_1_sprites
     0000001A  ___bank_scene_1_triggers           scene_1_triggers
     0000001A  ___bank_scene_2                    scene_2
     0000001A  ___bank_scene_20                   scene_20
     0000001A  ___bank_scene_20_triggers          scene_20_triggers
     0000001A  ___bank_scene_21                   scene_21
     0000001A  ___bank_scene_21_sprites           scene_21_sprites
     0000001A  ___bank_scene_21_triggers          scene_21_triggers
     0000001A  ___bank_scene_22                   scene_22
     0000001A  ___bank_scene_22_actors            scene_22_actors
     0000001A  ___bank_scene_22_sprites           scene_22_sprites
     0000001A  ___bank_scene_22_triggers          scene_22_triggers
     0000001A  ___bank_scene_23                   scene_23
     0000001A  ___bank_scene_23_sprites           scene_23_sprites
     0000001A  ___bank_scene_23_triggers          scene_23_triggers
     0000001A  ___bank_scene_24                   scene_24
     0000001A  ___bank_scene_24_sprites           scene_24_sprites
     0000001A  ___bank_scene_24_triggers          scene_24_triggers
     0000001A  ___bank_scene_25                   scene_25
     0000001A  ___bank_scene_25_sprites           scene_25_sprites
     0000001A  ___bank_scene_25_triggers          scene_25_triggers
     0000001A  ___bank_scene_26                   scene_26
     0000001A  ___bank_scene_26_sprites           scene_26_sprites
     0000001A  ___bank_scene_26_triggers          scene_26_triggers
     0000001A  ___bank_scene_27                   scene_27
     0000001A  ___bank_scene_27_sprites           scene_27_sprites
     0000001A  ___bank_scene_27_triggers          scene_27_triggers
     0000001A  ___bank_scene_28                   scene_28
     0000001A  ___bank_scene_28_sprites           scene_28_sprites
     0000001A  ___bank_scene_28_triggers          scene_28_triggers
     0000001A  ___bank_scene_29                   scene_29
     0000001A  ___bank_scene_29_sprites           scene_29_sprites
ASxxxx Linker V03.00/V05.40 + sdld,  page 18.
Hexadecimal  [32-Bits]

Area                                    Addr        Size        Decimal Bytes (Attributes)
--------------------------------        ----        ----        ------- ----- ------------
.  .ABS.                            00000000    00000000 =           0. bytes (ABS,CON)

      Value  Global                              Global Defined In Module
      -----  --------------------------------   ------------------------
     0000001A  ___bank_scene_29_triggers          scene_29_triggers
     0000001A  ___bank_scene_2_sprites            scene_2_sprites
     0000001A  ___bank_scene_3                    scene_3
     0000001A  ___bank_scene_30                   scene_30
     0000001A  ___bank_scene_30_actors            scene_30_actors
     0000001A  ___bank_scene_30_init              scene_30_init
     0000001A  ___bank_scene_30_sprites           scene_30_sprites
     0000001A  ___bank_scene_31                   scene_31
     0000001A  ___bank_scene_32                   scene_32
     0000001A  ___bank_scene_32_sprites           scene_32_sprites
     0000001A  ___bank_scene_32_triggers          scene_32_triggers
     0000001A  ___bank_scene_33                   scene_33
     0000001A  ___bank_scene_33_triggers          scene_33_triggers
     0000001A  ___bank_scene_34                   scene_34
     0000001A  ___bank_scene_34_init              scene_34_init
     0000001A  ___bank_scene_34_triggers          scene_34_triggers
     0000001A  ___bank_scene_35                   scene_35
     0000001A  ___bank_scene_36                   scene_36
     0000001A  ___bank_scene_36_sprites           scene_36_sprites
     0000001A  ___bank_scene_36_triggers          scene_36_triggers
     0000001A  ___bank_scene_37                   scene_37
     0000001A  ___bank_scene_37_sprites           scene_37_sprites
     0000001A  ___bank_scene_37_triggers          scene_37_triggers
     0000001A  ___bank_scene_38                   scene_38
     0000001A  ___bank_scene_38_init              scene_38_init
     0000001A  ___bank_scene_38_triggers          scene_38_triggers
     0000001A  ___bank_scene_39                   scene_39
     0000001A  ___bank_scene_3_sprites            scene_3_sprites
     0000001A  ___bank_scene_3_triggers           scene_3_triggers
     0000001A  ___bank_scene_4                    scene_4
     0000001A  ___bank_scene_40                   scene_40
     0000001A  ___bank_scene_41                   scene_41
     0000001A  ___bank_scene_41_sprites           scene_41_sprites
     0000001A  ___bank_scene_41_triggers          scene_41_triggers
     0000001A  ___bank_scene_42                   scene_42
     0000001A  ___bank_scene_42_sprites           scene_42_sprites
     0000001A  ___bank_scene_43                   scene_43
     0000001A  ___bank_scene_43_actors            scene_43_actors
     0000001A  ___bank_scene_43_sprites           scene_43_sprites
     0000001A  ___bank_scene_43_triggers          scene_43_triggers
     0000001A  ___bank_scene_44                   scene_44
     0000001A  ___bank_scene_46                   scene_46
     0000001A  ___bank_scene_46_actors            scene_46_actors
     0000001A  ___bank_scene_46_sprites           scene_46_sprites
     0000001A  ___bank_scene_46_triggers          scene_46_triggers
     0000001A  ___bank_scene_47                   scene_47
     0000001A  ___bank_scene_4_sprites            scene_4_sprites
     0000001A  ___bank_scene_4_triggers           scene_4_triggers
     0000001A  ___bank_scene_5                    scene_5
     0000001A  ___bank_scene_6                    scene_6
     0000001A  ___bank_scene_6_actors             scene_6_actors
ASxxxx Linker V03.00/V05.40 + sdld,  page 19.
Hexadecimal  [32-Bits]

Area                                    Addr        Size        Decimal Bytes (Attributes)
--------------------------------        ----        ----        ------- ----- ------------
.  .ABS.                            00000000    00000000 =           0. bytes (ABS,CON)

      Value  Global                              Global Defined In Module
      -----  --------------------------------   ------------------------
     0000001A  ___bank_scene_6_sprites            scene_6_sprites
     0000001A  ___bank_scene_7                    scene_7
     0000001A  ___bank_scene_8                    scene_8
     0000001A  ___bank_scene_9                    scene_9
     0000001A  ___bank_script_input_10            script_input_10
     0000001A  ___bank_script_input_121           script_input_121
     0000001A  ___bank_script_input_132           script_input_132
     0000001A  ___bank_script_input_15            script_input_15
     0000001A  ___bank_script_input_3             script_input_3
     0000001A  ___bank_script_input_32            script_input_32
     0000001A  ___bank_script_input_33            script_input_33
     0000001A  ___bank_script_input_52            script_input_52
     0000001A  ___bank_script_input_56            script_input_56
     0000001A  ___bank_script_input_63            script_input_63
     0000001A  ___bank_script_input_72            script_input_72
     0000001A  ___bank_script_input_75            script_input_75
     0000001A  ___bank_script_input_78            script_input_78
     0000001A  ___bank_script_input_81            script_input_81
     0000001A  ___bank_script_input_84            script_input_84
     0000001A  ___bank_script_input_87            script_input_87
     0000001A  ___bank_script_input_90            script_input_90
     0000001A  ___bank_script_input_93            script_input_93
     0000001A  ___bank_script_timer_0             script_timer_0
     0000001A  ___bank_script_timer_20            script_timer_20
     0000001A  ___bank_sound_legacy_0             sound_legacy_0
     0000001A  ___bank_sound_legacy_0_0           sound_legacy_0_0
     0000001A  ___bank_sound_legacy_0_1           sound_legacy_0_1
     0000001A  ___bank_sound_legacy_0_2           sound_legacy_0_2
     0000001A  ___bank_sound_legacy_0_3           sound_legacy_0_3
     0000001A  ___bank_sound_legacy_0_4           sound_legacy_0_4
     0000001A  ___bank_sprite_clock_bank2_tiles   sprite_clock_bank2_tileset
     0000001A  ___bank_sprite_clock_tileset       sprite_clock_tileset
     0000001A  ___bank_sprite_cursor              sprite_cursor
     0000001A  ___bank_sprite_cursor_bank2_tile   sprite_cursor_bank2_tileset
     0000001A  ___bank_sprite_cursor_tileset      sprite_cursor_tileset
     0000001A  ___bank_sprite_elevator            sprite_elevator
     0000001A  ___bank_sprite_elevator_bank2_ti   sprite_elevator_bank2_tilese
     0000001A  ___bank_sprite_elevator_tileset    sprite_elevator_tileset
     0000001A  ___bank_sprite_end_slide_floor_t   sprite_end_slide_floor_trig
     0000001A  ___bank_sprite_energy_bar_full_t   sprite_energy_bar_full_trig
     0000001A  ___bank_sprite_energy_bars_bank2   sprite_energy_bars_bank2_til
     0000001A  ___bank_sprite_energy_bars_stres   sprite_energy_bars_stress_ti
     0000001A  ___bank_sprite_energy_bars_tiles   sprite_energy_bars_tileset
     0000001A  ___bank_sprite_eyes_bank2_tilese   sprite_eyes_bank2_tileset
     0000001A  ___bank_sprite_eyes_tileset        sprite_eyes_tileset
     0000001A  ___bank_sprite_get_key_bank2_til   sprite_get_key_bank2_tileset
     0000001A  ___bank_sprite_hearts_bank2_tile   sprite_hearts_bank2_tileset
     0000001A  ___bank_sprite_hearts_tileset      sprite_hearts_tileset
     0000001A  ___bank_sprite_jo_bot_bank2_tile   sprite_jo_bot_bank2_tileset
     0000001A  ___bank_sprite_jo_bot_tileset      sprite_jo_bot_tileset
     0000001A  ___bank_sprite_locker_dot_bank2_   sprite_locker_dot_bank2_tile
ASxxxx Linker V03.00/V05.40 + sdld,  page 20.
Hexadecimal  [32-Bits]

Area                                    Addr        Size        Decimal Bytes (Attributes)
--------------------------------        ----        ----        ------- ----- ------------
.  .ABS.                            00000000    00000000 =           0. bytes (ABS,CON)

      Value  Global                              Global Defined In Module
      -----  --------------------------------   ------------------------
     0000001A  ___bank_sprite_locker_dot_tilese   sprite_locker_dot_tileset
     0000001A  ___bank_sprite_press_start         sprite_press_start
     0000001A  ___bank_sprite_shutdown_button     sprite_shutdown_button
     0000001A  ___bank_sprite_shutdown_button_t   sprite_shutdown_button_tiles
     0000001A  ___bank_sprite_vent_cover          sprite_vent_cover
     0000001A  ___bank_sprite_vent_cover_tilese   sprite_vent_cover_tileset
     0000001A  ___bank_spritesheet_none           spritesheet_none
     0000001A  ___bank_trigger_100_interact       trigger_100_interact
     0000001A  ___bank_trigger_101_interact       trigger_101_interact
     0000001A  ___bank_trigger_102_interact       trigger_102_interact
     0000001A  ___bank_trigger_13_interact        trigger_13_interact
     0000001A  ___bank_trigger_14_interact        trigger_14_interact
     0000001A  ___bank_trigger_15_interact        trigger_15_interact
     0000001A  ___bank_trigger_16_interact        trigger_16_interact
     0000001A  ___bank_trigger_17_interact        trigger_17_interact
     0000001A  ___bank_trigger_18_interact        trigger_18_interact
     0000001A  ___bank_trigger_19_interact        trigger_19_interact
     0000001A  ___bank_trigger_20_interact        trigger_20_interact
     0000001A  ___bank_trigger_21_interact        trigger_21_interact
     0000001A  ___bank_trigger_22_interact        trigger_22_interact
     0000001A  ___bank_trigger_23_interact        trigger_23_interact
     0000001A  ___bank_trigger_24_interact        trigger_24_interact
     0000001A  ___bank_trigger_26_interact        trigger_26_interact
     0000001A  ___bank_trigger_27_interact        trigger_27_interact
     0000001A  ___bank_trigger_28_interact        trigger_28_interact
     0000001A  ___bank_trigger_38_interact        trigger_38_interact
     0000001A  ___bank_trigger_45_interact        trigger_45_interact
     0000001A  ___bank_trigger_64_interact        trigger_64_interact
     0000001A  ___bank_trigger_65_interact        trigger_65_interact
     0000001A  ___bank_trigger_66_interact        trigger_66_interact
     0000001A  ___bank_trigger_67_interact        trigger_67_interact
     0000001A  ___bank_trigger_6_interact         trigger_6_interact
     0000001A  ___bank_trigger_70_interact        trigger_70_interact
     0000001A  ___bank_trigger_71_interact        trigger_71_interact
     0000001A  ___bank_trigger_72_interact        trigger_72_interact
     0000001A  ___bank_trigger_73_interact        trigger_73_interact
     0000001A  ___bank_trigger_74_interact        trigger_74_interact
     0000001A  ___bank_trigger_75_interact        trigger_75_interact
     0000001A  ___bank_trigger_76_interact        trigger_76_interact
     0000001A  ___bank_trigger_77_interact        trigger_77_interact
     0000001A  ___bank_trigger_78_interact        trigger_78_interact
     0000001A  ___bank_trigger_79_interact        trigger_79_interact
     0000001A  ___bank_trigger_7_interact         trigger_7_interact
     0000001A  ___bank_trigger_83_interact        trigger_83_interact
     0000001A  ___bank_trigger_84_interact        trigger_84_interact
     0000001A  ___bank_trigger_85_interact        trigger_85_interact
     0000001A  ___bank_trigger_86_interact        trigger_86_interact
     0000001A  ___bank_trigger_87_interact        trigger_87_interact
     0000001A  ___bank_trigger_88_interact        trigger_88_interact
     0000001A  ___bank_trigger_89_interact        trigger_89_interact
     0000001A  ___bank_trigger_8_interact         trigger_8_interact
ASxxxx Linker V03.00/V05.40 + sdld,  page 21.
Hexadecimal  [32-Bits]

Area                                    Addr        Size        Decimal Bytes (Attributes)
--------------------------------        ----        ----        ------- ----- ------------
.  .ABS.                            00000000    00000000 =           0. bytes (ABS,CON)

      Value  Global                              Global Defined In Module
      -----  --------------------------------   ------------------------
     0000001A  ___bank_trigger_90_interact        trigger_90_interact
     0000001A  ___bank_trigger_91_interact        trigger_91_interact
     0000001A  ___bank_trigger_92_interact        trigger_92_interact
     0000001A  ___bank_trigger_93_interact        trigger_93_interact
     0000001A  ___bank_trigger_94_interact        trigger_94_interact
     0000001A  ___bank_trigger_95_interact        trigger_95_interact
     0000001A  ___bank_trigger_97_interact        trigger_97_interact
     0000001A  ___bank_trigger_98_interact        trigger_98_interact
     0000001A  ___bank_trigger_99_interact        trigger_99_interact
     0000001A  b_SIO_init                         sio
     0000001A  b_camera_init                      camera
     0000001A  b_input_init                       input
     0000001A  b_logo_init                        logo
     0000001A  b_logo_update                      logo
     0000001A  b_parallax_init                    parallax
     0000001A  b_remove_LCD_ISRs                  interrupts
     0000001C  __start_save                    
     00000027  l__GSINIT                       
     00000030  l__HEADER7                      
     00000060  l__HEADER4                      
     000000AB  l__HEADER11                     
     000001CB  l__CRASH_SCRATCH2               
     00000200  s__CODE                         
     00000EC2  l__CODE                         
     000010C2  s__HOME                         
     00001A20  l__DATA                         
     00002000  _rROMB0                            
     00002967  l__CODE_26                      
     00002D53  l__HOME                         
     00003000  _rROMB1                            
     00003E15  s__BASE                         
     00003E15  s__CODE_0                       
     00003E15  s__INITIALIZER                  
     00003E15  s__LIT                          
     00003E2D  s__GSINIT                       
     00003E54  s__GSFINAL                      
     00003FFE  l__CODE_2                       
     00003FFE  l__CODE_22                      
     00003FFE  l__CODE_25                      
     00003FFE  l__CODE_3                       
     00003FFE  l__CODE_8                       
     00003FFF  l__CODE_14                      
     00003FFF  l__CODE_16                      
     00003FFF  l__CODE_23                      
     00003FFF  l__CODE_24                      
     00003FFF  l__CODE_4                       
     00003FFF  l__CODE_6                       
     00004000  _RTC_SELECT_REG                    vm_rtc
     00004000  _rRAMB                             
     00004000  l__CODE_1                       
     00004000  l__CODE_10                      
ASxxxx Linker V03.00/V05.40 + sdld,  page 22.
Hexadecimal  [32-Bits]

Area                                    Addr        Size        Decimal Bytes (Attributes)
--------------------------------        ----        ----        ------- ----- ------------
.  .ABS.                            00000000    00000000 =           0. bytes (ABS,CON)

      Value  Global                              Global Defined In Module
      -----  --------------------------------   ------------------------
     00004000  l__CODE_11                      
     00004000  l__CODE_12                      
     00004000  l__CODE_13                      
     00004000  l__CODE_15                      
     00004000  l__CODE_17                      
     00004000  l__CODE_18                      
     00004000  l__CODE_19                      
     00004000  l__CODE_20                      
     00004000  l__CODE_21                      
     00004000  l__CODE_5                       
     00004000  l__CODE_7                       
     00004000  l__CODE_9                       
     00006000  _RTC_LATCH_REG                     vm_rtc
     00008000  __VRAM                             
     00008000  __VRAM8000                         
     00008800  __VRAM8800                         
     00009000  __VRAM9000                         
     00009800  __SCRN0                            
     00009C00  __SCRN1                            
     0000A000  _RTC_VALUE_REG                     vm_rtc
     0000A000  __SRAM                             
     0000C000  __RAM                              
     0000C000  _shadow_OAM                     
     0000C0A0  s__DATA                         
     0000D000  __RAMBANK                          
     0000DAC0  s__BSS                          
     0000DAC0  s__INITIALIZED                  
     0000DAD8  s__HEAP                         
     0000DAD8  s__HEAP_END                     
     0000DF00  .STACK                          
     0000DF00  _shadow_OAM2                       absolute
     0000DFA0  _BkgPalette                        absolute
     0000DFE0  _vwf_tile_data                     absolute
     0000FE00  __OAMRAM                           
     0000FF00  _P1_REG                            
     0000FF00  __IO                               
     0000FF01  _SB_REG                            
     0000FF02  _SC_REG                            
     0000FF04  _DIV_REG                           
     0000FF05  _TIMA_REG                          
     0000FF06  _TMA_REG                           
     0000FF07  _TAC_REG                           
     0000FF0F  _IF_REG                            
     0000FF10  _NR10_REG                          
     0000FF11  _NR11_REG                          
     0000FF12  _NR12_REG                          
     0000FF13  _NR13_REG                          
     0000FF14  _NR14_REG                          
     0000FF16  _NR21_REG                          
     0000FF17  _NR22_REG                          
     0000FF18  _NR23_REG                          
ASxxxx Linker V03.00/V05.40 + sdld,  page 23.
Hexadecimal  [32-Bits]

Area                                    Addr        Size        Decimal Bytes (Attributes)
--------------------------------        ----        ----        ------- ----- ------------
.  .ABS.                            00000000    00000000 =           0. bytes (ABS,CON)

      Value  Global                              Global Defined In Module
      -----  --------------------------------   ------------------------
     0000FF19  _NR24_REG                          
     0000FF1A  _NR30_REG                          
     0000FF1B  _NR31_REG                          
     0000FF1C  _NR32_REG                          
     0000FF1D  _NR33_REG                          
     0000FF1E  _NR34_REG                          
     0000FF20  _NR41_REG                          
     0000FF21  _NR42_REG                          
     0000FF22  _NR43_REG                          
     0000FF23  _NR44_REG                          
     0000FF24  _NR50_REG                          
     0000FF25  _NR51_REG                          
     0000FF26  _NR52_REG                          
     0000FF30  _AUD3WAVE                          
     0000FF30  _PCM_SAMPLE                        
     0000FF30  __AUD3WAVERAM                      
     0000FF40  _LCDC_REG                          
     0000FF41  _STAT_REG                          
     0000FF42  _SCY_REG                           
     0000FF43  _SCX_REG                           
     0000FF44  _LY_REG                            
     0000FF45  _LYC_REG                           
     0000FF46  _DMA_REG                           
     0000FF47  _BGP_REG                           
     0000FF48  _OBP0_REG                          
     0000FF49  _OBP1_REG                          
     0000FF4A  _WY_REG                            
     0000FF4B  _WX_REG                            
     0000FF4D  _KEY1_REG                          
     0000FF4F  _VBK_REG                           
     0000FF51  _HDMA1_REG                         
     0000FF52  _HDMA2_REG                         
     0000FF53  _HDMA3_REG                         
     0000FF54  _HDMA4_REG                         
     0000FF55  _HDMA5_REG                         
     0000FF56  _RP_REG                            
     0000FF68  _BCPS_REG                          
     0000FF69  _BCPD_REG                          
     0000FF6A  _OCPS_REG                          
     0000FF6B  _OCPD_REG                          
     0000FF70  _SVBK_REG                          
     0000FF76  _PCM12_REG                         
     0000FF77  _PCM34_REG                         
     0000FF80  .refresh_OAM                    
     0000FF80  __HRAM                             
     0000FFFF  _IE_REG                            
     00014000  s__CODE_1                       
     00024000  s__CODE_2                       
     00034000  s__CODE_3                       
     00044000  s__CODE_4                       
     00054000  s__CODE_5                       
ASxxxx Linker V03.00/V05.40 + sdld,  page 24.
Hexadecimal  [32-Bits]

Area                                    Addr        Size        Decimal Bytes (Attributes)
--------------------------------        ----        ----        ------- ----- ------------
.  .ABS.                            00000000    00000000 =           0. bytes (ABS,CON)

      Value  Global                              Global Defined In Module
      -----  --------------------------------   ------------------------
     00064000  s__CODE_6                       
     00074000  s__CODE_7                       
     00084000  s__CODE_8                       
     00094000  s__CODE_9                       
     000A4000  s__CODE_10                      
     000B4000  s__CODE_11                      
     000C4000  s__CODE_12                      
     000D4000  s__CODE_13                      
     000E4000  s__CODE_14                      
     000F4000  s__CODE_15                      
     00104000  s__CODE_16                      
     00114000  s__CODE_17                      
     00124000  s__CODE_18                      
     00134000  s__CODE_19                      
     00144000  s__CODE_20                      
     00154000  s__CODE_21                      
     00164000  s__CODE_22                      
     00174000  s__CODE_23                      
     00184000  s__CODE_24                      
     00194000  s__CODE_25                      
     001A4000  s__CODE_26                      

ASxxxx Linker V03.00/V05.40 + sdld,  page 25.
Hexadecimal  [32-Bits]

Area                                    Addr        Size        Decimal Bytes (Attributes)
--------------------------------        ----        ----        ------- ----- ------------
_CODE                               00000200    00000EC2 =        3778. bytes (REL,CON)

      Value  Global                              Global Defined In Module
      -----  --------------------------------   ------------------------
     00000200  ___HandleCrash                     
     0000020A  _SIO_send_byte                     
     0000021D  _SIO_receive                       
     0000022E  _GetWinAddr                        
     00000236  _GetBkgAddr                        
     00000244  _state_init                        
     00000249  _state_update                      
     0000026B  _ui_time_masks                     
     00000273  _ui_print_shift_char               
     000002F6  _ui_draw_frame_row                 
     000002FF  .ui_draw_frame_row                 
     00000328  _script_cmds                       vm_instructions
     00000560  _save_signature                    game_signature
     00000564  _start_scene_x                     
     00000566  _start_scene_y                     
     00000568  _start_scene_dir                   
     00000569  _start_scene                       
     0000056C  _start_player_move_speed           
     0000056D  _start_player_anim_tick            
     0000056E  _ui_fonts                          
     00000574  _core_reset_hook                   main
     0000057C  _main                              main
     00000584  _state_start_fns                   
     0000058D  _state_update_fns                  
     00000596  _hUGE_init                         hUGEDriver_obj
     00000598  hUGE_init                          hUGEDriver_obj
     000005EE  _hUGE_mute_channel                 hUGEDriver_obj
     000005F0  hUGE_mute_channel                  hUGEDriver_obj
     0000083E  _hUGE_set_position                 hUGEDriver_obj
     00000840  hUGE_set_position                  hUGEDriver_obj
     00000A05  _hUGE_dosound                      hUGEDriver_obj
     00000A05  hUGE_dosound                       hUGEDriver_obj
     00000D31  _get_vram_byte                     
     00000D39  _get_win_tile_xy                   
     00000D41  _get_bkg_tile_xy                   
     00000D68  _set_sprite_palette                CGB
     00000D6D  _set_bkg_palette                   CGB
     00000D70  .set_palette                       CGB
     00000D8F  _set_sprite_palette_entry          CGB
     00000D94  _set_bkg_palette_entry             CGB
     00000D97  .set_palette_entry                 CGB
     00000DB3  _hide_sprites_range                Metasprites
     00000DE2  __mulsuchar                        mul
     00000DE5  __muluschar                        mul
     00000DEE  __mulschar                         mul
     00000DF6  __mulint                           mul
     00000E15  __muluchar                         mul
     00000E27  _set_vram_byte                     
     00000E30  _set_win_tile_xy                   
     00000E39  _set_bkg_tile_xy                   
ASxxxx Linker V03.00/V05.40 + sdld,  page 26.
Hexadecimal  [32-Bits]

Area                                    Addr        Size        Decimal Bytes (Attributes)
--------------------------------        ----        ----        ------- ----- ------------
_CODE                               00000200    00000EC2 =        3778. bytes (REL,CON)

      Value  Global                              Global Defined In Module
      -----  --------------------------------   ------------------------
     00000E68  __divsuchar                        divmod
     00000E6E  __modsuchar                        divmod
     00000E77  __divuschar                        divmod
     00000E80  __moduschar                        divmod
     00000E8C  __divschar                         divmod
     00000E91  __modschar                         divmod
     00000E98  __divsint                          divmod
     00000EA1  __modsint                          divmod
     00000EAD  __divuchar                         divmod
     00000EB2  __moduchar                         divmod
     00000EB9  __divuint                          divmod
     00000EC2  __moduint                          divmod
     00000ECE  .div8                              divmod
     00000ECE  .mod8                              divmod
     00000ED6  .div16                             divmod
     00000ED6  .mod16                             divmod
     00000F0C  .divu8                             divmod
     00000F0C  .modu8                             divmod
     00000F0F  .divu16                            divmod
     00000F0F  .modu16                            divmod
     00000F4F  .sgb_check                         
     00000F4F  _sgb_check                         
     00000F97  _sgb_transfer                      
     00000F9C  .sgb_transfer                      
     00000FDD  .copy_vram                         
     00000FE3  _get_data                          
     00000FE3  _set_data                          
     00000FE3  _vmemcpy                           
     00001031  ___move_metasprite                 Metasprites
     0000106E  ___memcpy                          
     0000106E  _memcpy                            
     000010A0  _cpu_slow                          CGB
     000010BB  _cpu_fast                          CGB

ASxxxx Linker V03.00/V05.40 + sdld,  page 27.
Hexadecimal  [32-Bits]

Area                                    Addr        Size        Decimal Bytes (Attributes)
--------------------------------        ----        ----        ------- ----- ------------
_HEADER0                            00000000    00000001 =           1. bytes (ABS,CON)

      Value  Global                              Global Defined In Module
      -----  --------------------------------   ------------------------
     00000020  .call_hl                           Runtime

ASxxxx Linker V03.00/V05.40 + sdld,  page 28.
Hexadecimal  [32-Bits]

Area                                    Addr        Size        Decimal Bytes (Attributes)
--------------------------------        ----        ----        ------- ----- ------------
_HEADER1                            00000000    00000005 =           5. bytes (ABS,CON)

      Value  Global                              Global Defined In Module
      -----  --------------------------------   ------------------------
     00000028  .MemsetSmall                       Runtime

ASxxxx Linker V03.00/V05.40 + sdld,  page 29.
Hexadecimal  [32-Bits]

Area                                    Addr        Size        Decimal Bytes (Attributes)
--------------------------------        ----        ----        ------- ----- ------------
_HEADER2                            00000000    00000007 =           7. bytes (ABS,CON)

      Value  Global                              Global Defined In Module
      -----  --------------------------------   ------------------------
     00000030  .MemcpySmall                       Runtime

ASxxxx Linker V03.00/V05.40 + sdld,  page 30.
Hexadecimal  [32-Bits]

Area                                    Addr        Size        Decimal Bytes (Attributes)
--------------------------------        ----        ----        ------- ----- ------------
_HEADER3                            00000000    00000008 =           8. bytes (ABS,CON)

      Value  Global                              Global Defined In Module
      -----  --------------------------------   ------------------------
ASxxxx Linker V03.00/V05.40 + sdld,  page 31.
Hexadecimal  [32-Bits]

Area                                    Addr        Size        Decimal Bytes (Attributes)
--------------------------------        ----        ----        ------- ----- ------------
_HEADER4                            00000000    00000060 =          96. bytes (ABS,CON)

      Value  Global                              Global Defined In Module
      -----  --------------------------------   ------------------------
     00000080  .int                               Runtime
     0000008F  _wait_int_handler                  Runtime
     0000009C  __standard_VBL_handler             Runtime
     000000AB  _refresh_OAM                       Runtime
     000000CC  _set_interrupts                    Runtime

ASxxxx Linker V03.00/V05.40 + sdld,  page 32.
Hexadecimal  [32-Bits]

Area                                    Addr        Size        Decimal Bytes (Attributes)
--------------------------------        ----        ----        ------- ----- ------------
_HEADER5                            00000000    00000001 =           1. bytes (ABS,CON)

      Value  Global                              Global Defined In Module
      -----  --------------------------------   ------------------------
ASxxxx Linker V03.00/V05.40 + sdld,  page 33.
Hexadecimal  [32-Bits]

Area                                    Addr        Size        Decimal Bytes (Attributes)
--------------------------------        ----        ----        ------- ----- ------------
_HEADER6                            00000000    00000002 =           2. bytes (ABS,CON)

      Value  Global                              Global Defined In Module
      -----  --------------------------------   ------------------------
ASxxxx Linker V03.00/V05.40 + sdld,  page 34.
Hexadecimal  [32-Bits]

Area                                    Addr        Size        Decimal Bytes (Attributes)
--------------------------------        ----        ----        ------- ----- ------------
_HEADER7                            00000000    00000030 =          48. bytes (ABS,CON)

      Value  Global                              Global Defined In Module
      -----  --------------------------------   ------------------------
ASxxxx Linker V03.00/V05.40 + sdld,  page 35.
Hexadecimal  [32-Bits]

Area                                    Addr        Size        Decimal Bytes (Attributes)
--------------------------------        ----        ----        ------- ----- ------------
_HEADER8                            00000000    00000006 =           6. bytes (ABS,CON)

      Value  Global                              Global Defined In Module
      -----  --------------------------------   ------------------------
ASxxxx Linker V03.00/V05.40 + sdld,  page 36.
Hexadecimal  [32-Bits]

Area                                    Addr        Size        Decimal Bytes (Attributes)
--------------------------------        ----        ----        ------- ----- ------------
_HEADER9                            00000000    00000003 =           3. bytes (ABS,CON)

      Value  Global                              Global Defined In Module
      -----  --------------------------------   ------------------------
ASxxxx Linker V03.00/V05.40 + sdld,  page 37.
Hexadecimal  [32-Bits]

Area                                    Addr        Size        Decimal Bytes (Attributes)
--------------------------------        ----        ----        ------- ----- ------------
_HEADERa                            00000000    00000001 =           1. bytes (ABS,CON)

      Value  Global                              Global Defined In Module
      -----  --------------------------------   ------------------------
ASxxxx Linker V03.00/V05.40 + sdld,  page 38.
Hexadecimal  [32-Bits]

Area                                    Addr        Size        Decimal Bytes (Attributes)
--------------------------------        ----        ----        ------- ----- ------------
_HEADERb                            00000000    00000001 =           1. bytes (ABS,CON)

      Value  Global                              Global Defined In Module
      -----  --------------------------------   ------------------------
ASxxxx Linker V03.00/V05.40 + sdld,  page 39.
Hexadecimal  [32-Bits]

Area                                    Addr        Size        Decimal Bytes (Attributes)
--------------------------------        ----        ----        ------- ----- ------------
_HEADERc                            00000000    00000001 =           1. bytes (ABS,CON)

      Value  Global                              Global Defined In Module
      -----  --------------------------------   ------------------------
ASxxxx Linker V03.00/V05.40 + sdld,  page 40.
Hexadecimal  [32-Bits]

Area                                    Addr        Size        Decimal Bytes (Attributes)
--------------------------------        ----        ----        ------- ----- ------------
_HEADERd                            00000000    00000002 =           2. bytes (ABS,CON)

      Value  Global                              Global Defined In Module
      -----  --------------------------------   ------------------------
ASxxxx Linker V03.00/V05.40 + sdld,  page 41.
Hexadecimal  [32-Bits]

Area                                    Addr        Size        Decimal Bytes (Attributes)
--------------------------------        ----        ----        ------- ----- ------------
_HEADERe                            00000000    00000001 =           1. bytes (ABS,CON)

      Value  Global                              Global Defined In Module
      -----  --------------------------------   ------------------------
ASxxxx Linker V03.00/V05.40 + sdld,  page 42.
Hexadecimal  [32-Bits]

Area                                    Addr        Size        Decimal Bytes (Attributes)
--------------------------------        ----        ----        ------- ----- ------------
_HEADERf                            00000000    00000001 =           1. bytes (ABS,CON)

      Value  Global                              Global Defined In Module
      -----  --------------------------------   ------------------------
ASxxxx Linker V03.00/V05.40 + sdld,  page 43.
Hexadecimal  [32-Bits]

Area                                    Addr        Size        Decimal Bytes (Attributes)
--------------------------------        ----        ----        ------- ----- ------------
_HEADER10                           00000000    00000002 =           2. bytes (ABS,CON)

      Value  Global                              Global Defined In Module
      -----  --------------------------------   ------------------------
ASxxxx Linker V03.00/V05.40 + sdld,  page 44.
Hexadecimal  [32-Bits]

Area                                    Addr        Size        Decimal Bytes (Attributes)
--------------------------------        ----        ----        ------- ----- ------------
_HEADER11                           00000000    000000AB =         171. bytes (ABS,CON)

      Value  Global                              Global Defined In Module
      -----  --------------------------------   ------------------------
     00000150  .reset                             Runtime
     00000150  _reset                             Runtime
     00000157  .code_start                        Runtime
     000001B9  _exit                              Runtime
     000001BD  .wait_vbl_done                     Runtime
     000001BD  _vsync                             Runtime
     000001BD  _wait_vbl_done                     Runtime
     000001CD  .remove_VBL                        Runtime
     000001CD  _remove_VBL                        Runtime
     000001D0  .remove_int                        Runtime
     000001ED  .add_VBL                           Runtime
     000001ED  _add_VBL                           Runtime
     000001F0  .add_int                           Runtime

ASxxxx Linker V03.00/V05.40 + sdld,  page 45.
Hexadecimal  [32-Bits]

Area                                    Addr        Size        Decimal Bytes (Attributes)
--------------------------------        ----        ----        ------- ----- ------------
_HOME                               000010C2    00002D53 =       11603. bytes (REL,CON)

      Value  Global                              Global Defined In Module
      -----  --------------------------------   ------------------------
     000010C2  .memset_simple                     Runtime
     000010CB  .memcpy_simple                     Runtime
     000010E8  .display_off                       Runtime
     000010E8  _display_off                       Runtime
     00001100  _actors_update                     actor
     00001566  _SetBankedBkgData                  bankdata
     00001582  _SetBankedSpriteData               bankdata
     0000159E  _SetBankedBkgTiles                 bankdata
     000015BA  _SetBankedWinTiles                 bankdata
     000015D6  _ReadBankedFarPtr                  bankdata
     000015F8  _ReadBankedUWORD                   bankdata
     00001612  _MemcpyBanked                      bankdata
     00001634  _MemcpyVRAMBanked                  bankdata
     00001663  _IndexOfFarPtr                     bankdata
     000016E8  _camera_update                     camera
     0000181B  _load_animations                   data_manager
     00001874  _events_update                     events
     00001947  _timers_update                     events
     000019D0  _input_update                      input
     000019F3  .sio_ISR                           
     00001A4D  .timer_ISR                         
     00001A62  _simple_LCD_isr                    interrupts
     00001AE1  _fullscreen_LCD_isr                interrupts
     00001B0D  _VBL_isr                           interrupts
     00001B57  _isqrt                             math
     00001BB4  _sine_wave                         math
     00001CB4  _dir_lookup                        math
     00001CBC  _dir_angle_lookup                  math
     00001CC0  _hUGETrackerRoutine                music_manager
     00001CE7  _music_events_update               music_manager
     00001D69  _music_play_isr                    music_manager
     00001E0A  _parallax_LCD_isr                  parallax
     00001E47  _projectiles_update                projectiles
     000022C8  _projectiles_render                projectiles
     0000241D  _scroll_load_pending_row           scroll
     000024A3  _scroll_load_row                   scroll
     00002518  _scroll_load_col                   scroll
     00002581  _scroll_load_pending_col           scroll
     00002609  _set_bkg_submap                    
     0000264C  _set_xy_win_submap                 
     00002679  .set_xy_win_submap                 
     00002682  .set_xy_bkg_submap                 
     00002691  .set_xy_submap                     
     000026DD  _sfx_play_isr                      sfx_player
     000027B6  _on_SIO_receive                    sio
     000027F7  _SIO_update                        sio
     0000285E  _ui_update                         ui
     00002996  _vm_sgb_transfer                   vm_sgb
     000029E3  _vm_load_text                      vm_ui
     00002C39  _vm_switch                         vm
ASxxxx Linker V03.00/V05.40 + sdld,  page 46.
Hexadecimal  [32-Bits]

Area                                    Addr        Size        Decimal Bytes (Attributes)
--------------------------------        ----        ----        ------- ----- ------------
_HOME                               000010C2    00002D53 =       11603. bytes (REL,CON)

      Value  Global                              Global Defined In Module
      -----  --------------------------------   ------------------------
     00002D6A  _vm_beginthread                    vm
     00002E8E  _vm_rpn                            vm
     000038A6  _vm_get_far                        vm
     00003914  _vm_call_native                    vm
     00003927  _VM_STEP                           vm
     00003991  _script_runner_update              vm
     00003AF6  _fill_win_rect                     
     00003B08  _rand                              
     00003B08  _randw                             
     00003B33  _initrand                          
     00003B35  .initrand                          
     00003B3E  _get_bkg_data                      
     00003B3E  _get_win_data                      
     00003B8B  _get_sprite_data                   
     00003BBE  _abs                               abs
     00003BCB  _set_win_tiles                     
     00003BDF  _set_tile_data                     
     00003BE4  _set_bkg_data                      
     00003BE4  _set_win_data                      
     00003BEC  _set_sprite_data                   
     00003C1C  _reverse                           reverse
     00003C50  ___call__banked                    far_ptr
     00003C6D  _to_far_ptr                        far_ptr
     00003CA3  .add_LCD                           
     00003CA3  _add_LCD                           
     00003CA9  .remove_LCD                        
     00003CA9  _remove_LCD                        
     00003CAF  .fill_rect_wtt                     
     00003CB8  .fill_rect_btt                     
     00003D05  _fill_bkg_rect                     
     00003D17  .padup                             
     00003D17  _waitpadup                         
     00003D27  .jpad                              
     00003D27  _joypad                            
     00003D4F  _waitpad                           
     00003D50  .wait_pad                          
     00003D57  ___sdcc_call_hl                    call_hl
     00003D58  _memset                            memset
     00003D8B  .set_xy_wtt                        SetTileMap
     00003D94  .set_xy_btt                        SetTileMap
     00003DA3  .set_xy_tt                         SetTileMap
     00003DE7  ___sdcc_bcall_ehl                  
     00003E01  _set_bkg_tiles                     
ASxxxx Linker V03.00/V05.40 + sdld,  page 47.
Hexadecimal  [32-Bits]

Area                                    Addr        Size        Decimal Bytes (Attributes)
--------------------------------        ----        ----        ------- ----- ------------
_INITIALIZER                        00003E15    00000018 =          24. bytes (REL,CON)

      Value  Global                              Global Defined In Module
      -----  --------------------------------   ------------------------
ASxxxx Linker V03.00/V05.40 + sdld,  page 48.
Hexadecimal  [32-Bits]

Area                                    Addr        Size        Decimal Bytes (Attributes)
--------------------------------        ----        ----        ------- ----- ------------
_GSINIT                             00003E2D    00000027 =          39. bytes (REL,CON)

      Value  Global                              Global Defined In Module
      -----  --------------------------------   ------------------------
     00003E2D  gsinit                             Runtime

ASxxxx Linker V03.00/V05.40 + sdld,  page 49.
Hexadecimal  [32-Bits]

Area                                    Addr        Size        Decimal Bytes (Attributes)
--------------------------------        ----        ----        ------- ----- ------------
_GSFINAL                            00003E54    00000001 =           1. bytes (REL,CON)

      Value  Global                              Global Defined In Module
      -----  --------------------------------   ------------------------
ASxxxx Linker V03.00/V05.40 + sdld,  page 50.
Hexadecimal  [32-Bits]

Area                                    Addr        Size        Decimal Bytes (Attributes)
--------------------------------        ----        ----        ------- ----- ------------
_DATA                               0000C0A0    00001A20 =        6688. bytes (REL,CON)

      Value  Global                              Global Defined In Module
      -----  --------------------------------   ------------------------
     0000C0A0  __cpu                              Runtime
     0000C0A1  __is_GBA                           Runtime
     0000C0A2  .mode                              Runtime
     0000C0A3  .sys_time                          Runtime
     0000C0A3  _sys_time                          Runtime
     0000C0A5  .int_0x40                          Runtime
     0000C0B1  _actors                            actor
     0000C4F5  _actors_active_head                actor
     0000C4F7  _actors_active_tail                actor
     0000C4F9  _actors_inactive_head              actor
     0000C4FB  _screen_x                          actor
     0000C4FC  _screen_y                          actor
     0000C4FD  _invalid                           actor
     0000C4FF  _player_moving                     actor
     0000C500  _player_iframes                    actor
     0000C501  _player_collision_actor            actor
     0000C503  _emote_actor                       actor
     0000C505  _emote_timer                       actor
     0000C506  _allocated_sprite_tiles            actor
     0000C507  _allocated_hardware_sprites        actor
     0000C514  _camera_x                          camera
     0000C516  _camera_y                          camera
     0000C518  _camera_offset_x                   camera
     0000C519  _camera_offset_y                   camera
     0000C51A  _camera_deadzone_x                 camera
     0000C51B  _camera_deadzone_y                 camera
     0000C51C  _camera_settings                   camera
     0000C520  _current_scene                     data_manager
     0000C523  _image_bank                        data_manager
     0000C524  _image_ptr                         data_manager
     0000C526  _image_attr_bank                   data_manager
     0000C527  _image_attr_ptr                    data_manager
     0000C529  _collision_bank                    data_manager
     0000C52A  _collision_ptr                     data_manager
     0000C52C  _image_tile_width                  data_manager
     0000C52D  _image_tile_height                 data_manager
     0000C52E  _image_width                       data_manager
     0000C530  _image_height                      data_manager
     0000C532  _sprites_len                       data_manager
     0000C533  _actors_len                        data_manager
     0000C534  _projectiles_len                   data_manager
     0000C535  _player_sprite_len                 data_manager
     0000C536  _scene_type                        data_manager
     0000C537  _scene_LCD_type                    data_manager
     0000C538  _scene_stack                       data_manager
     0000C578  _scene_stack_ptr                   data_manager
     0000C57A  _scene_sprites_base_tiles          data_manager
     0000C5BA  _input_events                      events
     0000C5E2  _input_slots                       events
     0000C5EA  _timer_events                      events
ASxxxx Linker V03.00/V05.40 + sdld,  page 51.
Hexadecimal  [32-Bits]

Area                                    Addr        Size        Decimal Bytes (Attributes)
--------------------------------        ----        ----        ------- ----- ------------
_DATA                               0000C0A0    00001A20 =        6688. bytes (REL,CON)

      Value  Global                              Global Defined In Module
      -----  --------------------------------   ------------------------
     0000C5FE  _timer_values                      events
     0000C606  _fade_running                      fade_manager
     0000C607  _fade_frames_per_step              fade_manager
     0000C608  _fade_timer                        fade_manager
     0000C610  _joypads                           input
     0000C615  _frame_joy                         input
     0000C616  _last_joy                          input
     0000C617  _recent_joy                        input
     0000C618  _SIO_status                        
     0000C619  _link_byte_sent                    
     0000C61A  _link_next_mode                    
     0000C61B  _save_blob_size                    load_save
     0000C61D  _routine_queue                     music_manager
     0000C621  _routine_queue_head                music_manager
     0000C622  _routine_queue_tail                music_manager
     0000C623  _music_events                      music_manager
     0000C637  _music_current_track_bank          music_manager
     0000C638  _music_mute_mask                   music_manager
     0000C639  _music_effective_mute              music_manager
     0000C63A  _music_next_track                  music_manager
     0000C63C  _music_current_track               music_manager
     0000C63E  _music_play_isr_counter            music_manager
     0000C63F  _music_play_isr_pause              music_manager
     0000C640  _music_global_mute_mask            music_manager
     0000C641  _music_sfx_priority                music_manager
     0000C642  _DMG_palette                       palette
     0000C645  _SprPalette                        palette
     0000C685  _parallax_rows                     parallax
     0000C697  _parallax_row                      parallax
     0000C699  _projectiles                       projectiles
     0000C752  _projectile_defs                   projectiles
     0000C7C5  _projectiles_active_head           projectiles
     0000C7C7  _projectiles_inactive_head         projectiles
     0000C7CE  _scroll_x                          scroll
     0000C7D0  _scroll_y                          scroll
     0000C7D2  _draw_scroll_x                     scroll
     0000C7D4  _draw_scroll_y                     scroll
     0000C7D6  _scroll_x_max                      scroll
     0000C7D8  _scroll_y_max                      scroll
     0000C7DA  _scroll_offset_x                   scroll
     0000C7DB  _scroll_offset_y                   scroll
     0000C7DC  _pending_h_x                       scroll
     0000C7DD  _pending_h_y                       scroll
     0000C7DE  _pending_h_i                       scroll
     0000C7DF  _pending_w_x                       scroll
     0000C7E0  _pending_w_y                       scroll
     0000C7E1  _pending_w_i                       scroll
     0000C7E2  _current_row                       scroll
     0000C7E4  _new_row                           scroll
     0000C7E6  _current_col                       scroll
     0000C7E8  _new_col                           scroll
ASxxxx Linker V03.00/V05.40 + sdld,  page 52.
Hexadecimal  [32-Bits]

Area                                    Addr        Size        Decimal Bytes (Attributes)
--------------------------------        ----        ----        ------- ----- ------------
_DATA                               0000C0A0    00001A20 =        6688. bytes (REL,CON)

      Value  Global                              Global Defined In Module
      -----  --------------------------------   ------------------------
     0000C7EA  .image_tile_width                  
     0000C7EB  _sfx_play_bank                     sfx_player
     0000C7EC  _sfx_play_sample                   sfx_player
     0000C7EE  _sfx_frame_skip                    sfx_player
     0000C7EF  _link_operation_mode               sio
     0000C7F0  _link_packet                       sio
     0000C810  _link_packet_len                   sio
     0000C811  _link_packet_ptr                   sio
     0000C813  _link_packet_received              sio
     0000C814  _link_packet_snd_len               sio
     0000C815  _link_packet_snd_ptr               sio
     0000C817  _link_packet_sent                  sio
     0000C818  __is_CGB                           system
     0000C819  __is_SGB                           system
     0000C81A  __current_ram_bank                 system
     0000C81B  _triggers                          trigger
     0000C913  _last_trigger_tx                   trigger
     0000C914  _last_trigger_ty                   trigger
     0000C915  _last_trigger                      trigger
     0000C916  _win_pos_x                         ui
     0000C917  _win_dest_pos_x                    ui
     0000C918  _win_pos_y                         ui
     0000C919  _win_dest_pos_y                    ui
     0000C91A  _win_speed                         ui
     0000C91B  _text_drawn                        ui
     0000C91C  _current_text_speed                ui
     0000C91D  _text_options                      ui
     0000C91E  _text_in_speed                     ui
     0000C91F  _text_out_speed                    ui
     0000C920  _text_draw_speed                   ui
     0000C921  _text_ff_joypad                    ui
     0000C922  _text_ff                           ui
     0000C923  _text_bkg_fill                     ui
     0000C924  _ui_text_data                      ui
     0000CA2E  _vwf_current_mask                  ui
     0000CA2F  _vwf_current_rotate                ui
     0000CA30  _vwf_inverse_map                   ui
     0000CA31  _vwf_direction                     ui
     0000CA32  _vwf_current_font_desc             ui
     0000CA3A  _vwf_current_font_bank             ui
     0000CA3B  _vwf_current_font_idx              ui
     0000CA3C  _text_render_base_addr             ui
     0000CA3E  _text_scroll_addr                  ui
     0000CA40  _text_scroll_width                 ui
     0000CA41  _text_scroll_height                ui
     0000CA42  _text_scroll_fill                  ui
     0000CA43  _text_sound_mask                   ui
     0000CA44  _text_sound_bank                   ui
     0000CA45  _text_sound_data                   ui
     0000CA47  _overlay_priority                  ui
     0000CA48  _text_palette                      ui
ASxxxx Linker V03.00/V05.40 + sdld,  page 53.
Hexadecimal  [32-Bits]

Area                                    Addr        Size        Decimal Bytes (Attributes)
--------------------------------        ----        ----        ------- ----- ------------
_DATA                               0000C0A0    00001A20 =        6688. bytes (REL,CON)

      Value  Global                              Global Defined In Module
      -----  --------------------------------   ------------------------
     0000CA4F  __itoa_fmt_len                     vm_ui_a
     0000CA50  .itoa_fmt_buf                      vm_ui_a
     0000CA53  _CTXS                              vm
     0000CB83  _first_ctx                         vm
     0000CB85  _free_ctxs                         vm
     0000CB87  _old_executing_ctx                 vm
     0000CB89  _executing_ctx                     vm
     0000CB8B  _vm_lock_state                     vm
     0000CB8C  _vm_loaded_state                   vm
     0000CB8D  _vm_exception_code                 vm
     0000CB8E  _vm_exception_params_length        vm
     0000CB8F  _vm_exception_params_bank          vm
     0000CB90  _vm_exception_params_offset        vm
     0000CB94  _script_memory                     vm
     0000D99A  _state_events                      platform
     0000D9D9  _plat_min_vel                      platform
     0000D9DB  _plat_walk_vel                     platform
     0000D9DD  _plat_run_vel                      platform
     0000D9DF  _plat_climb_vel                    platform
     0000D9E1  _plat_walk_acc                     platform
     0000D9E3  _plat_run_acc                      platform
     0000D9E5  _plat_dec                          platform
     0000D9E7  _plat_jump_vel                     platform
     0000D9E9  _plat_grav                         platform
     0000D9EB  _plat_hold_grav                    platform
     0000D9ED  _plat_max_fall_vel                 platform
     0000D9EF  _plat_camera_deadzone_x            platform
     0000D9F0  _plat_camera_block                 platform
     0000D9F1  _plat_drop_through                 platform
     0000D9F2  _plat_mp_group                     platform
     0000D9F3  _plat_solid_group                  platform
     0000D9F4  _plat_jump_min                     platform
     0000D9F6  _plat_hold_jump_max                platform
     0000D9F7  _plat_extra_jumps                  platform
     0000D9F8  _plat_jump_reduction               platform
     0000D9FA  _plat_coyote_max                   platform
     0000D9FB  _plat_buffer_max                   platform
     0000D9FC  _plat_wall_jump_max                platform
     0000D9FD  _plat_wall_slide                   platform
     0000D9FE  _plat_wall_grav                    platform
     0000DA00  _plat_wall_kick                    platform
     0000DA02  _plat_float_input                  platform
     0000DA03  _plat_float_grav                   platform
     0000DA05  _plat_air_control                  platform
     0000DA06  _plat_turn_control                 platform
     0000DA07  _plat_air_dec                      platform
     0000DA09  _plat_run_type                     platform
     0000DA0A  _plat_turn_acc                     platform
     0000DA0C  _plat_run_boost                    platform
     0000DA0D  _plat_dash                         platform
     0000DA0E  _plat_dash_style                   platform
ASxxxx Linker V03.00/V05.40 + sdld,  page 54.
Hexadecimal  [32-Bits]

Area                                    Addr        Size        Decimal Bytes (Attributes)
--------------------------------        ----        ----        ------- ----- ------------
_DATA                               0000C0A0    00001A20 =        6688. bytes (REL,CON)

      Value  Global                              Global Defined In Module
      -----  --------------------------------   ------------------------
     0000DA0F  _plat_dash_momentum                platform
     0000DA10  _plat_dash_through                 platform
     0000DA11  _plat_dash_dist                    platform
     0000DA13  _plat_dash_frames                  platform
     0000DA14  _plat_dash_ready_max               platform
     0000DA15  _plat_dash_deadzone                platform
     0000DA16  _plat_state                        platform
     0000DA17  _que_state                         platform
     0000DA18  _nocontrol_h                       platform
     0000DA19  _nocollide                         platform
     0000DA1A  _deltaX                            platform
     0000DA1C  _deltaY                            platform
     0000DA1E  _ct_val                            platform
     0000DA1F  _jb_val                            platform
     0000DA20  _wc_val                            platform
     0000DA21  _hold_jump_val                     platform
     0000DA22  _dj_val                            platform
     0000DA23  _wj_val                            platform
     0000DA24  _last_wall                         platform
     0000DA25  _col                               platform
     0000DA26  _dash_ready_val                    platform
     0000DA27  _dash_dist                         platform
     0000DA29  _dash_currentframe                 platform
     0000DA2A  _tap_val                           platform
     0000DA2B  _dash_end_clear                    platform
     0000DA2C  _last_actor                        platform
     0000DA2E  _actor_attached                    platform
     0000DA2F  _mp_last_x                         platform
     0000DA31  _mp_last_y                         platform
     0000DA33  _jump_reduction_val                platform
     0000DA35  _jump_per_frame                    platform
     0000DA37  _jump_reduction                    platform
     0000DA39  _boost_val                         platform
     0000DA3B  _pl_vel_x                          platform
     0000DA3D  _pl_vel_y                          platform
     0000DA3F  _edge_left                         platform
     0000DA41  _edge_right                        platform
     0000DA43  _mod_image_right                   platform
     0000DA45  _mod_image_left                    platform
     0000DA47  _run_stage                         platform
     0000DA48  _jump_type                         platform
     0000DA49  _topdown_grid                      topdown
     0000DA4A  ___rand_seed                       
     0000DA68  _hUGE_current_wave                 hUGEDriver_obj
     0000DA68  hUGE_current_wave                  hUGEDriver_obj
     0000DA69  _hUGE_mute_mask                    hUGEDriver_obj
     0000DAB0  ___call_banked_addr                far_ptr
     0000DAB0  ___call_banked_ptr                 far_ptr
     0000DAB2  ___call_banked_bank                far_ptr
     0000DAB4  .int_0x48                          
     0000DABC  ___current_metasprite              Metasprites
ASxxxx Linker V03.00/V05.40 + sdld,  page 55.
Hexadecimal  [32-Bits]

Area                                    Addr        Size        Decimal Bytes (Attributes)
--------------------------------        ----        ----        ------- ----- ------------
_DATA                               0000C0A0    00001A20 =        6688. bytes (REL,CON)

      Value  Global                              Global Defined In Module
      -----  --------------------------------   ------------------------
     0000DABE  ___current_base_tile               Metasprites
     0000DABF  ___current_base_prop               Metasprites

ASxxxx Linker V03.00/V05.40 + sdld,  page 56.
Hexadecimal  [32-Bits]

Area                                    Addr        Size        Decimal Bytes (Attributes)
--------------------------------        ----        ----        ------- ----- ------------
_INITIALIZED                        0000DAC0    00000018 =          24. bytes (REL,CON)

      Value  Global                              Global Defined In Module
      -----  --------------------------------   ------------------------
     0000DAC0  _fade_style                        fade_manager
     0000DAC1  _game_time                         game_time
     0000DAC2  _PRN_PKT_START                     gbprinter
     0000DAD0  _hide_sprites                      interrupts
     0000DAD1  _show_actors_on_overlay            interrupts
     0000DAD2  _overlay_cut_scanline              interrupts
     0000DAD3  __submap_tile_offset               
     0000DAD4  _triggers_len                      trigger
     0000DAD5  _exchange_state                    vm_sio
     0000DAD6  ___render_shadow_OAM               Metasprites
     0000DAD7  __map_tile_offset                  SetTileMap

ASxxxx Linker V03.00/V05.40 + sdld,  page 57.
Hexadecimal  [32-Bits]

Area                                    Addr        Size        Decimal Bytes (Attributes)
--------------------------------        ----        ----        ------- ----- ------------
_HRAM12                             00000000    00000003 =           3. bytes (ABS,CON)

      Value  Global                              Global Defined In Module
      -----  --------------------------------   ------------------------
     0000FF90  __current_bank                     Runtime
     0000FF92  __shadow_OAM_base                  Runtime

ASxxxx Linker V03.00/V05.40 + sdld,  page 58.
Hexadecimal  [32-Bits]

Area                                    Addr        Size        Decimal Bytes (Attributes)
--------------------------------        ----        ----        ------- ----- ------------
_CODE_7                             00074000    00004000 =       16384. bytes (REL,CON)

      Value  Global                              Global Defined In Module
      -----  --------------------------------   ------------------------
     00074000  ___func_ACTOR                      actor
     00074000  _actors_init                       actor
     0007403A  _emote_offsets                     actor
     00074049  _emote_metasprite                  actor
     00074055  _player_init                       actor
     0007407B  _deactivate_actor                  actor
     000741DC  _activate_actor                    actor
     0007431B  _activate_actors_in_row            actor
     00074412  _activate_actors_in_col            actor
     00074563  _actor_set_frames                  actor
     000745B9  _actor_set_frame_offset            actor
     000745F4  _actor_get_frame_offset            actor
     00074606  _actor_set_anim_idle               actor
     00074634  _actor_set_anim_moving             actor
     00074665  _actor_set_dir                     actor
     000746CA  _actor_at_tile                     actor
     0007479E  _actor_in_front_of_player          actor
     00074852  _actor_overlapping_player          actor
     00074A61  _actor_overlapping_bb              actor
     00074CDF  _actors_handle_player_collision    actor
     00074D6B  _check_collision_in_direction      actor
     00075589  ___func_VM_MUSIC                   vm_music
     00075589  _vm_music_play                     vm_music
     000755D6  _vm_music_stop                     vm_music
     000755F8  _vm_music_mute                     vm_music
     00075636  _vm_music_routine                  vm_music
     0007565D  _vm_music_setpos                   vm_music
     00075663  _vm_sound_mastervol                vm_music
     00075669  _vm_sfx_play                       vm_music
     00076963  _song_bs_cyb_back_alley_Data       song_bs_cyb_back_alley_Data
     00076978  ___func_scene_14_sprites           scene_14_sprites
     00076978  _scene_14_sprites                  scene_14_sprites
     0007697E  ___func_tileset_vending_button_t   tileset_vending_button_tile
     0007697E  _tileset_vending_button_tile       tileset_vending_button_tile

ASxxxx Linker V03.00/V05.40 + sdld,  page 59.
Hexadecimal  [32-Bits]

Area                                    Addr        Size        Decimal Bytes (Attributes)
--------------------------------        ----        ----        ------- ----- ------------
_CODE_26                            001A4000    00002967 =       10599. bytes (REL,CON)

      Value  Global                              Global Defined In Module
      -----  --------------------------------   ------------------------
     001A4000  _bootstrap_script                  
     001A400B  _camera_init                       camera
     001A4031  _input_init                        input
     001A4057  _remove_LCD_ISRs                   interrupts
     001A4072  _parallax_init                     parallax
     001A4092  _SIO_init                          sio
     001A40BB  _actor_117_interact                actor_117_interact
     001A40CE  GBVM$actor_117_interact$861a5373   actor_117_interact
     001A40D5  GBVM$actor_19_update$673973a6_39   actor_19_update
     001A40D5  _actor_19_update                   actor_19_update
     001A40EA  GBVM_END$actor_19_update$673973a   actor_19_update
     001A40EF  _actor_35_update                   actor_35_update
     001A40F1  GBVM$actor_35_update$fe40d963_7d   actor_35_update
     001A4106  GBVM$actor_35_update$306cf8be_7d   actor_35_update
     001A4110  GBVM$actor_35_update$e0f29281_f8   actor_35_update
     001A4110  GBVM_END$actor_35_update$fe40d96   actor_35_update
     001A411C  GBVM$actor_35_update$62b52bbb_36   actor_35_update
     001A4126  GBVM_END$actor_35_update$e0f2928   actor_35_update
     001A412B  _actor_36_update                   actor_36_update
     001A412D  GBVM$actor_36_update$20a0ea52_1d   actor_36_update
     001A4142  GBVM$actor_36_update$d52a1111_ff   actor_36_update
     001A414C  GBVM$actor_36_update$3c48d101_a0   actor_36_update
     001A414C  GBVM_END$actor_36_update$20a0ea5   actor_36_update
     001A4158  GBVM$actor_36_update$47a40820_06   actor_36_update
     001A4162  GBVM_END$actor_36_update$3c48d10   actor_36_update
     001A4167  _actor_56_update                   actor_56_update
     001A4169  GBVM$actor_56_update$1402628a_cd   actor_56_update
     001A4175  GBVM$actor_56_update$b0acd349_c6   actor_56_update
     001A4198  GBVM_END$actor_56_update$1402628   actor_56_update
     001A419D  _actor_79_update                   actor_79_update
     001A419F  GBVM$actor_79_update$9fce1fa2_3e   actor_79_update
     001A41AB  GBVM$actor_79_update$304416d1_68   actor_79_update
     001A41CE  GBVM_END$actor_79_update$9fce1fa   actor_79_update
     001A41D3  ___func_bg_bathroom                bg_bathroom
     001A41D3  _bg_bathroom                       bg_bathroom
     001A41E1  ___func_bg_boss_hallway            bg_boss_hallway
     001A41E1  _bg_boss_hallway                   bg_boss_hallway
     001A41EF  ___func_bg_boss_office_b           bg_boss_office_b
     001A41EF  _bg_boss_office_b                  bg_boss_office_b
     001A41FD  ___func_bg_boss_office_c           bg_boss_office_c
     001A41FD  _bg_boss_office_c                  bg_boss_office_c
     001A420B  ___func_bg_boss_office             bg_boss_office
     001A420B  _bg_boss_office                    bg_boss_office
     001A4219  ___func_bg_boss_warning            bg_boss_warning
     001A4219  _bg_boss_warning                   bg_boss_warning
     001A4227  ___func_bg_break_start             bg_break_start
     001A4227  _bg_break_start                    bg_break_start
     001A4235  ___func_bg_breakroom_b             bg_breakroom_b
     001A4235  _bg_breakroom_b                    bg_breakroom_b
     001A4243  ___func_bg_breakroom               bg_breakroom
ASxxxx Linker V03.00/V05.40 + sdld,  page 60.
Hexadecimal  [32-Bits]

Area                                    Addr        Size        Decimal Bytes (Attributes)
--------------------------------        ----        ----        ------- ----- ------------
_CODE_26                            001A4000    00002967 =       10599. bytes (REL,CON)

      Value  Global                              Global Defined In Module
      -----  --------------------------------   ------------------------
     001A4243  _bg_breakroom                      bg_breakroom
     001A4251  ___func_bg_caught                  bg_caught
     001A4251  _bg_caught                         bg_caught
     001A425F  ___func_bg_choice_b_cgb_tileset    bg_choice_b_cgb_tileset
     001A425F  _bg_choice_b_cgb_tileset           bg_choice_b_cgb_tileset
     001A42A1  ___func_bg_choice_b                bg_choice_b
     001A42A1  _bg_choice_b                       bg_choice_b
     001A42AF  ___func_bg_choice                  bg_choice
     001A42AF  _bg_choice                         bg_choice
     001A42BD  ___func_bg_cubicle_b               bg_cubicle_b
     001A42BD  _bg_cubicle_b                      bg_cubicle_b
     001A42CB  ___func_bg_cubicle_c               bg_cubicle_c
     001A42CB  _bg_cubicle_c                      bg_cubicle_c
     001A42D9  ___func_bg_cubicle                 bg_cubicle
     001A42D9  _bg_cubicle                        bg_cubicle
     001A42E7  ___func_bg_final_boss_b            bg_final_boss_b
     001A42E7  _bg_final_boss_b                   bg_final_boss_b
     001A42F5  ___func_bg_final_boss              bg_final_boss
     001A42F5  _bg_final_boss                     bg_final_boss
     001A4303  ___func_bg_final_escape_1          bg_final_escape_1
     001A4303  _bg_final_escape_1                 bg_final_escape_1
     001A4311  ___func_bg_final_escape_2          bg_final_escape_2
     001A4311  _bg_final_escape_2                 bg_final_escape_2
     001A431F  ___func_bg_game_over_productivit   bg_game_over_productivity
     001A431F  _bg_game_over_productivity         bg_game_over_productivity
     001A432D  ___func_bg_game_over_stress        bg_game_over_stress
     001A432D  _bg_game_over_stress               bg_game_over_stress
     001A433B  ___func_bg_hallway_b               bg_hallway_b
     001A433B  _bg_hallway_b                      bg_hallway_b
     001A4349  ___func_bg_hallway                 bg_hallway
     001A4349  _bg_hallway                        bg_hallway
     001A4357  ___func_bg_intro_tileset           bg_intro_tileset
     001A4357  _bg_intro_tileset                  bg_intro_tileset
     001A4369  ___func_bg_intro                   bg_intro
     001A4369  _bg_intro                          bg_intro
     001A4377  ___func_bg_jumpscare               bg_jumpscare
     001A4377  _bg_jumpscare                      bg_jumpscare
     001A4385  ___func_bg_locker_inside           bg_locker_inside
     001A4385  _bg_locker_inside                  bg_locker_inside
     001A4393  ___func_bg_locker                  bg_locker
     001A4393  _bg_locker                         bg_locker
     001A43A1  ___func_bg_lost_n_found            bg_lost_n_found
     001A43A1  _bg_lost_n_found                   bg_lost_n_found
     001A43AF  ___func_bg_outside                 bg_outside
     001A43AF  _bg_outside                        bg_outside
     001A43BD  ___func_bg_productivity_too_low    bg_productivity_too_low
     001A43BD  _bg_productivity_too_low           bg_productivity_too_low
     001A43CB  ___func_bg_secret_zone_1           bg_secret_zone_1
     001A43CB  _bg_secret_zone_1                  bg_secret_zone_1
     001A43D9  ___func_bg_storage_room            bg_storage_room
     001A43D9  _bg_storage_room                   bg_storage_room
ASxxxx Linker V03.00/V05.40 + sdld,  page 61.
Hexadecimal  [32-Bits]

Area                                    Addr        Size        Decimal Bytes (Attributes)
--------------------------------        ----        ----        ------- ----- ------------
_CODE_26                            001A4000    00002967 =       10599. bytes (REL,CON)

      Value  Global                              Global Defined In Module
      -----  --------------------------------   ------------------------
     001A43E7  ___func_bg_stress_too_high         bg_stress_too_high
     001A43E7  _bg_stress_too_high                bg_stress_too_high
     001A43F5  ___func_bg_title_screen            bg_title_screen
     001A43F5  _bg_title_screen                   bg_title_screen
     001A4403  ___func_bg_tunnel                  bg_tunnel
     001A4403  _bg_tunnel                         bg_tunnel
     001A4411  ___func_bg_vending_machine         bg_vending_machine
     001A4411  _bg_vending_machine                bg_vending_machine
     001A441F  ___func_bg_vents_2                 bg_vents_2
     001A441F  _bg_vents_2                        bg_vents_2
     001A442D  ___func_bg_vents                   bg_vents
     001A442D  _bg_vents                          bg_vents
     001A443B  ___func_bg_work_start              bg_work_start
     001A443B  _bg_work_start                     bg_work_start
     001A4449  ___func_palette_0                  palette_0
     001A4449  _palette_0                         palette_0
     001A448C  ___func_palette_1                  palette_1
     001A448C  _palette_1                         palette_1
     001A44CF  ___func_palette_2                  palette_2
     001A44CF  _palette_2                         palette_2
     001A4512  ___func_palette_3                  palette_3
     001A4512  _palette_3                         palette_3
     001A4555  ___func_palette_4                  palette_4
     001A4555  _palette_4                         palette_4
     001A4598  ___func_palette_5                  palette_5
     001A4598  _palette_5                         palette_5
     001A45DB  ___func_palette_6                  palette_6
     001A45DB  _palette_6                         palette_6
     001A461E  ___func_palette_7                  palette_7
     001A461E  _palette_7                         palette_7
     001A4661  ___func_scene_0_actors             scene_0_actors
     001A4661  _scene_0_actors                    scene_0_actors
     001A4695  _scene_0_init                      scene_0_init
     001A4698  GBVM$scene_0_init$fd0a93d7_8725_   scene_0_init
     001A46A9  GBVM$scene_0_init$b8d75966_2076_   scene_0_init
     001A46B3  GBVM$scene_0_init$97af9ee4_bba3_   scene_0_init
     001A46B5  GBVM$scene_0_init$46580cfb_16f8_   scene_0_init
     001A46BA  GBVM$scene_0_init$b55fd33f_b8bf_   scene_0_init
     001A46BB  GBVM$scene_0_init$6ca88138_2c49_   scene_0_init
     001A46C1  GBVM$scene_0_init$autofade$86755   scene_0_init
     001A46CD  ___func_scene_0                    scene_0
     001A46CD  _scene_0                           scene_0
     001A4708  ___func_scene_1_sprites            scene_1_sprites
     001A4708  _scene_1_sprites                   scene_1_sprites
     001A4711  ___func_scene_1_triggers           scene_1_triggers
     001A4711  _scene_1_triggers                  scene_1_triggers
     001A4739  ___func_scene_1                    scene_1
     001A4739  _scene_1                           scene_1
     001A4774  ___func_scene_10_actors            scene_10_actors
     001A4774  _scene_10_actors                   scene_10_actors
     001A47A8  _scene_10_init                     scene_10_init
ASxxxx Linker V03.00/V05.40 + sdld,  page 62.
Hexadecimal  [32-Bits]

Area                                    Addr        Size        Decimal Bytes (Attributes)
--------------------------------        ----        ----        ------- ----- ------------
_CODE_26                            001A4000    00002967 =       10599. bytes (REL,CON)

      Value  Global                              Global Defined In Module
      -----  --------------------------------   ------------------------
     001A47AB  GBVM$scene_10_init$3210bc56_9f49   scene_10_init
     001A47BC  GBVM$scene_10_init$842bf11e_f8c2   scene_10_init
     001A47C6  GBVM$scene_10_init$cc91ce3d_5222   scene_10_init
     001A47C7  GBVM$scene_10_init$552b571b_b467   scene_10_init
     001A47CD  GBVM$scene_10_init$autofade$a704   scene_10_init
     001A47D9  ___func_scene_10                   scene_10
     001A47D9  _scene_10                          scene_10
     001A4814  ___func_scene_11                   scene_11
     001A4814  _scene_11                          scene_11
     001A484F  ___func_scene_12                   scene_12
     001A484F  _scene_12                          scene_12
     001A488A  ___func_scene_13                   scene_13
     001A488A  _scene_13                          scene_13
     001A48C5  ___func_scene_14_triggers          scene_14_triggers
     001A48C5  _scene_14_triggers                 scene_14_triggers
     001A48E5  ___func_scene_14                   scene_14
     001A48E5  _scene_14                          scene_14
     001A4920  ___func_scene_15_sprites           scene_15_sprites
     001A4920  _scene_15_sprites                  scene_15_sprites
     001A4929  ___func_scene_15_triggers          scene_15_triggers
     001A4929  _scene_15_triggers                 scene_15_triggers
     001A4949  ___func_scene_15                   scene_15
     001A4949  _scene_15                          scene_15
     001A4984  ___func_scene_16_actors            scene_16_actors
     001A4984  _scene_16_actors                   scene_16_actors
     001A49B8  ___func_scene_16                   scene_16
     001A49B8  _scene_16                          scene_16
     001A49F3  ___func_scene_17                   scene_17
     001A49F3  _scene_17                          scene_17
     001A4A2E  ___func_scene_18                   scene_18
     001A4A2E  _scene_18                          scene_18
     001A4A69  ___func_scene_19_sprites           scene_19_sprites
     001A4A69  _scene_19_sprites                  scene_19_sprites
     001A4A6C  ___func_scene_19                   scene_19
     001A4A6C  _scene_19                          scene_19
     001A4AA7  ___func_scene_2_sprites            scene_2_sprites
     001A4AA7  _scene_2_sprites                   scene_2_sprites
     001A4ABC  ___func_scene_2                    scene_2
     001A4ABC  _scene_2                           scene_2
     001A4AF7  ___func_scene_20_triggers          scene_20_triggers
     001A4AF7  _scene_20_triggers                 scene_20_triggers
     001A4B07  ___func_scene_20                   scene_20
     001A4B07  _scene_20                          scene_20
     001A4B42  ___func_scene_21_sprites           scene_21_sprites
     001A4B42  _scene_21_sprites                  scene_21_sprites
     001A4B4B  ___func_scene_21_triggers          scene_21_triggers
     001A4B4B  _scene_21_triggers                 scene_21_triggers
     001A4B6B  ___func_scene_21                   scene_21
     001A4B6B  _scene_21                          scene_21
     001A4BA6  ___func_scene_22_actors            scene_22_actors
     001A4BA6  _scene_22_actors                   scene_22_actors
ASxxxx Linker V03.00/V05.40 + sdld,  page 63.
Hexadecimal  [32-Bits]

Area                                    Addr        Size        Decimal Bytes (Attributes)
--------------------------------        ----        ----        ------- ----- ------------
_CODE_26                            001A4000    00002967 =       10599. bytes (REL,CON)

      Value  Global                              Global Defined In Module
      -----  --------------------------------   ------------------------
     001A4BDA  ___func_scene_22_sprites           scene_22_sprites
     001A4BDA  _scene_22_sprites                  scene_22_sprites
     001A4BDD  ___func_scene_22_triggers          scene_22_triggers
     001A4BDD  _scene_22_triggers                 scene_22_triggers
     001A4BF5  ___func_scene_22                   scene_22
     001A4BF5  _scene_22                          scene_22
     001A4C30  ___func_scene_23_sprites           scene_23_sprites
     001A4C30  _scene_23_sprites                  scene_23_sprites
     001A4C36  ___func_scene_23_triggers          scene_23_triggers
     001A4C36  _scene_23_triggers                 scene_23_triggers
     001A4C56  ___func_scene_23                   scene_23
     001A4C56  _scene_23                          scene_23
     001A4C91  ___func_scene_24_sprites           scene_24_sprites
     001A4C91  _scene_24_sprites                  scene_24_sprites
     001A4C97  ___func_scene_24_triggers          scene_24_triggers
     001A4C97  _scene_24_triggers                 scene_24_triggers
     001A4CB7  ___func_scene_24                   scene_24
     001A4CB7  _scene_24                          scene_24
     001A4CF2  ___func_scene_25_sprites           scene_25_sprites
     001A4CF2  _scene_25_sprites                  scene_25_sprites
     001A4CFB  ___func_scene_25_triggers          scene_25_triggers
     001A4CFB  _scene_25_triggers                 scene_25_triggers
     001A4D1B  ___func_scene_25                   scene_25
     001A4D1B  _scene_25                          scene_25
     001A4D56  ___func_scene_26_sprites           scene_26_sprites
     001A4D56  _scene_26_sprites                  scene_26_sprites
     001A4D5C  ___func_scene_26_triggers          scene_26_triggers
     001A4D5C  _scene_26_triggers                 scene_26_triggers
     001A4D64  ___func_scene_26                   scene_26
     001A4D64  _scene_26                          scene_26
     001A4D9F  ___func_scene_27_sprites           scene_27_sprites
     001A4D9F  _scene_27_sprites                  scene_27_sprites
     001A4DA5  ___func_scene_27_triggers          scene_27_triggers
     001A4DA5  _scene_27_triggers                 scene_27_triggers
     001A4DB5  ___func_scene_27                   scene_27
     001A4DB5  _scene_27                          scene_27
     001A4DF0  ___func_scene_28_sprites           scene_28_sprites
     001A4DF0  _scene_28_sprites                  scene_28_sprites
     001A4DF6  ___func_scene_28_triggers          scene_28_triggers
     001A4DF6  _scene_28_triggers                 scene_28_triggers
     001A4E06  ___func_scene_28                   scene_28
     001A4E06  _scene_28                          scene_28
     001A4E41  ___func_scene_29_sprites           scene_29_sprites
     001A4E41  _scene_29_sprites                  scene_29_sprites
     001A4E4A  ___func_scene_29_triggers          scene_29_triggers
     001A4E4A  _scene_29_triggers                 scene_29_triggers
     001A4E62  ___func_scene_29                   scene_29
     001A4E62  _scene_29                          scene_29
     001A4E9D  ___func_scene_3_sprites            scene_3_sprites
     001A4E9D  _scene_3_sprites                   scene_3_sprites
     001A4EA6  ___func_scene_3_triggers           scene_3_triggers
ASxxxx Linker V03.00/V05.40 + sdld,  page 64.
Hexadecimal  [32-Bits]

Area                                    Addr        Size        Decimal Bytes (Attributes)
--------------------------------        ----        ----        ------- ----- ------------
_CODE_26                            001A4000    00002967 =       10599. bytes (REL,CON)

      Value  Global                              Global Defined In Module
      -----  --------------------------------   ------------------------
     001A4EA6  _scene_3_triggers                  scene_3_triggers
     001A4ECE  ___func_scene_3                    scene_3
     001A4ECE  _scene_3                           scene_3
     001A4F09  ___func_scene_30_actors            scene_30_actors
     001A4F09  _scene_30_actors                   scene_30_actors
     001A4F3D  _scene_30_init                     scene_30_init
     001A4F3E  GBVM$scene_30_init$82f62933_9cc8   scene_30_init
     001A4F3E  GBVM$scene_30_init$a8e59e24_8550   scene_30_init
     001A4F43  GBVM$scene_30_init$1dab3344_cd78   scene_30_init
     001A4F48  GBVM$scene_30_init$35fe7d8e_9158   scene_30_init
     001A4F4D  GBVM$scene_30_init$7c04f418_6001   scene_30_init
     001A4F52  GBVM$scene_30_init$a77acb3d_f770   scene_30_init
     001A4F57  GBVM$scene_30_init$f026dfad_f769   scene_30_init
     001A4F5C  GBVM$scene_30_init$b797afa4_c825   scene_30_init
     001A4F61  GBVM$scene_30_init$99fe1858_10fb   scene_30_init
     001A4F66  GBVM$scene_30_init$eb307fd4_23ee   scene_30_init
     001A4F6B  GBVM$scene_30_init$2b6b9afc_f744   scene_30_init
     001A4F70  GBVM$scene_30_init$autofade$307b   scene_30_init
     001A4F70  GBVM_END$scene_30_init$a8e59e24_   scene_30_init
     001A4F7C  ___func_scene_30_sprites           scene_30_sprites
     001A4F7C  _scene_30_sprites                  scene_30_sprites
     001A4F7F  ___func_scene_30                   scene_30
     001A4F7F  _scene_30                          scene_30
     001A4FBA  ___func_scene_31                   scene_31
     001A4FBA  _scene_31                          scene_31
     001A4FF5  ___func_scene_32_sprites           scene_32_sprites
     001A4FF5  _scene_32_sprites                  scene_32_sprites
     001A4FFB  ___func_scene_32_triggers          scene_32_triggers
     001A4FFB  _scene_32_triggers                 scene_32_triggers
     001A5013  ___func_scene_32                   scene_32
     001A5013  _scene_32                          scene_32
     001A504E  ___func_scene_33_triggers          scene_33_triggers
     001A504E  _scene_33_triggers                 scene_33_triggers
     001A506E  ___func_scene_33                   scene_33
     001A506E  _scene_33                          scene_33
     001A50A9  _scene_34_init                     scene_34_init
     001A50AC  GBVM$scene_34_init$b16e8796_bb39   scene_34_init
     001A50AC  GBVM$scene_34_init$d0b2b5c9_31eb   scene_34_init
     001A50B4  GBVM$scene_34_init$e3f1b6c9_663a   scene_34_init
     001A50BD  GBVM$scene_34_init$3ccea252_4677   scene_34_init
     001A50BF  GBVM$scene_34_init$b9f7f36e_2b5c   scene_34_init
     001A50C7  GBVM$scene_34_init$autofade$2d00   scene_34_init
     001A50C7  GBVM_END$scene_34_init$b9f7f36e_   scene_34_init
     001A50D3  ___func_scene_34_triggers          scene_34_triggers
     001A50D3  _scene_34_triggers                 scene_34_triggers
     001A50EB  ___func_scene_34                   scene_34
     001A50EB  _scene_34                          scene_34
     001A5126  ___func_scene_35                   scene_35
     001A5126  _scene_35                          scene_35
     001A5161  ___func_scene_36_sprites           scene_36_sprites
     001A5161  _scene_36_sprites                  scene_36_sprites
ASxxxx Linker V03.00/V05.40 + sdld,  page 65.
Hexadecimal  [32-Bits]

Area                                    Addr        Size        Decimal Bytes (Attributes)
--------------------------------        ----        ----        ------- ----- ------------
_CODE_26                            001A4000    00002967 =       10599. bytes (REL,CON)

      Value  Global                              Global Defined In Module
      -----  --------------------------------   ------------------------
     001A5167  ___func_scene_36_triggers          scene_36_triggers
     001A5167  _scene_36_triggers                 scene_36_triggers
     001A5197  ___func_scene_36                   scene_36
     001A5197  _scene_36                          scene_36
     001A51D2  ___func_scene_37_sprites           scene_37_sprites
     001A51D2  _scene_37_sprites                  scene_37_sprites
     001A51DE  ___func_scene_37_triggers          scene_37_triggers
     001A51DE  _scene_37_triggers                 scene_37_triggers
     001A51FE  ___func_scene_37                   scene_37
     001A51FE  _scene_37                          scene_37
     001A5239  _scene_38_init                     scene_38_init
     001A523C  GBVM$scene_38_init$6dd3c221_dfce   scene_38_init
     001A5240  GBVM$scene_38_init$39fef9b8_1272   scene_38_init
     001A5245  GBVM$scene_38_init$f8589b5e_e36c   scene_38_init
     001A524A  GBVM$scene_38_init$5918fbe9_8599   scene_38_init
     001A524A  GBVM$scene_38_init$9a4fd4c8_d263   scene_38_init
     001A5253  GBVM$scene_38_init$f91dfe5b_819b   scene_38_init
     001A5255  GBVM$scene_38_init$d738a1cf_89de   scene_38_init
     001A525D  GBVM$scene_38_init$autofade$1f9d   scene_38_init
     001A525D  GBVM_END$scene_38_init$d738a1cf_   scene_38_init
     001A5269  ___func_scene_38_triggers          scene_38_triggers
     001A5269  _scene_38_triggers                 scene_38_triggers
     001A5271  ___func_scene_38                   scene_38
     001A5271  _scene_38                          scene_38
     001A52AC  ___func_scene_39                   scene_39
     001A52AC  _scene_39                          scene_39
     001A52E7  ___func_scene_4_sprites            scene_4_sprites
     001A52E7  _scene_4_sprites                   scene_4_sprites
     001A52ED  ___func_scene_4_triggers           scene_4_triggers
     001A52ED  _scene_4_triggers                  scene_4_triggers
     001A530D  ___func_scene_4                    scene_4
     001A530D  _scene_4                           scene_4
     001A5348  ___func_scene_40                   scene_40
     001A5348  _scene_40                          scene_40
     001A5383  ___func_scene_41_sprites           scene_41_sprites
     001A5383  _scene_41_sprites                  scene_41_sprites
     001A5392  ___func_scene_41_triggers          scene_41_triggers
     001A5392  _scene_41_triggers                 scene_41_triggers
     001A53AA  ___func_scene_41                   scene_41
     001A53AA  _scene_41                          scene_41
     001A53E5  ___func_scene_42_sprites           scene_42_sprites
     001A53E5  _scene_42_sprites                  scene_42_sprites
     001A53EE  ___func_scene_42                   scene_42
     001A53EE  _scene_42                          scene_42
     001A5429  ___func_scene_43_actors            scene_43_actors
     001A5429  _scene_43_actors                   scene_43_actors
     001A545D  ___func_scene_43_sprites           scene_43_sprites
     001A545D  _scene_43_sprites                  scene_43_sprites
     001A5460  ___func_scene_43_triggers          scene_43_triggers
     001A5460  _scene_43_triggers                 scene_43_triggers
     001A5468  ___func_scene_43                   scene_43
ASxxxx Linker V03.00/V05.40 + sdld,  page 66.
Hexadecimal  [32-Bits]

Area                                    Addr        Size        Decimal Bytes (Attributes)
--------------------------------        ----        ----        ------- ----- ------------
_CODE_26                            001A4000    00002967 =       10599. bytes (REL,CON)

      Value  Global                              Global Defined In Module
      -----  --------------------------------   ------------------------
     001A5468  _scene_43                          scene_43
     001A54A3  ___func_scene_44                   scene_44
     001A54A3  _scene_44                          scene_44
     001A54DE  ___func_scene_46_actors            scene_46_actors
     001A54DE  _scene_46_actors                   scene_46_actors
     001A5512  ___func_scene_46_sprites           scene_46_sprites
     001A5512  _scene_46_sprites                  scene_46_sprites
     001A5515  ___func_scene_46_triggers          scene_46_triggers
     001A5515  _scene_46_triggers                 scene_46_triggers
     001A551D  ___func_scene_46                   scene_46
     001A551D  _scene_46                          scene_46
     001A5558  ___func_scene_47                   scene_47
     001A5558  _scene_47                          scene_47
     001A5593  ___func_scene_5                    scene_5
     001A5593  _scene_5                           scene_5
     001A55CE  ___func_scene_6_actors             scene_6_actors
     001A55CE  _scene_6_actors                    scene_6_actors
     001A5602  ___func_scene_6_sprites            scene_6_sprites
     001A5602  _scene_6_sprites                   scene_6_sprites
     001A5605  ___func_scene_6                    scene_6
     001A5605  _scene_6                           scene_6
     001A5640  ___func_scene_7                    scene_7
     001A5640  _scene_7                           scene_7
     001A567B  ___func_scene_8                    scene_8
     001A567B  _scene_8                           scene_8
     001A56B6  ___func_scene_9                    scene_9
     001A56B6  _scene_9                           scene_9
     001A56F1  _script_input_10                   script_input_10
     001A56F3  GBVM$script_input_10$8f36a979_43   script_input_10
     001A5726  GBVM$script_input_121$827b9e20_e   script_input_121
     001A5726  _script_input_121                  script_input_121
     001A575C  _script_input_132                  script_input_132
     001A575E  GBVM$script_input_132$8c71db8b_2   script_input_132
     001A575F  GBVM$script_input_132$3a3628d8_c   script_input_132
     001A5792  _script_input_15                   script_input_15
     001A5794  GBVM$script_input_15$0a53918c_52   script_input_15
     001A57C7  _script_input_3                    script_input_3
     001A57C9  GBVM$script_input_3$aaf60226_39d   script_input_3
     001A57D8  GBVM$script_input_3$b168a2f6_d17   script_input_3
     001A57E1  GBVM$script_input_3$667c6de6_3a8   script_input_3
     001A57E7  GBVM$script_input_3$359a8454_e08   script_input_3
     001A57EF  GBVM_END$script_input_3$359a8454   script_input_3
     001A57F0  _script_input_32                   script_input_32
     001A57F2  GBVM$script_input_32$da15a1dc_32   script_input_32
     001A57FD  GBVM$script_input_32$fee56853_b2   script_input_32
     001A580F  GBVM$script_input_32$12b883c7_d3   script_input_32
     001A5818  GBVM$script_input_32$cd950a52_2f   script_input_32
     001A5820  GBVM$script_input_32$9adeb9f9_da   script_input_32
     001A582B  GBVM_END$script_input_32$12b883c   script_input_32
     001A582C  _script_input_33                   script_input_33
     001A582E  GBVM$script_input_33$05568767_f7   script_input_33
ASxxxx Linker V03.00/V05.40 + sdld,  page 67.
Hexadecimal  [32-Bits]

Area                                    Addr        Size        Decimal Bytes (Attributes)
--------------------------------        ----        ----        ------- ----- ------------
_CODE_26                            001A4000    00002967 =       10599. bytes (REL,CON)

      Value  Global                              Global Defined In Module
      -----  --------------------------------   ------------------------
     001A5839  GBVM$script_input_33$5eaaacd4_1c   script_input_33
     001A584B  GBVM$script_input_33$0e82600e_89   script_input_33
     001A5851  _script_input_52                   script_input_52
     001A5853  GBVM$script_input_52$e3228445_6f   script_input_52
     001A5886  _script_input_56                   script_input_56
     001A5888  GBVM$script_input_56$010fd0c0_75   script_input_56
     001A58BB  GBVM$script_input_63$e66ecde9_3c   script_input_63
     001A58BB  _script_input_63                   script_input_63
     001A58ED  _script_input_72                   script_input_72
     001A58EF  GBVM$script_input_72$c6283041_ee   script_input_72
     001A58F5  GBVM$script_input_72$333e1c8b_e7   script_input_72
     001A58FD  GBVM$script_input_72$67513088_27   script_input_72
     001A58FD  GBVM_END$script_input_72$333e1c8   script_input_72
     001A5902  GBVM$script_input_72$7192f324_c7   script_input_72
     001A5912  GBVM$script_input_72$3b777226_97   script_input_72
     001A5922  GBVM$script_input_72$b2fc00b1_fb   script_input_72
     001A592E  _script_input_75                   script_input_75
     001A5930  GBVM$script_input_75$6ee19bad_08   script_input_75
     001A5936  GBVM$script_input_75$535c8a5c_e0   script_input_75
     001A593E  GBVM$script_input_75$c28086e4_8e   script_input_75
     001A593E  GBVM_END$script_input_75$535c8a5   script_input_75
     001A5943  GBVM$script_input_75$8e3aaab7_3b   script_input_75
     001A5953  GBVM$script_input_75$a1df669e_05   script_input_75
     001A5963  GBVM$script_input_75$621895dd_ef   script_input_75
     001A596F  _script_input_78                   script_input_78
     001A5971  GBVM$script_input_78$e562792b_49   script_input_78
     001A5977  GBVM$script_input_78$af13c1d4_a8   script_input_78
     001A597F  GBVM$script_input_78$abe25d89_67   script_input_78
     001A597F  GBVM_END$script_input_78$af13c1d   script_input_78
     001A5984  GBVM$script_input_78$39f150b2_78   script_input_78
     001A5994  GBVM$script_input_78$b4ba3415_7c   script_input_78
     001A59A4  GBVM$script_input_78$d28a4de8_e9   script_input_78
     001A59B0  _script_input_81                   script_input_81
     001A59B2  GBVM$script_input_81$7be860dc_37   script_input_81
     001A59B8  GBVM$script_input_81$a37c478d_41   script_input_81
     001A59C0  GBVM$script_input_81$e310745c_dd   script_input_81
     001A59C0  GBVM_END$script_input_81$a37c478   script_input_81
     001A59C5  GBVM$script_input_81$f6b580a7_83   script_input_81
     001A59D5  GBVM$script_input_81$775bbed6_7e   script_input_81
     001A59E5  GBVM$script_input_81$7ad03df9_04   script_input_81
     001A59F1  _script_input_84                   script_input_84
     001A59F3  GBVM$script_input_84$f48feb2a_a3   script_input_84
     001A59F9  GBVM$script_input_84$2fd0b861_ea   script_input_84
     001A5A01  GBVM$script_input_84$fcabb02d_36   script_input_84
     001A5A01  GBVM_END$script_input_84$2fd0b86   script_input_84
     001A5A06  GBVM$script_input_84$59288632_1d   script_input_84
     001A5A16  GBVM$script_input_84$f4e8e8f8_cf   script_input_84
     001A5A26  GBVM$script_input_84$85bba15e_54   script_input_84
     001A5A32  _script_input_87                   script_input_87
     001A5A34  GBVM$script_input_87$744e2ffa_71   script_input_87
     001A5A3A  GBVM$script_input_87$d0b3db93_8e   script_input_87
ASxxxx Linker V03.00/V05.40 + sdld,  page 68.
Hexadecimal  [32-Bits]

Area                                    Addr        Size        Decimal Bytes (Attributes)
--------------------------------        ----        ----        ------- ----- ------------
_CODE_26                            001A4000    00002967 =       10599. bytes (REL,CON)

      Value  Global                              Global Defined In Module
      -----  --------------------------------   ------------------------
     001A5A42  GBVM$script_input_87$7192bd61_e5   script_input_87
     001A5A42  GBVM_END$script_input_87$d0b3db9   script_input_87
     001A5A47  GBVM$script_input_87$60452b9c_17   script_input_87
     001A5A57  GBVM$script_input_87$e97b26aa_1c   script_input_87
     001A5A67  GBVM$script_input_87$601bb048_de   script_input_87
     001A5A73  _script_input_90                   script_input_90
     001A5A75  GBVM$script_input_90$b6f0069d_dc   script_input_90
     001A5A7B  GBVM$script_input_90$7c69803a_14   script_input_90
     001A5A83  GBVM$script_input_90$83784d29_97   script_input_90
     001A5A83  GBVM_END$script_input_90$7c69803   script_input_90
     001A5A88  GBVM$script_input_90$dab654f5_3d   script_input_90
     001A5A98  GBVM$script_input_90$b7313fad_fe   script_input_90
     001A5AA8  GBVM$script_input_90$5883feea_06   script_input_90
     001A5AB4  _script_input_93                   script_input_93
     001A5AB6  GBVM$script_input_93$4ec0c91a_46   script_input_93
     001A5ABC  GBVM$script_input_93$7257e1d7_59   script_input_93
     001A5AC4  GBVM$script_input_93$9524764b_bd   script_input_93
     001A5AC4  GBVM_END$script_input_93$7257e1d   script_input_93
     001A5AC9  GBVM$script_input_93$c564e04b_7f   script_input_93
     001A5AD9  GBVM$script_input_93$43d7d337_2c   script_input_93
     001A5AE9  GBVM$script_input_93$e321445f_92   script_input_93
     001A5AF5  GBVM$script_timer_0$d3897e6d_d93   script_timer_0
     001A5AF5  _script_timer_0                    script_timer_0
     001A5B00  GBVM$script_timer_0$cd66cd7c_d60   script_timer_0
     001A5B03  _script_timer_20                   script_timer_20
     001A5B05  GBVM$script_timer_20$bcbea411_e1   script_timer_20
     001A5B15  GBVM$script_timer_20$1b4595c7_b0   script_timer_20
     001A5B21  GBVM$script_timer_20$8442b4fa_24   script_timer_20
     001A5B31  GBVM$script_timer_20$429a2b84_73   script_timer_20
     001A5B34  ___func_sound_legacy_0_0           sound_legacy_0_0
     001A5B34  _sound_legacy_0_0                  sound_legacy_0_0
     001A5B47  ___func_sound_legacy_0_1           sound_legacy_0_1
     001A5B47  _sound_legacy_0_1                  sound_legacy_0_1
     001A5B55  ___func_sound_legacy_0_2           sound_legacy_0_2
     001A5B55  _sound_legacy_0_2                  sound_legacy_0_2
     001A5B63  ___func_sound_legacy_0_3           sound_legacy_0_3
     001A5B63  _sound_legacy_0_3                  sound_legacy_0_3
     001A5B76  ___func_sound_legacy_0_4           sound_legacy_0_4
     001A5B76  _sound_legacy_0_4                  sound_legacy_0_4
     001A5B89  ___func_sound_legacy_0             sound_legacy_0
     001A5B89  _sound_legacy_0                    sound_legacy_0
     001A5B9C  ___func_sprite_clock_bank2_tiles   sprite_clock_bank2_tileset
     001A5B9C  _sprite_clock_bank2_tileset        sprite_clock_bank2_tileset
     001A5BDE  ___func_sprite_clock_tileset       sprite_clock_tileset
     001A5BDE  _sprite_clock_tileset              sprite_clock_tileset
     001A5C20  ___func_sprite_cursor_bank2_tile   sprite_cursor_bank2_tileset
     001A5C20  _sprite_cursor_bank2_tileset       sprite_cursor_bank2_tileset
     001A5C42  ___func_sprite_cursor_tileset      sprite_cursor_tileset
     001A5C42  _sprite_cursor_tileset             sprite_cursor_tileset
     001A5C84  ___func_sprite_cursor              sprite_cursor
     001A5C84  _sprite_cursor_metasprite_0        sprite_cursor
ASxxxx Linker V03.00/V05.40 + sdld,  page 69.
Hexadecimal  [32-Bits]

Area                                    Addr        Size        Decimal Bytes (Attributes)
--------------------------------        ----        ----        ------- ----- ------------
_CODE_26                            001A4000    00002967 =       10599. bytes (REL,CON)

      Value  Global                              Global Defined In Module
      -----  --------------------------------   ------------------------
     001A5C90  _sprite_cursor_metasprites         sprite_cursor
     001A5C92  _sprite_cursor_animations          sprite_cursor
     001A5CA2  _sprite_cursor_animations_lookup   sprite_cursor
     001A5CA4  _sprite_cursor                     sprite_cursor
     001A5CB7  ___func_sprite_elevator_bank2_ti   sprite_elevator_bank2_tilese
     001A5CB7  _sprite_elevator_bank2_tileset     sprite_elevator_bank2_tilese
     001A5CD9  ___func_sprite_elevator_tileset    sprite_elevator_tileset
     001A5CD9  _sprite_elevator_tileset           sprite_elevator_tileset
     001A5CFB  ___func_sprite_elevator            sprite_elevator
     001A5CFB  _sprite_elevator_metasprite_0      sprite_elevator
     001A5D17  _sprite_elevator_metasprites       sprite_elevator
     001A5D19  _sprite_elevator_animations        sprite_elevator
     001A5D29  _sprite_elevator_animations_look   sprite_elevator
     001A5D2B  _sprite_elevator                   sprite_elevator
     001A5D3E  ___func_sprite_end_slide_floor_t   sprite_end_slide_floor_trig
     001A5D3E  _sprite_end_slide_floor_trig_met   sprite_end_slide_floor_trig
     001A5D42  _sprite_end_slide_floor_trig_met   sprite_end_slide_floor_trig
     001A5D44  _sprite_end_slide_floor_trig_ani   sprite_end_slide_floor_trig
     001A5D54  _sprite_end_slide_floor_trig_ani   sprite_end_slide_floor_trig
     001A5D56  _sprite_end_slide_floor_trig       sprite_end_slide_floor_trig
     001A5D69  ___func_sprite_energy_bar_full_t   sprite_energy_bar_full_trig
     001A5D69  _sprite_energy_bar_full_trig_met   sprite_energy_bar_full_trig
     001A5D6D  _sprite_energy_bar_full_trig_met   sprite_energy_bar_full_trig
     001A5D6F  _sprite_energy_bar_full_trig_ani   sprite_energy_bar_full_trig
     001A5D7F  _sprite_energy_bar_full_trig_ani   sprite_energy_bar_full_trig
     001A5D81  _sprite_energy_bar_full_trig       sprite_energy_bar_full_trig
     001A5D94  ___func_sprite_energy_bars_bank2   sprite_energy_bars_bank2_til
     001A5D94  _sprite_energy_bars_bank2_tilese   sprite_energy_bars_bank2_til
     001A5DB6  ___func_sprite_energy_bars_stres   sprite_energy_bars_stress_ti
     001A5DB6  _sprite_energy_bars_stress_tiles   sprite_energy_bars_stress_ti
     001A5DD8  ___func_sprite_energy_bars_tiles   sprite_energy_bars_tileset
     001A5DD8  _sprite_energy_bars_tileset        sprite_energy_bars_tileset
     001A5E1A  ___func_sprite_eyes_bank2_tilese   sprite_eyes_bank2_tileset
     001A5E1A  _sprite_eyes_bank2_tileset         sprite_eyes_bank2_tileset
     001A5E3C  ___func_sprite_eyes_tileset        sprite_eyes_tileset
     001A5E3C  _sprite_eyes_tileset               sprite_eyes_tileset
     001A5E7E  ___func_sprite_get_key_bank2_til   sprite_get_key_bank2_tileset
     001A5E7E  _sprite_get_key_bank2_tileset      sprite_get_key_bank2_tileset
     001A5EC0  ___func_sprite_hearts_bank2_tile   sprite_hearts_bank2_tileset
     001A5EC0  _sprite_hearts_bank2_tileset       sprite_hearts_bank2_tileset
     001A5EE2  ___func_sprite_hearts_tileset      sprite_hearts_tileset
     001A5EE2  _sprite_hearts_tileset             sprite_hearts_tileset
     001A5F04  ___func_sprite_jo_bot_bank2_tile   sprite_jo_bot_bank2_tileset
     001A5F04  _sprite_jo_bot_bank2_tileset       sprite_jo_bot_bank2_tileset
     001A5F26  ___func_sprite_jo_bot_tileset      sprite_jo_bot_tileset
     001A5F26  _sprite_jo_bot_tileset             sprite_jo_bot_tileset
     001A5F68  ___func_sprite_locker_dot_bank2_   sprite_locker_dot_bank2_tile
     001A5F68  _sprite_locker_dot_bank2_tileset   sprite_locker_dot_bank2_tile
     001A5F8A  ___func_sprite_locker_dot_tilese   sprite_locker_dot_tileset
     001A5F8A  _sprite_locker_dot_tileset         sprite_locker_dot_tileset
     001A5FAC  ___func_sprite_press_start         sprite_press_start
ASxxxx Linker V03.00/V05.40 + sdld,  page 70.
Hexadecimal  [32-Bits]

Area                                    Addr        Size        Decimal Bytes (Attributes)
--------------------------------        ----        ----        ------- ----- ------------
_CODE_26                            001A4000    00002967 =       10599. bytes (REL,CON)

      Value  Global                              Global Defined In Module
      -----  --------------------------------   ------------------------
     001A5FAC  _sprite_press_start_metasprite_0   sprite_press_start
     001A5FC8  _sprite_press_start_metasprites    sprite_press_start
     001A5FCA  _sprite_press_start_animations     sprite_press_start
     001A5FDA  _sprite_press_start_animations_l   sprite_press_start
     001A5FDC  _sprite_press_start                sprite_press_start
     001A5FEF  ___func_sprite_shutdown_button_t   sprite_shutdown_button_tiles
     001A5FEF  _sprite_shutdown_button_tileset    sprite_shutdown_button_tiles
     001A6011  ___func_sprite_shutdown_button     sprite_shutdown_button
     001A6011  _sprite_shutdown_button_metaspri   sprite_shutdown_button
     001A601D  _sprite_shutdown_button_metaspri   sprite_shutdown_button
     001A601F  _sprite_shutdown_button_animatio   sprite_shutdown_button
     001A602F  _sprite_shutdown_button_animatio   sprite_shutdown_button
     001A6031  _sprite_shutdown_button            sprite_shutdown_button
     001A6044  ___func_sprite_vent_cover_tilese   sprite_vent_cover_tileset
     001A6044  _sprite_vent_cover_tileset         sprite_vent_cover_tileset
     001A6066  ___func_sprite_vent_cover          sprite_vent_cover
     001A6066  _sprite_vent_cover_metasprite_0    sprite_vent_cover
     001A6072  _sprite_vent_cover_metasprites     sprite_vent_cover
     001A6074  _sprite_vent_cover_animations      sprite_vent_cover
     001A6084  _sprite_vent_cover_animations_lo   sprite_vent_cover
     001A6086  _sprite_vent_cover                 sprite_vent_cover
     001A6099  _spritesheet_none_metasprite       spritesheet_none
     001A609D  _spritesheet_none_metasprites      spritesheet_none
     001A609F  _spritesheet_none                  spritesheet_none
     001A60B2  _trigger_100_interact              trigger_100_interact
     001A60C6  GBVM$trigger_100_interact$8a7359   trigger_100_interact
     001A60E0  GBVM$trigger_100_interact$a5e8f4   trigger_100_interact
     001A60EA  _trigger_101_interact              trigger_101_interact
     001A60FE  GBVM$trigger_101_interact$c38ad3   trigger_101_interact
     001A6118  GBVM$trigger_101_interact$dc4c4c   trigger_101_interact
     001A6122  _trigger_102_interact              trigger_102_interact
     001A6136  GBVM$trigger_102_interact$f4c882   trigger_102_interact
     001A6150  GBVM$trigger_102_interact$c3ab6f   trigger_102_interact
     001A615A  _trigger_13_interact               trigger_13_interact
     001A615B  GBVM$trigger_13_interact$64b95fd   trigger_13_interact
     001A6163  GBVM_END$trigger_13_interact$64b   trigger_13_interact
     001A6164  _trigger_14_interact               trigger_14_interact
     001A6165  GBVM$trigger_14_interact$3b9e957   trigger_14_interact
     001A616D  GBVM_END$trigger_14_interact$3b9   trigger_14_interact
     001A616E  _trigger_15_interact               trigger_15_interact
     001A616F  GBVM$trigger_15_interact$dbf8cda   trigger_15_interact
     001A6177  GBVM_END$trigger_15_interact$dbf   trigger_15_interact
     001A6178  _trigger_16_interact               trigger_16_interact
     001A6179  GBVM$trigger_16_interact$181d22b   trigger_16_interact
     001A6181  GBVM_END$trigger_16_interact$181   trigger_16_interact
     001A6182  _trigger_17_interact               trigger_17_interact
     001A6183  GBVM$trigger_17_interact$8093aff   trigger_17_interact
     001A618B  GBVM_END$trigger_17_interact$809   trigger_17_interact
     001A618C  _trigger_18_interact               trigger_18_interact
     001A618D  GBVM$trigger_18_interact$50430a5   trigger_18_interact
     001A6195  GBVM_END$trigger_18_interact$504   trigger_18_interact
ASxxxx Linker V03.00/V05.40 + sdld,  page 71.
Hexadecimal  [32-Bits]

Area                                    Addr        Size        Decimal Bytes (Attributes)
--------------------------------        ----        ----        ------- ----- ------------
_CODE_26                            001A4000    00002967 =       10599. bytes (REL,CON)

      Value  Global                              Global Defined In Module
      -----  --------------------------------   ------------------------
     001A6196  _trigger_19_interact               trigger_19_interact
     001A6197  GBVM$trigger_19_interact$20a4033   trigger_19_interact
     001A619F  GBVM_END$trigger_19_interact$20a   trigger_19_interact
     001A61A0  _trigger_20_interact               trigger_20_interact
     001A61A1  GBVM$trigger_20_interact$2fa3cc7   trigger_20_interact
     001A61A9  GBVM_END$trigger_20_interact$2fa   trigger_20_interact
     001A61AA  _trigger_21_interact               trigger_21_interact
     001A61BE  GBVM$trigger_21_interact$b27dfd4   trigger_21_interact
     001A61C6  GBVM_END$trigger_21_interact$b27   trigger_21_interact
     001A61D8  GBVM$trigger_21_interact$b53e94e   trigger_21_interact
     001A61E0  GBVM_END$trigger_21_interact$b53   trigger_21_interact
     001A61E2  _trigger_22_interact               trigger_22_interact
     001A61E3  GBVM$trigger_22_interact$a750108   trigger_22_interact
     001A61EB  GBVM_END$trigger_22_interact$a75   trigger_22_interact
     001A61EC  _trigger_23_interact               trigger_23_interact
     001A6200  GBVM$trigger_23_interact$5ffef39   trigger_23_interact
     001A6208  GBVM_END$trigger_23_interact$5ff   trigger_23_interact
     001A621A  GBVM$trigger_23_interact$7da4ed6   trigger_23_interact
     001A621E  _trigger_24_interact               trigger_24_interact
     001A6221  GBVM$trigger_24_interact$d619643   trigger_24_interact
     001A6254  _trigger_26_interact               trigger_26_interact
     001A6257  GBVM$trigger_26_interact$9057432   trigger_26_interact
     001A625B  GBVM$trigger_26_interact$29faaca   trigger_26_interact
     001A628E  _trigger_27_interact               trigger_27_interact
     001A62A2  GBVM$trigger_27_interact$0131e95   trigger_27_interact
     001A62BC  GBVM$trigger_27_interact$3ddd973   trigger_27_interact
     001A62C6  _trigger_28_interact               trigger_28_interact
     001A62C7  GBVM$trigger_28_interact$1a4937d   trigger_28_interact
     001A62CF  GBVM_END$trigger_28_interact$1a4   trigger_28_interact
     001A62D0  _trigger_38_interact               trigger_38_interact
     001A62D3  GBVM$trigger_38_interact$7f2378f   trigger_38_interact
     001A6306  _trigger_45_interact               trigger_45_interact
     001A6309  GBVM$trigger_45_interact$ba6f1b1   trigger_45_interact
     001A633C  _trigger_6_interact                trigger_6_interact
     001A6350  GBVM$trigger_6_interact$fdfb92da   trigger_6_interact
     001A636A  GBVM$trigger_6_interact$cf395be9   trigger_6_interact
     001A6374  _trigger_64_interact               trigger_64_interact
     001A6388  GBVM$trigger_64_interact$f8f8958   trigger_64_interact
     001A6394  GBVM$trigger_64_interact$45cc6c8   trigger_64_interact
     001A639C  GBVM_END$trigger_64_interact$45c   trigger_64_interact
     001A639C  GBVM_END$trigger_64_interact$f8f   trigger_64_interact
     001A63AE  GBVM$trigger_64_interact$8898d78   trigger_64_interact
     001A63B6  GBVM_END$trigger_64_interact$889   trigger_64_interact
     001A63B8  _trigger_65_interact               trigger_65_interact
     001A63CC  GBVM$trigger_65_interact$2e1deec   trigger_65_interact
     001A63D8  GBVM$trigger_65_interact$0efe05e   trigger_65_interact
     001A63E0  GBVM_END$trigger_65_interact$0ef   trigger_65_interact
     001A63E0  GBVM_END$trigger_65_interact$2e1   trigger_65_interact
     001A63F2  GBVM$trigger_65_interact$03de248   trigger_65_interact
     001A63FA  GBVM_END$trigger_65_interact$03d   trigger_65_interact
     001A63FC  _trigger_66_interact               trigger_66_interact
ASxxxx Linker V03.00/V05.40 + sdld,  page 72.
Hexadecimal  [32-Bits]

Area                                    Addr        Size        Decimal Bytes (Attributes)
--------------------------------        ----        ----        ------- ----- ------------
_CODE_26                            001A4000    00002967 =       10599. bytes (REL,CON)

      Value  Global                              Global Defined In Module
      -----  --------------------------------   ------------------------
     001A6410  GBVM$trigger_66_interact$5e73aa8   trigger_66_interact
     001A6418  GBVM_END$trigger_66_interact$5e7   trigger_66_interact
     001A642A  GBVM$trigger_66_interact$a82f7c6   trigger_66_interact
     001A6432  GBVM_END$trigger_66_interact$a82   trigger_66_interact
     001A6434  _trigger_67_interact               trigger_67_interact
     001A6435  GBVM$trigger_67_interact$9e8d46b   trigger_67_interact
     001A643D  GBVM_END$trigger_67_interact$9e8   trigger_67_interact
     001A643E  _trigger_7_interact                trigger_7_interact
     001A6441  GBVM$trigger_7_interact$e016e8da   trigger_7_interact
     001A6474  _trigger_70_interact               trigger_70_interact
     001A6477  GBVM$trigger_70_interact$5d36762   trigger_70_interact
     001A64AA  _trigger_71_interact               trigger_71_interact
     001A64BE  GBVM$trigger_71_interact$a070b1f   trigger_71_interact
     001A64D8  GBVM$trigger_71_interact$d2f86cd   trigger_71_interact
     001A64E2  _trigger_72_interact               trigger_72_interact
     001A64E5  GBVM$trigger_72_interact$3d44915   trigger_72_interact
     001A6518  _trigger_73_interact               trigger_73_interact
     001A652C  GBVM$trigger_73_interact$92fbef3   trigger_73_interact
     001A6546  GBVM$trigger_73_interact$3b8d92d   trigger_73_interact
     001A6550  _trigger_74_interact               trigger_74_interact
     001A6553  GBVM$trigger_74_interact$a37172b   trigger_74_interact
     001A6586  _trigger_75_interact               trigger_75_interact
     001A6587  GBVM$trigger_75_interact$3f17f4f   trigger_75_interact
     001A658F  GBVM_END$trigger_75_interact$3f1   trigger_75_interact
     001A6590  _trigger_76_interact               trigger_76_interact
     001A6591  GBVM$trigger_76_interact$8f6c9e9   trigger_76_interact
     001A6599  GBVM_END$trigger_76_interact$8f6   trigger_76_interact
     001A659A  _trigger_77_interact               trigger_77_interact
     001A659B  GBVM$trigger_77_interact$14349b3   trigger_77_interact
     001A65A3  GBVM_END$trigger_77_interact$143   trigger_77_interact
     001A65A4  _trigger_78_interact               trigger_78_interact
     001A65A5  GBVM$trigger_78_interact$217552e   trigger_78_interact
     001A65AD  GBVM_END$trigger_78_interact$217   trigger_78_interact
     001A65AE  _trigger_79_interact               trigger_79_interact
     001A65AF  GBVM$trigger_79_interact$25ee18d   trigger_79_interact
     001A65B7  GBVM_END$trigger_79_interact$25e   trigger_79_interact
     001A65B8  _trigger_8_interact                trigger_8_interact
     001A65BB  GBVM$trigger_8_interact$be0e9789   trigger_8_interact
     001A65EE  _trigger_83_interact               trigger_83_interact
     001A65F1  GBVM$trigger_83_interact$3638061   trigger_83_interact
     001A65FD  GBVM$trigger_83_interact$0ba29b0   trigger_83_interact
     001A662F  GBVM_END$trigger_83_interact$363   trigger_83_interact
     001A6630  _trigger_84_interact               trigger_84_interact
     001A6633  GBVM$trigger_84_interact$72cfd72   trigger_84_interact
     001A6666  _trigger_85_interact               trigger_85_interact
     001A6669  GBVM$trigger_85_interact$f26716d   trigger_85_interact
     001A669C  _trigger_86_interact               trigger_86_interact
     001A669F  GBVM$trigger_86_interact$939e353   trigger_86_interact
     001A66D2  _trigger_87_interact               trigger_87_interact
     001A66D5  GBVM$trigger_87_interact$0d50945   trigger_87_interact
     001A6708  _trigger_88_interact               trigger_88_interact
ASxxxx Linker V03.00/V05.40 + sdld,  page 73.
Hexadecimal  [32-Bits]

Area                                    Addr        Size        Decimal Bytes (Attributes)
--------------------------------        ----        ----        ------- ----- ------------
_CODE_26                            001A4000    00002967 =       10599. bytes (REL,CON)

      Value  Global                              Global Defined In Module
      -----  --------------------------------   ------------------------
     001A670B  GBVM$trigger_88_interact$f708d3d   trigger_88_interact
     001A673E  _trigger_89_interact               trigger_89_interact
     001A6752  GBVM$trigger_89_interact$0b68802   trigger_89_interact
     001A675A  GBVM_END$trigger_89_interact$0b6   trigger_89_interact
     001A676C  GBVM$trigger_89_interact$f3eee3f   trigger_89_interact
     001A6770  _trigger_90_interact               trigger_90_interact
     001A6784  GBVM$trigger_90_interact$91b793b   trigger_90_interact
     001A679E  GBVM$trigger_90_interact$c837f7c   trigger_90_interact
     001A67A8  _trigger_91_interact               trigger_91_interact
     001A67AB  GBVM$trigger_91_interact$0571076   trigger_91_interact
     001A67DE  _trigger_92_interact               trigger_92_interact
     001A67E1  GBVM$trigger_92_interact$c2cd478   trigger_92_interact
     001A6814  _trigger_93_interact               trigger_93_interact
     001A6817  GBVM$trigger_93_interact$6ce49ad   trigger_93_interact
     001A684A  _trigger_94_interact               trigger_94_interact
     001A684D  GBVM$trigger_94_interact$fac74ad   trigger_94_interact
     001A6880  _trigger_95_interact               trigger_95_interact
     001A6894  GBVM$trigger_95_interact$086d44d   trigger_95_interact
     001A68AE  GBVM$trigger_95_interact$cdb0f6e   trigger_95_interact
     001A68B8  _trigger_97_interact               trigger_97_interact
     001A68CC  GBVM$trigger_97_interact$95e47ef   trigger_97_interact
     001A68D4  GBVM_END$trigger_97_interact$95e   trigger_97_interact
     001A68E6  GBVM$trigger_97_interact$90d51ea   trigger_97_interact
     001A68EA  _trigger_98_interact               trigger_98_interact
     001A68ED  GBVM$trigger_98_interact$caa86f8   trigger_98_interact
     001A6920  _trigger_99_interact               trigger_99_interact
     001A6923  GBVM$trigger_99_interact$5c4759a   trigger_99_interact
     001A6956  _logo_init                         logo
     001A6966  _logo_update                       logo

ASxxxx Linker V03.00/V05.40 + sdld,  page 74.
Hexadecimal  [32-Bits]

Area                                    Addr        Size        Decimal Bytes (Attributes)
--------------------------------        ----        ----        ------- ----- ------------
_CODE_19                            00134000    00004000 =       16384. bytes (REL,CON)

      Value  Global                              Global Defined In Module
      -----  --------------------------------   ------------------------
     00134000  _core_reset                        core
     00134075  _process_VM                        core
     001342F3  _core_run                          core
     001343CF  _data_init                         load_save
     0013441A  _save_points                       load_save
     0013447A  _data_slot_address                 load_save
     001344F2  _data_save                         load_save
     001345B3  _data_load                         load_save
     001346C7  _data_clear                        load_save
     001346F4  _data_peek                         load_save
     00134795  _scroll_rect                       
     001347D2  ___func_VM_CAMERA                  vm_camera
     001347D2  _vm_camera_move_to                 vm_camera
     00134A25  _vm_camera_set_pos                 vm_camera
     00134A6C  _camera_shake_frames               vm_camera
     00134B9B  ___func_bg_cubicle_tilemap_attr    bg_cubicle_tilemap_attr
     00134B9B  _bg_cubicle_tilemap_attr           bg_cubicle_tilemap_attr
     00134F55  ___func_bg_cubicle_tilemap         bg_cubicle_tilemap
     00134F55  _bg_cubicle_tilemap                bg_cubicle_tilemap
     0013530F  ___func_bg_secret_zone_1_cgb_til   bg_secret_zone_1_cgb_tileset
     0013530F  _bg_secret_zone_1_cgb_tileset      bg_secret_zone_1_cgb_tileset
     001356F1  ___func_bg_tunnel_tilemap_attr     bg_tunnel_tilemap_attr
     001356F1  _bg_tunnel_tilemap_attr            bg_tunnel_tilemap_attr
     00135AAB  ___func_bg_tunnel_tilemap          bg_tunnel_tilemap
     00135AAB  _bg_tunnel_tilemap                 bg_tunnel_tilemap
     00135E65  ___func_bg_vents_2_tilemap_attr    bg_vents_2_tilemap_attr
     00135E65  _bg_vents_2_tilemap_attr           bg_vents_2_tilemap_attr
     0013620D  ___func_bg_vents_2_tilemap         bg_vents_2_tilemap
     0013620D  _bg_vents_2_tilemap                bg_vents_2_tilemap
     001365B5  ___func_bg_vents_tilemap_attr      bg_vents_tilemap_attr
     001365B5  _bg_vents_tilemap_attr             bg_vents_tilemap_attr
     0013695D  ___func_bg_vents_tilemap           bg_vents_tilemap
     0013695D  _bg_vents_tilemap                  bg_vents_tilemap
     00136D05  ___func_scene_2_collisions         scene_2_collisions
     00136D05  _scene_2_collisions                scene_2_collisions
     001370BF  ___func_scene_22_collisions        scene_22_collisions
     001370BF  _scene_22_collisions               scene_22_collisions
     00137479  ___func_scene_4_collisions         scene_4_collisions
     00137479  _scene_4_collisions                scene_4_collisions
     00137821  _scene_40_init                     scene_40_init
     00137824  GBVM$scene_40_init$fcb854fb_dcbe   scene_40_init
     0013782F  GBVM$scene_40_init$f1567563_268f   scene_40_init
     00137837  GBVM$scene_40_init$fb116b7a_a4ef   scene_40_init
     00137840  GBVM$scene_40_init$1f5b78d4_10e3   scene_40_init
     00137844  GBVM$scene_40_init$70243fcf_7677   scene_40_init
     00137A2E  GBVM$scene_40_init$dce6df4e_b4a0   scene_40_init
     00137A63  GBVM$scene_40_init$7d63964d_0e39   scene_40_init
     00137BB7  GBVM$scene_40_init$b06148fb_515b   scene_40_init
     00137BE9  GBVM_END$scene_40_init$fb116b7a_   scene_40_init
     00137BEA  ___func_sound_scream1_wav          sound_scream1_wav
ASxxxx Linker V03.00/V05.40 + sdld,  page 75.
Hexadecimal  [32-Bits]

Area                                    Addr        Size        Decimal Bytes (Attributes)
--------------------------------        ----        ----        ------- ----- ------------
_CODE_19                            00134000    00004000 =       16384. bytes (REL,CON)

      Value  Global                              Global Defined In Module
      -----  --------------------------------   ------------------------
     00137BEA  _sound_scream1_wav                 sound_scream1_wav
ASxxxx Linker V03.00/V05.40 + sdld,  page 76.
Hexadecimal  [32-Bits]

Area                                    Addr        Size        Decimal Bytes (Attributes)
--------------------------------        ----        ----        ------- ----- ------------
_CRASH_HEADER0                      00000000    00000005 =           5. bytes (ABS,CON)

      Value  Global                              Global Defined In Module
      -----  --------------------------------   ------------------------
ASxxxx Linker V03.00/V05.40 + sdld,  page 77.
Hexadecimal  [32-Bits]

Area                                    Addr        Size        Decimal Bytes (Attributes)
--------------------------------        ----        ----        ------- ----- ------------
_CRASH_HEADER1                      00000000    00000004 =           4. bytes (ABS,CON)

      Value  Global                              Global Defined In Module
      -----  --------------------------------   ------------------------
ASxxxx Linker V03.00/V05.40 + sdld,  page 78.
Hexadecimal  [32-Bits]

Area                                    Addr        Size        Decimal Bytes (Attributes)
--------------------------------        ----        ----        ------- ----- ------------
_CODE_20                            00144000    00004000 =       16384. bytes (REL,CON)

      Value  Global                              Global Defined In Module
      -----  --------------------------------   ------------------------
     00144000  ___HandleCrash_banked              
     001443D0  _save_sram_banks                   
     00144458  _erase_flash                       
     0014446E  _printer_send_receive              gbprinter
     001444A4  _printer_send_byte                 gbprinter
     001444B7  _printer_send_command              gbprinter
     001444DA  _printer_print_tile                gbprinter
     0014456B  _printer_wait                      gbprinter
     0014459D  _gbprinter_detect                  gbprinter
     001445B7  _gbprinter_print_overlay           gbprinter
     00144784  _atan2                             math_atan2
     0014491D  _atan2_table                       math_atan2
     00144A85  ___func_VM_SIO                     vm_sio
     00144A85  _vm_sio_set_mode                   vm_sio
     00144A97  _vm_sio_exchange                   vm_sio
     00144D79  ___func_bg_boss_office_b_tilemap   bg_boss_office_b_tilemap_att
     00144D79  _bg_boss_office_b_tilemap_attr     bg_boss_office_b_tilemap_att
     0014506D  ___func_bg_boss_office_b_tilemap   bg_boss_office_b_tilemap
     0014506D  _bg_boss_office_b_tilemap          bg_boss_office_b_tilemap
     00145361  ___func_bg_boss_office_c_tilemap   bg_boss_office_c_tilemap_att
     00145361  _bg_boss_office_c_tilemap_attr     bg_boss_office_c_tilemap_att
     00145655  ___func_bg_boss_office_c_tilemap   bg_boss_office_c_tilemap
     00145655  _bg_boss_office_c_tilemap          bg_boss_office_c_tilemap
     00145949  ___func_bg_boss_office_tilemap_a   bg_boss_office_tilemap_attr
     00145949  _bg_boss_office_tilemap_attr       bg_boss_office_tilemap_attr
     00145C3D  ___func_bg_boss_office_tilemap     bg_boss_office_tilemap
     00145C3D  _bg_boss_office_tilemap            bg_boss_office_tilemap
     00145F31  ___func_bg_break_start_cgb_tiles   bg_break_start_cgb_tileset
     00145F31  _bg_break_start_cgb_tileset        bg_break_start_cgb_tileset
     00146223  ___func_bg_final_escape_1_tilese   bg_final_escape_1_tileset
     00146223  _bg_final_escape_1_tileset         bg_final_escape_1_tileset
     00146535  ___func_bg_vents_tileset           bg_vents_tileset
     00146535  _bg_vents_tileset                  bg_vents_tileset
     00146807  ___func_bg_work_start_cgb_tilese   bg_work_start_cgb_tileset
     00146807  _bg_work_start_cgb_tileset         bg_work_start_cgb_tileset
     00146AE9  ___func_scene_15_collisions        scene_15_collisions
     00146AE9  _scene_15_collisions               scene_15_collisions
     00146DDD  ___func_scene_32_collisions        scene_32_collisions
     00146DDD  _scene_32_collisions               scene_32_collisions
     001470D1  _scene_32_init                     scene_32_init
     001470D4  GBVM$scene_32_init$eea88c17_3f9d   scene_32_init
     001470DD  GBVM$scene_32_init$3ec90ee1_4462   scene_32_init
     001470EC  GBVM$scene_32_init$2fc6d984_dccb   scene_32_init
     001470F5  GBVM$scene_32_init$6f3fbccb_72a1   scene_32_init
     00147105  GBVM$scene_32_init$autofade$031d   scene_32_init
     00147110  GBVM$scene_32_init$c0af6135_cd2e   scene_32_init
     00147119  GBVM$scene_32_init$5cb2604f_e6a5   scene_32_init
     00147123  GBVM$scene_32_init$f95d78be_bf37   scene_32_init
     0014712F  GBVM$scene_32_init$57d267b5_8aa6   scene_32_init
     00147148  GBVM$scene_32_init$2d127ba0_3948   scene_32_init
ASxxxx Linker V03.00/V05.40 + sdld,  page 79.
Hexadecimal  [32-Bits]

Area                                    Addr        Size        Decimal Bytes (Attributes)
--------------------------------        ----        ----        ------- ----- ------------
_CODE_20                            00144000    00004000 =       16384. bytes (REL,CON)

      Value  Global                              Global Defined In Module
      -----  --------------------------------   ------------------------
     0014714D  GBVM$scene_32_init$b836d833_be7f   scene_32_init
     0014715D  GBVM$scene_32_init$ebc00ca9_725b   scene_32_init
     00147163  GBVM$scene_32_init$0dd5cc6c_9e63   scene_32_init
     001471B8  GBVM$scene_32_init$3319ea6a_e28f   scene_32_init
     001471ED  GBVM$scene_32_init$f09415f5_8fbc   scene_32_init
     001471F7  GBVM$scene_32_init$954bbb7d_db02   scene_32_init
     001471F7  GBVM_END$scene_32_init$c0af6135_   scene_32_init
     00147201  GBVM$scene_32_init$1db6c085_7925   scene_32_init
     0014720A  GBVM$scene_32_init$2e560730_8164   scene_32_init
     00147213  GBVM$scene_32_init$903bbda4_8a6c   scene_32_init
     0014721F  GBVM$scene_32_init$2ef4fd45_09b1   scene_32_init
     00147230  GBVM$scene_32_init$6ccf65b6_4065   scene_32_init
     0014723A  GBVM$scene_32_init$539fcc5f_ad00   scene_32_init
     00147243  GBVM$scene_32_init$e1e5ef11_168a   scene_32_init
     00147253  GBVM$scene_32_init$c4ccc3bf_d269   scene_32_init
     0014725D  GBVM_END$scene_32_init$903bbda4_   scene_32_init
     00147260  GBVM$scene_32_init$ee7dc3b7_d8bf   scene_32_init
     00147271  GBVM$scene_32_init$3099501f_0d8f   scene_32_init
     00147271  GBVM_END$scene_32_init$2e560730_   scene_32_init
     0014727A  GBVM$scene_32_init$afd9ba14_87d6   scene_32_init
     00147286  GBVM$scene_32_init$51c6bb0d_9100   scene_32_init
     00147292  GBVM$scene_32_init$11b0af26_bed7   scene_32_init
     001472AB  GBVM$scene_32_init$2a034086_57a7   scene_32_init
     001472B0  GBVM$scene_32_init$d21c775d_466f   scene_32_init
     001472C0  GBVM$scene_32_init$e777cf08_9eca   scene_32_init
     00147315  GBVM$scene_32_init$9e3ef1c0_fe96   scene_32_init
     00147347  GBVM_END$scene_32_init$afd9ba14_   scene_32_init
     0014734A  GBVM$scene_32_init$9fe39dfd_b778   scene_32_init
     0014734F  GBVM$scene_32_init$356dab77_1797   scene_32_init
     0014735B  GBVM$scene_32_init$bb66df54_31c1   scene_32_init
     0014736E  GBVM$scene_32_init$016fbbce_7025   scene_32_init
     00147390  GBVM$scene_32_init$3a99c1a3_8e94   scene_32_init
     00147390  GBVM$scene_32_init$acfc2304_ef1b   scene_32_init
     00147390  GBVM_END$scene_32_init$3099501f_   scene_32_init
     00147398  GBVM$scene_32_init$918ceba5_d6eb   scene_32_init
     001473A1  GBVM$scene_32_init$8b01a432_788f   scene_32_init
     001473B3  GBVM$scene_32_init$f887173a_8b51   scene_32_init
     001473BB  GBVM$scene_32_init$c25b5cb6_1383   scene_32_init
     001473C3  GBVM_END$scene_32_init$8b01a432_   scene_32_init
     001473C3  GBVM_END$scene_32_init$c25b5cb6_   scene_32_init
     001473C4  ___func_scene_33_collisions        scene_33_collisions
     001473C4  _scene_33_collisions               scene_33_collisions
     001476B8  ___func_scene_34_collisions        scene_34_collisions
     001476B8  _scene_34_collisions               scene_34_collisions
     001479AC  ___func_scene_46_collisions        scene_46_collisions
     001479AC  _scene_46_collisions               scene_46_collisions
     00147D54  ___func_sprite_player_larry_tile   sprite_player_larry_tileset
     00147D54  _sprite_player_larry_tileset       sprite_player_larry_tileset
     00147FF6  _trigger_12_interact               trigger_12_interact
     00147FF7  GBVM$trigger_12_interact$163d7fe   trigger_12_interact
     00147FFF  GBVM_END$trigger_12_interact$163   trigger_12_interact

ASxxxx Linker V03.00/V05.40 + sdld,  page 80.
Hexadecimal  [32-Bits]

Area                                    Addr        Size        Decimal Bytes (Attributes)
--------------------------------        ----        ----        ------- ----- ------------
_CRASH_SCRATCH2                     00000000    000001CB =         459. bytes (ABS,CON)

      Value  Global                              Global Defined In Module
      -----  --------------------------------   ------------------------
ASxxxx Linker V03.00/V05.40 + sdld,  page 81.
Hexadecimal  [32-Bits]

Area                                    Addr        Size        Decimal Bytes (Attributes)
--------------------------------        ----        ----        ------- ----- ------------
_CODE_10                            000A4000    00004000 =       16384. bytes (REL,CON)

      Value  Global                              Global Defined In Module
      -----  --------------------------------   ------------------------
     000A4000  _load_init                         data_manager
     000A4013  _spritesheet_none_far              data_manager
     000A4016  _load_bkg_tileset                  data_manager
     000A40F3  _load_background                   data_manager
     000A41B9  _load_sprite                       data_manager
     000A428F  _load_bounds                       data_manager
     000A42AC  _do_load_palette                   data_manager
     000A4331  _load_scene                        data_manager
     000A4997  _load_player                       data_manager
     000A49E0  _load_emote                        data_manager
     000A49F9  ___func_bg_choice_tilemap_attr     bg_choice_tilemap_attr
     000A49F9  _bg_choice_tilemap_attr            bg_choice_tilemap_attr
     000A54C6  ___func_bg_choice_tilemap          bg_choice_tilemap
     000A54C6  _bg_choice_tilemap                 bg_choice_tilemap
     000A69B2  _song_sr388_quake_Data             song_sr388_quake_Data
     000A69C7  ___func_scene_36_collisions        scene_36_collisions
     000A69C7  _scene_36_collisions               scene_36_collisions
     000A7494  ___func_scene_37_collisions        scene_37_collisions
     000A7494  _scene_37_collisions               scene_37_collisions
     000A7F61  _scene_43_init                     scene_43_init
     000A7F64  GBVM$scene_43_init$9414a089_d06b   scene_43_init
     000A7F65  GBVM$scene_43_init$e98ed6d5_f34e   scene_43_init
     000A7F6E  GBVM$scene_43_init$da4c2e20_f9cf   scene_43_init
     000A7F7F  GBVM$scene_43_init$3ebb74ba_70bc   scene_43_init
     000A7F7F  GBVM$scene_43_init$4efba99d_9872   scene_43_init
     000A7F81  GBVM$scene_43_init$3e38dac2_4f3d   scene_43_init
     000A7F89  GBVM$scene_43_init$autofade$8ce4   scene_43_init
     000A7F89  GBVM_END$scene_43_init$3e38dac2_   scene_43_init
     000A7F94  GBVM$scene_43_init$e69c0cbf_d161   scene_43_init

ASxxxx Linker V03.00/V05.40 + sdld,  page 82.
Hexadecimal  [32-Bits]

Area                                    Addr        Size        Decimal Bytes (Attributes)
--------------------------------        ----        ----        ------- ----- ------------
_CODE_25                            00194000    00003FFE =       16382. bytes (REL,CON)

      Value  Global                              Global Defined In Module
      -----  --------------------------------   ------------------------
     00194000  _events_init                       events
     00194040  _timers_init                       events
     00194080  _restore_sram_bank                 flasher
     001940B6  _restore_sram                      flasher
     001940CC  _save_sram                         flasher
     001940F8  _palette_init                      palette
     0019412F  _CGBZeroPalette                    palette
     00194144  ___func_VM_GBPRINTER               vm_gbprinter
     00194144  _vm_print_detect                   vm_gbprinter
     00194193  _vm_print_overlay                  vm_gbprinter
     001941E8  ___func_VM_LOAD_SAVE               vm_load_save
     001941E8  _vm_save_clear                     vm_load_save
     001941F7  _vm_save_peek                      vm_load_save
     00194279  ___func_VM_SCENE                   vm_scene
     00194279  _vm_scene_push                     vm_scene
     001942EF  _vm_scene_pop                      vm_scene
     001942FD  _vm_scene_pop_all                  vm_scene
     00194308  _vm_scene_stack_reset              vm_scene
     00194311  _actor_10_update                   actor_10_update
     00194313  GBVM$actor_10_update$28c8f97f_f6   actor_10_update
     00194327  GBVM$actor_10_update$19b396fd_64   actor_10_update
     0019433A  GBVM$actor_10_update$b2daabb1_9a   actor_10_update
     0019434D  GBVM$actor_10_update$1cfb5b71_b8   actor_10_update
     00194360  GBVM_END$actor_10_update$28c8f97   actor_10_update
     00194365  _actor_11_update                   actor_11_update
     00194367  GBVM$actor_11_update$0ce68455_3d   actor_11_update
     00194380  GBVM$actor_11_update$b11dcd8b_23   actor_11_update
     0019438A  GBVM$actor_11_update$39da56b3_cb   actor_11_update
     001943B7  _actor_4_update                    actor_4_update
     001943B9  GBVM$actor_4_update$01698f42_a7d   actor_4_update
     001943C5  GBVM$actor_4_update$387c18d2_eb0   actor_4_update
     00194418  GBVM_END$actor_4_update$01698f42   actor_4_update
     0019441D  _actor_5_update                    actor_5_update
     0019441F  GBVM$actor_5_update$cfd33c50_afb   actor_5_update
     00194438  GBVM$actor_5_update$2773fee1_6c2   actor_5_update
     00194442  GBVM$actor_5_update$3448e2c2_215   actor_5_update
     0019446F  _actor_6_update                    actor_6_update
     00194471  GBVM$actor_6_update$0964a269_b46   actor_6_update
     0019447D  GBVM$actor_6_update$1b58f19e_a3a   actor_6_update
     0019448D  GBVM$actor_6_update$9bb467a8_f3a   actor_6_update
     00194499  GBVM$actor_6_update$81d635fa_02e   actor_6_update
     001944A9  GBVM$actor_6_update$56995ccd_a92   actor_6_update
     001944B5  GBVM$actor_6_update$d09e5e89_9d9   actor_6_update
     001944C5  GBVM$actor_6_update$852243c7_96c   actor_6_update
     001944D1  GBVM$actor_6_update$4a09ba87_8e8   actor_6_update
     001944E1  GBVM$actor_6_update$ca434a33_ac5   actor_6_update
     001944ED  GBVM$actor_6_update$e53f9ca7_75c   actor_6_update
     00194524  _actor_82_update                   actor_82_update
     00194526  GBVM$actor_82_update$003e52f3_05   actor_82_update
     0019453E  GBVM$actor_82_update$2a370841_5d   actor_82_update
ASxxxx Linker V03.00/V05.40 + sdld,  page 83.
Hexadecimal  [32-Bits]

Area                                    Addr        Size        Decimal Bytes (Attributes)
--------------------------------        ----        ----        ------- ----- ------------
_CODE_25                            00194000    00003FFE =       16382. bytes (REL,CON)

      Value  Global                              Global Defined In Module
      -----  --------------------------------   ------------------------
     00194551  GBVM$actor_82_update$86c4974b_00   actor_82_update
     00194564  GBVM$actor_82_update$0bffc3db_c6   actor_82_update
     00194577  GBVM$actor_82_update$41856d34_03   actor_82_update
     0019458A  GBVM_END$actor_82_update$003e52f   actor_82_update
     0019458F  ___func_bg_choice_cgb_tileset      bg_choice_cgb_tileset
     0019458F  _bg_choice_cgb_tileset             bg_choice_cgb_tileset
     00194611  ___func_bg_cubicle_cgb_tileset     bg_cubicle_cgb_tileset
     00194611  _bg_cubicle_cgb_tileset            bg_cubicle_cgb_tileset
     001946B3  ___func_frame_image                frame_image
     001946B3  _frame_image                       frame_image
     00194743  _scene_11_init                     scene_11_init
     00194746  GBVM$scene_11_init$4ffa4e68_95ce   scene_11_init
     00194747  GBVM$scene_11_init$94c6ec49_8343   scene_11_init
     00194758  GBVM$scene_11_init$9b56c447_b7be   scene_11_init
     0019475D  GBVM$scene_11_init$d5651b87_e644   scene_11_init
     00194762  GBVM$scene_11_init$388fc034_27c9   scene_11_init
     0019476C  GBVM$scene_11_init$3eae604f_404d   scene_11_init
     0019476E  GBVM$scene_11_init$autofade$b305   scene_11_init
     00194779  GBVM$scene_11_init$68cbee71_b13c   scene_11_init
     00194785  GBVM$scene_11_init$83ba5e88_04bf   scene_11_init
     0019478E  GBVM$scene_11_init$4210ff25_f5c4   scene_11_init
     001947C3  GBVM$scene_11_init$703c0480_df83   scene_11_init
     001947C8  GBVM$scene_11_init$a1b2555a_3b38   scene_11_init
     001947FA  GBVM_END$scene_11_init$83ba5e88_   scene_11_init
     001947FB  _scene_12_init                     scene_12_init
     001947FE  GBVM$scene_12_init$67ed9592_ef4a   scene_12_init
     00194803  GBVM$scene_12_init$autofade$de55   scene_12_init
     0019480E  GBVM$scene_12_init$8f414976_9140   scene_12_init
     0019481A  GBVM$scene_12_init$5df73463_3610   scene_12_init
     0019484D  _scene_13_init                     scene_13_init
     00194850  GBVM$scene_13_init$5e8ee925_18f2   scene_13_init
     00194855  GBVM$scene_13_init$autofade$557e   scene_13_init
     00194860  GBVM$scene_13_init$6f356003_363e   scene_13_init
     0019486C  GBVM$scene_13_init$49a09186_6691   scene_13_init
     0019489F  ___func_scene_14_actors            scene_14_actors
     0019489F  _scene_14_actors                   scene_14_actors
     00194907  ___func_scene_15_actors            scene_15_actors
     00194907  _scene_15_actors                   scene_15_actors
     001949A3  _scene_16_init                     scene_16_init
     001949A6  GBVM$scene_16_init$240563cc_a4ef   scene_16_init
     001949B1  GBVM$scene_16_init$941a5ad7_495e   scene_16_init
     001949BB  GBVM$scene_16_init$1cf65049_d8b0   scene_16_init
     001949C3  GBVM$scene_16_init$4fe76f6f_d4d2   scene_16_init
     001949C3  GBVM_END$scene_16_init$1cf65049_   scene_16_init
     001949CD  GBVM$scene_16_init$7df83f36_0834   scene_16_init
     001949D6  GBVM$scene_16_init$82ee1c92_46e4   scene_16_init
     001949E6  GBVM$scene_16_init$autofade$f3eb   scene_16_init
     001949F1  GBVM$scene_16_init$7b2a17a6_2379   scene_16_init
     001949FD  GBVM$scene_16_init$4da2434a_69ce   scene_16_init
     00194A07  GBVM$scene_16_init$5237386a_cb14   scene_16_init
     00194A13  GBVM$scene_16_init$76607791_7509   scene_16_init
ASxxxx Linker V03.00/V05.40 + sdld,  page 84.
Hexadecimal  [32-Bits]

Area                                    Addr        Size        Decimal Bytes (Attributes)
--------------------------------        ----        ----        ------- ----- ------------
_CODE_25                            00194000    00003FFE =       16382. bytes (REL,CON)

      Value  Global                              Global Defined In Module
      -----  --------------------------------   ------------------------
     00194A23  GBVM$scene_16_init$04e2b2ec_de9a   scene_16_init
     00194A2F  GBVM$scene_16_init$eb7c570c_6273   scene_16_init
     00194A37  GBVM$scene_16_init$63567d20_fd45   scene_16_init
     00194A37  GBVM_END$scene_16_init$eb7c570c_   scene_16_init
     00194A41  GBVM$scene_16_init$63e2511d_d029   scene_16_init
     00194A41  GBVM$scene_16_init$bce6d0c3_3516   scene_16_init
     00194A4B  ___func_scene_19_actors            scene_19_actors
     00194A4B  _scene_19_actors                   scene_19_actors
     00194AE7  ___func_scene_19_triggers          scene_19_triggers
     00194AE7  _scene_19_triggers                 scene_19_triggers
     00194B67  _scene_20_init                     scene_20_init
     00194B6A  GBVM$scene_20_init$b381d435_8d7e   scene_20_init
     00194B76  GBVM$scene_20_init$12e2d678_c330   scene_20_init
     00194B76  GBVM$scene_20_init$15098330_658f   scene_20_init
     00194B86  GBVM$scene_20_init$9123e2f0_9634   scene_20_init
     00194B96  GBVM$scene_20_init$6037db26_248a   scene_20_init
     00194BA6  GBVM$scene_20_init$24fce930_ded2   scene_20_init
     00194BB6  GBVM$scene_20_init$d0d21b30_e242   scene_20_init
     00194BC6  GBVM$scene_20_init$973e2069_bf36   scene_20_init
     00194BD6  GBVM$scene_20_init$fbd6dd3f_e385   scene_20_init
     00194BE6  GBVM$scene_20_init$41791aed_7366   scene_20_init
     00194BF6  GBVM$scene_20_init$autofade$d1db   scene_20_init
     00194BF6  GBVM_END$scene_20_init$15098330_   scene_20_init
     00194BF6  GBVM_END$scene_20_init$b381d435_   scene_20_init
     00194C02  ___func_scene_21_actors            scene_21_actors
     00194C02  _scene_21_actors                   scene_21_actors
     00194C9E  _scene_22_init                     scene_22_init
     00194CA1  GBVM$scene_22_init$b1cf9224_6014   scene_22_init
     00194CB0  GBVM$scene_22_init$129276bb_998f   scene_22_init
     00194CB4  GBVM$scene_22_init$55a25726_5127   scene_22_init
     00194CC0  GBVM$scene_22_init$7774d161_df7e   scene_22_init
     00194CCA  GBVM$scene_22_init$35777707_29ae   scene_22_init
     00194CCA  GBVM$scene_22_init$455eef29_c2bf   scene_22_init
     00194CCA  GBVM_END$scene_22_init$55a25726_   scene_22_init
     00194CD3  GBVM$scene_22_init$fa8c09c6_7d6c   scene_22_init
     00194CD5  GBVM$scene_22_init$e331752d_6c54   scene_22_init
     00194CDD  GBVM$scene_22_init$7c6f982c_2bc2   scene_22_init
     00194CDD  GBVM_END$scene_22_init$e331752d_   scene_22_init
     00194CEF  GBVM$scene_22_init$e2dd69a4_1e50   scene_22_init
     00194CF7  GBVM$scene_22_init$7c68008c_b187   scene_22_init
     00194CFF  GBVM$scene_22_init$autofade$3354   scene_22_init
     00194CFF  GBVM_END$scene_22_init$7c68008c_   scene_22_init
     00194CFF  GBVM_END$scene_22_init$7c6f982c_   scene_22_init
     00194D0B  ___func_scene_23_actors            scene_23_actors
     00194D0B  _scene_23_actors                   scene_23_actors
     00194DDB  ___func_scene_24_actors            scene_24_actors
     00194DDB  _scene_24_actors                   scene_24_actors
     00194E77  ___func_scene_25_actors            scene_25_actors
     00194E77  _scene_25_actors                   scene_25_actors
     00194F47  ___func_scene_27_actors            scene_27_actors
     00194F47  _scene_27_actors                   scene_27_actors
ASxxxx Linker V03.00/V05.40 + sdld,  page 85.
Hexadecimal  [32-Bits]

Area                                    Addr        Size        Decimal Bytes (Attributes)
--------------------------------        ----        ----        ------- ----- ------------
_CODE_25                            00194000    00003FFE =       16382. bytes (REL,CON)

      Value  Global                              Global Defined In Module
      -----  --------------------------------   ------------------------
     00194FAF  ___func_scene_28_actors            scene_28_actors
     00194FAF  _scene_28_actors                   scene_28_actors
     00195017  ___func_scene_29_actors            scene_29_actors
     00195017  _scene_29_actors                   scene_29_actors
     001950B3  ___func_scene_30_triggers          scene_30_triggers
     001950B3  _scene_30_triggers                 scene_30_triggers
     00195103  ___func_scene_32_actors            scene_32_actors
     00195103  _scene_32_actors                   scene_32_actors
     0019516B  _scene_33_init                     scene_33_init
     0019516E  GBVM$scene_33_init$547e91fc_85e1   scene_33_init
     0019516E  GBVM$scene_33_init$8e9c7681_ae35   scene_33_init
     00195177  GBVM$scene_33_init$ad334c74_2404   scene_33_init
     00195179  GBVM$scene_33_init$df809d25_2a9d   scene_33_init
     00195181  GBVM$scene_33_init$autofade$acc8   scene_33_init
     00195181  GBVM_END$scene_33_init$df809d25_   scene_33_init
     0019518D  _scene_35_init                     scene_35_init
     00195190  GBVM$scene_35_init$autofade$79c9   scene_35_init
     0019519B  GBVM$scene_35_init$52a273ba_cf2b   scene_35_init
     001951A7  GBVM$scene_35_init$694afe3b_26d3   scene_35_init
     001951DA  ___func_scene_36_actors            scene_36_actors
     001951DA  _scene_36_actors                   scene_36_actors
     00195276  _scene_36_init                     scene_36_init
     00195279  GBVM$scene_36_init$b055185d_8920   scene_36_init
     00195282  GBVM$scene_36_init$a14caeb0_a135   scene_36_init
     0019528C  GBVM$scene_36_init$07714229_4db7   scene_36_init
     00195296  GBVM$scene_36_init$b05b530f_ac0e   scene_36_init
     0019529A  GBVM$scene_36_init$7ad36f0c_055e   scene_36_init
     0019529F  GBVM$scene_36_init$3b7f71b1_4f8d   scene_36_init
     001952A9  GBVM$scene_36_init$47bc0b42_7c60   scene_36_init
     001952B3  GBVM$scene_36_init$aa1ee9f8_9e77   scene_36_init
     001952B3  GBVM$scene_36_init$bcb9ee8b_7b22   scene_36_init
     001952BC  GBVM$scene_36_init$2dfbd3a1_7673   scene_36_init
     001952BE  GBVM$scene_36_init$9d5ba51e_13c0   scene_36_init
     001952C6  GBVM$scene_36_init$autofade$a506   scene_36_init
     001952C6  GBVM_END$scene_36_init$9d5ba51e_   scene_36_init
     001952D2  ___func_scene_37_actors            scene_37_actors
     001952D2  _scene_37_actors                   scene_37_actors
     001953A2  ___func_scene_4_actors             scene_4_actors
     001953A2  _scene_4_actors                    scene_4_actors
     00195472  ___func_scene_42_actors            scene_42_actors
     00195472  _scene_42_actors                   scene_42_actors
     0019550E  _scene_42_init                     scene_42_init
     00195511  GBVM$scene_42_init$fff90d24_e8b7   scene_42_init
     0019551A  GBVM$scene_42_init$1206368e_d542   scene_42_init
     0019552A  GBVM$scene_42_init$02c59445_eef6   scene_42_init
     00195539  GBVM$scene_42_init$9b433595_e76b   scene_42_init
     00195542  GBVM$scene_42_init$f8d9b877_0671   scene_42_init
     0019554B  GBVM$scene_42_init$f9cb8f52_e8ec   scene_42_init
     00195553  GBVM$scene_42_init$autofade$3b42   scene_42_init
     00195553  GBVM_END$scene_42_init$f9cb8f52_   scene_42_init
     0019555F  _scene_44_init                     scene_44_init
ASxxxx Linker V03.00/V05.40 + sdld,  page 86.
Hexadecimal  [32-Bits]

Area                                    Addr        Size        Decimal Bytes (Attributes)
--------------------------------        ----        ----        ------- ----- ------------
_CODE_25                            00194000    00003FFE =       16382. bytes (REL,CON)

      Value  Global                              Global Defined In Module
      -----  --------------------------------   ------------------------
     00195562  GBVM$scene_44_init$02add14e_8425   scene_44_init
     00195566  GBVM$scene_44_init$8fe836e4_b8c5   scene_44_init
     0019556B  GBVM$scene_44_init$856dc16d_ebb2   scene_44_init
     00195570  GBVM$scene_44_init$9ff38b51_7fa5   scene_44_init
     00195578  GBVM$scene_44_init$autofade$c199   scene_44_init
     00195583  GBVM$scene_44_init$7915cfb4_8585   scene_44_init
     0019558F  GBVM$scene_44_init$54a66bb8_8891   scene_44_init
     001955C2  _scene_5_init                      scene_5_init
     001955C5  GBVM$scene_5_init$a8105361_c166_   scene_5_init
     001955C9  GBVM$scene_5_init$dc680acd_7ea0_   scene_5_init
     001955DA  GBVM$scene_5_init$37504665_874b_   scene_5_init
     001955DC  GBVM$scene_5_init$b37a7794_a2a0_   scene_5_init
     001955DE  GBVM$scene_5_init$5e851469_b299_   scene_5_init
     001955E3  GBVM$scene_5_init$ec8df24c_14b8_   scene_5_init
     001955E8  GBVM$scene_5_init$autofade$c31a4   scene_5_init
     001955F3  GBVM$scene_5_init$f2335086_c3fd_   scene_5_init
     001955FF  GBVM$scene_5_init$fcbdaad4_0531_   scene_5_init
     00195608  GBVM$scene_5_init$829a2fec_6456_   scene_5_init
     0019563D  GBVM$scene_5_init$1a3f5cde_8dca_   scene_5_init
     0019566F  GBVM_END$scene_5_init$fcbdaad4_0   scene_5_init
     00195670  _scene_7_init                      scene_7_init
     00195673  GBVM$scene_7_init$88baac6f_8e4b_   scene_7_init
     0019567D  GBVM$scene_7_init$457cbfa6_ddf3_   scene_7_init
     00195681  GBVM$scene_7_init$557f13fb_060f_   scene_7_init
     00195686  GBVM$scene_7_init$eb3fc754_b4af_   scene_7_init
     0019568B  GBVM$scene_7_init$autofade$32df3   scene_7_init
     00195696  GBVM$scene_7_init$4a83c638_7847_   scene_7_init
     001956A2  GBVM$scene_7_init$8cc59b72_e1c9_   scene_7_init
     001956AB  GBVM$scene_7_init$5bc2f76d_7f08_   scene_7_init
     001956E0  GBVM$scene_7_init$34c7350c_1f80_   scene_7_init
     00195712  GBVM_END$scene_7_init$8cc59b72_e   scene_7_init
     00195713  _scene_8_init                      scene_8_init
     00195716  GBVM$scene_8_init$bf4d0855_2264_   scene_8_init
     0019571C  GBVM$scene_8_init$12347f9f_b917_   scene_8_init
     00195726  GBVM$scene_8_init$48b0c2bd_e0e7_   scene_8_init
     0019572B  GBVM$scene_8_init$autofade$34630   scene_8_init
     00195736  GBVM$scene_8_init$fccaa3f1_c9be_   scene_8_init
     00195742  GBVM$scene_8_init$418af4ee_81e2_   scene_8_init
     00195775  _scene_9_init                      scene_9_init
     00195778  GBVM$scene_9_init$ef26e384_45fd_   scene_9_init
     0019577E  GBVM$scene_9_init$e1378f4a_0df7_   scene_9_init
     00195788  GBVM$scene_9_init$c337845b_55fc_   scene_9_init
     0019578D  GBVM$scene_9_init$autofade$4f244   scene_9_init
     00195798  GBVM$scene_9_init$49fa4e3a_10b1_   scene_9_init
     001957A4  GBVM$scene_9_init$106ad8e0_26be_   scene_9_init
     001957D7  _script_input_1                    script_input_1
     001957D9  GBVM$script_input_1$c6ef60ff_605   script_input_1
     001957E2  GBVM$script_input_1$f525e263_ba2   script_input_1
     001957EA  GBVM$script_input_1$1412b867_c68   script_input_1
     001957EF  GBVM$script_input_1$b290f2ef_184   script_input_1
     001957F4  GBVM$script_input_1$f115560e_900   script_input_1
ASxxxx Linker V03.00/V05.40 + sdld,  page 87.
Hexadecimal  [32-Bits]

Area                                    Addr        Size        Decimal Bytes (Attributes)
--------------------------------        ----        ----        ------- ----- ------------
_CODE_25                            00194000    00003FFE =       16382. bytes (REL,CON)

      Value  Global                              Global Defined In Module
      -----  --------------------------------   ------------------------
     00195803  GBVM$script_input_1$68ef32c2_cb3   script_input_1
     0019580C  GBVM$script_input_1$22ba9704_e30   script_input_1
     00195812  GBVM$script_input_1$1e2a6443_64b   script_input_1
     0019581A  GBVM_END$script_input_1$1e2a6443   script_input_1
     0019581D  GBVM$script_input_1$c629b899_b64   script_input_1
     00195845  GBVM_END$script_input_1$c6ef60ff   script_input_1
     00195846  GBVM$script_input_104$6929f226_e   script_input_104
     00195846  _script_input_104                  script_input_104
     001958E4  GBVM$script_input_12$7b4d93a6_98   script_input_12
     001958E4  _script_input_12                   script_input_12
     00195934  _script_input_18                   script_input_18
     00195936  GBVM$script_input_18$b150b6b8_62   script_input_18
     0019593F  GBVM$script_input_18$cd4aa9cc_3c   script_input_18
     00195974  GBVM$script_input_18$497c0c86_68   script_input_18
     001959A6  GBVM_END$script_input_18$b150b6b   script_input_18
     001959A7  GBVM$script_input_25$12afb314_47   script_input_25
     001959A7  _script_input_25                   script_input_25
     00195A11  GBVM$script_input_26$98d66b12_09   script_input_26
     00195A11  _script_input_26                   script_input_26
     00195A63  GBVM$script_input_26$cb5409d5_1f   script_input_26
     00195A6B  GBVM_END$script_input_26$cb5409d   script_input_26
     00195A6C  GBVM$script_input_27$2a8a0441_c9   script_input_27
     00195A6C  _script_input_27                   script_input_27
     00195A78  GBVM$script_input_27$d14f3b6d_61   script_input_27
     00195A84  GBVM$script_input_27$6ca33971_d3   script_input_27
     00195AEA  GBVM_END$script_input_27$2a8a044   script_input_27
     00195AEA  GBVM_END$script_input_27$d14f3b6   script_input_27
     00195AEB  _script_input_30                   script_input_30
     00195AED  GBVM$script_input_30$ac15d3b1_cd   script_input_30
     00195AF6  GBVM$script_input_30$0e39b911_43   script_input_30
     00195B2B  GBVM$script_input_30$99f9ca73_c8   script_input_30
     00195B5D  GBVM_END$script_input_30$ac15d3b   script_input_30
     00195B5E  _script_input_4                    script_input_4
     00195B60  GBVM$script_input_4$e343eced_705   script_input_4
     00195B69  GBVM$script_input_4$e779cdd0_45a   script_input_4
     00195B9E  GBVM$script_input_4$7009dc9d_59f   script_input_4
     00195BD0  GBVM_END$script_input_4$e343eced   script_input_4
     00195BD1  _script_input_40                   script_input_40
     00195BD3  GBVM$script_input_40$c7694b21_82   script_input_40
     00195BDE  GBVM$script_input_40$71295f1f_99   script_input_40
     00195BF0  GBVM$script_input_40$5fd96d7f_e9   script_input_40
     00195BF5  GBVM$script_input_40$b991efd9_11   script_input_40
     00195C0A  GBVM$script_input_40$8f6ab2b6_da   script_input_40
     00195C15  GBVM$script_input_40$6b5e0089_3b   script_input_40
     00195C27  GBVM_END$script_input_40$71295f1   script_input_40
     00195C28  _script_input_42                   script_input_42
     00195C2A  GBVM$script_input_42$da4b25f8_e2   script_input_42
     00195C2F  GBVM$script_input_42$caabe8c8_33   script_input_42
     00195C34  GBVM$script_input_42$18a9dfa6_f7   script_input_42
     00195C39  GBVM$script_input_42$ef782c12_68   script_input_42
     00195C42  GBVM$script_input_42$4184f7c0_e3   script_input_42
ASxxxx Linker V03.00/V05.40 + sdld,  page 88.
Hexadecimal  [32-Bits]

Area                                    Addr        Size        Decimal Bytes (Attributes)
--------------------------------        ----        ----        ------- ----- ------------
_CODE_25                            00194000    00003FFE =       16382. bytes (REL,CON)

      Value  Global                              Global Defined In Module
      -----  --------------------------------   ------------------------
     00195C77  GBVM$script_input_42$8db45993_b3   script_input_42
     00195CA9  GBVM_END$script_input_42$ef782c1   script_input_42
     00195CAA  _script_input_49                   script_input_49
     00195CAC  GBVM$script_input_49$e3a6c83c_c7   script_input_49
     00195CB5  GBVM$script_input_49$ec361706_ba   script_input_49
     00195CEA  GBVM$script_input_49$46920f05_c1   script_input_49
     00195D1C  GBVM_END$script_input_49$e3a6c83   script_input_49
     00195D1D  _script_input_58                   script_input_58
     00195D1F  GBVM$script_input_58$589c1fd3_a5   script_input_58
     00195D28  GBVM$script_input_58$794787ff_f5   script_input_58
     00195D5D  GBVM$script_input_58$9faf6980_66   script_input_58
     00195D8F  GBVM_END$script_input_58$589c1fd   script_input_58
     00195D90  _script_input_6                    script_input_6
     00195D92  GBVM$script_input_6$3b5a72ba_8be   script_input_6
     00195D9B  GBVM$script_input_6$cdf4a1c0_160   script_input_6
     00195DD0  GBVM$script_input_6$32e44d1b_3eb   script_input_6
     00195E02  GBVM_END$script_input_6$3b5a72ba   script_input_6
     00195E03  _script_input_60                   script_input_60
     00195E05  GBVM$script_input_60$7c2bbc65_e1   script_input_60
     00195E0A  GBVM$script_input_60$aee53368_bd   script_input_60
     00195E12  GBVM$script_input_60$5ad73040_b4   script_input_60
     00195E4B  GBVM$script_input_60$154595df_89   script_input_60
     00195E53  GBVM$script_input_60$d1746138_ae   script_input_60
     00195E86  _script_input_65                   script_input_65
     00195E88  GBVM$script_input_65$23982520_45   script_input_65
     00195E90  GBVM$script_input_65$f84d1ace_11   script_input_65
     00195E95  GBVM$script_input_65$ce351f37_e9   script_input_65
     00195ECE  GBVM$script_input_65$b542800a_46   script_input_65
     00195F01  GBVM$script_input_70$d821976a_73   script_input_70
     00195F01  _script_input_70                   script_input_70
     00195F55  GBVM$script_input_8$df1c4e00_86b   script_input_8
     00195F55  _script_input_8                    script_input_8
     00195FF3  _script_input_9                    script_input_9
     00195FF5  GBVM$script_input_9$e1ac206c_2f4   script_input_9
     00195FFE  GBVM$script_input_9$8f717f43_bf2   script_input_9
     00196006  GBVM_END$script_input_9$8f717f43   script_input_9
     00196009  GBVM$script_input_9$38982a96_910   script_input_9
     0019600E  GBVM$script_input_9$9b5055d1_8b2   script_input_9
     00196013  GBVM$script_input_9$895e72ee_665   script_input_9
     001960AE  GBVM$script_input_9$bd05f820_bd0   script_input_9
     001960B8  GBVM$script_input_9$b67300f0_01e   script_input_9
     001960C7  GBVM$script_input_9$13db9a38_eda   script_input_9
     001960CF  GBVM_END$script_input_9$13db9a38   script_input_9
     001960CF  GBVM_END$script_input_9$e1ac206c   script_input_9
     001960D0  _script_input_96                   script_input_96
     001960D2  GBVM$script_input_96$6ff3b44d_c6   script_input_96
     001960D2  GBVM$script_input_96$f4a4fc3b_6b   script_input_96
     001960D7  GBVM$script_input_96$5af216c2_6a   script_input_96
     001960DC  GBVM$script_input_96$2a7bbd77_43   script_input_96
     001960E1  GBVM$script_input_96$761aa899_c7   script_input_96
     001960E6  GBVM$script_input_96$ee8ffd5f_87   script_input_96
ASxxxx Linker V03.00/V05.40 + sdld,  page 89.
Hexadecimal  [32-Bits]

Area                                    Addr        Size        Decimal Bytes (Attributes)
--------------------------------        ----        ----        ------- ----- ------------
_CODE_25                            00194000    00003FFE =       16382. bytes (REL,CON)

      Value  Global                              Global Defined In Module
      -----  --------------------------------   ------------------------
     001960EB  GBVM$script_input_96$8fe6f547_fd   script_input_96
     001960F0  GBVM$script_input_96$3e5237d3_3c   script_input_96
     001960F5  GBVM$script_input_96$fa6c787c_54   script_input_96
     001960FA  GBVM$script_input_96$37637b08_86   script_input_96
     001960FF  GBVM$script_input_96$3a8a78ec_c2   script_input_96
     00196104  GBVM$script_input_96$7938e042_43   script_input_96
     00196136  GBVM$script_input_96$133cc197_95   script_input_96
     00196136  GBVM_END$script_input_96$f4a4fc3   script_input_96
     00196169  _script_timer_1                    script_timer_1
     0019616B  GBVM$script_timer_1$42f30966_794   script_timer_1
     00196185  GBVM$script_timer_1$ccd517fe_5c5   script_timer_1
     00196187  GBVM$script_timer_1$384709b8_eed   script_timer_1
     00196196  GBVM$script_timer_1$f4600d51_320   script_timer_1
     001961A2  GBVM$script_timer_1$db55d3ac_0f9   script_timer_1
     001961A8  GBVM$script_timer_1$94c17e59_32f   script_timer_1
     001961B7  GBVM$script_timer_1$be041bc0_89b   script_timer_1
     001961D0  GBVM$script_timer_1$97ca57cb_a12   script_timer_1
     001961D2  GBVM_END$script_timer_1$42f30966   script_timer_1
     001961D3  _script_timer_17                   script_timer_17
     001961D5  GBVM$script_timer_17$17c9389a_ae   script_timer_17
     001961EF  GBVM$script_timer_17$eef5ad86_5f   script_timer_17
     001961F4  GBVM$script_timer_17$b3dccee8_43   script_timer_17
     001961F9  GBVM$script_timer_17$872c8906_e4   script_timer_17
     001961FF  GBVM$script_timer_17$85268e05_fd   script_timer_17
     00196207  GBVM$script_timer_17$967f96d0_c6   script_timer_17
     00196239  GBVM_END$script_timer_17$17c9389   script_timer_17
     0019623A  _script_timer_2                    script_timer_2
     0019623C  GBVM$script_timer_2$f3d1fa9a_964   script_timer_2
     00196259  GBVM$script_timer_2$eadc52df_da1   script_timer_2
     0019626B  GBVM$script_timer_2$79a749f3_ccb   script_timer_2
     00196276  GBVM$script_timer_2$a2d572b7_223   script_timer_2
     0019627B  GBVM$script_timer_2$f796e190_550   script_timer_2
     00196280  GBVM$script_timer_2$1c8e2b02_051   script_timer_2
     00196282  GBVM_END$script_timer_2$eadc52df   script_timer_2
     00196282  GBVM_END$script_timer_2$f3d1fa9a   script_timer_2
     00196283  _script_timer_62                   script_timer_62
     00196285  GBVM$script_timer_62$372bc332_12   script_timer_62
     0019629F  GBVM$script_timer_62$50e6f999_88   script_timer_62
     001962A4  GBVM$script_timer_62$ff1fa295_c1   script_timer_62
     001962A9  GBVM$script_timer_62$cac43684_fa   script_timer_62
     001962AF  GBVM$script_timer_62$087949b6_81   script_timer_62
     001962B7  GBVM$script_timer_62$9b29b9a2_b7   script_timer_62
     001962E9  GBVM_END$script_timer_62$372bc33   script_timer_62
     001962EA  _script_timer_71                   script_timer_71
     001962EC  GBVM$script_timer_71$ab4b65f1_cf   script_timer_71
     00196309  GBVM$script_timer_71$1e404d9d_f1   script_timer_71
     0019631E  GBVM$script_timer_71$af07fb52_fe   script_timer_71
     00196326  GBVM$script_timer_71$b97dadc9_fc   script_timer_71
     00196330  GBVM$script_timer_71$a1fcaecd_16   script_timer_71
     0019633A  GBVM$script_timer_71$309d8df7_dd   script_timer_71
     00196342  GBVM$script_timer_71$573e6909_aa   script_timer_71
ASxxxx Linker V03.00/V05.40 + sdld,  page 90.
Hexadecimal  [32-Bits]

Area                                    Addr        Size        Decimal Bytes (Attributes)
--------------------------------        ----        ----        ------- ----- ------------
_CODE_25                            00194000    00003FFE =       16382. bytes (REL,CON)

      Value  Global                              Global Defined In Module
      -----  --------------------------------   ------------------------
     0019634D  GBVM$script_timer_71$061e116e_65   script_timer_71
     00196355  GBVM$script_timer_71$308a0c99_8c   script_timer_71
     00196355  GBVM_END$script_timer_71$1e404d9   script_timer_71
     00196360  GBVM$script_timer_71$09460b35_c9   script_timer_71
     00196372  GBVM$script_timer_71$dcddb49f_fd   script_timer_71
     00196374  GBVM_END$script_timer_71$ab4b65f   script_timer_71
     00196375  _script_timer                      script_timer
     00196377  GBVM$script_timer$6d63c650_092e_   script_timer
     00196391  GBVM$script_timer$42749b56_bf9d_   script_timer
     00196393  GBVM$script_timer$d8dd04c4_7cc0_   script_timer
     0019639B  GBVM$script_timer$c5dc574b_51af_   script_timer
     001963A0  GBVM$script_timer$ad33302b_e4df_   script_timer
     001963A5  GBVM$script_timer$6bd0b76d_5d8a_   script_timer
     001963B4  GBVM$script_timer$9e041fae_cd18_   script_timer
     001963C0  GBVM$script_timer$2502c108_8ec0_   script_timer
     001963C9  GBVM$script_timer$b8a33e4d_def3_   script_timer
     001963CF  GBVM$script_timer$d1c8a391_5424_   script_timer
     001963DE  GBVM$script_timer$154f8489_1770_   script_timer
     001963F7  GBVM$script_timer$e8fbb676_718c_   script_timer
     001963FC  GBVM$script_timer$7e23e191_8737_   script_timer
     00196424  GBVM_END$script_timer$2502c108_8   script_timer
     00196424  GBVM_END$script_timer$6d63c650_0   script_timer
     00196425  ___func_sprite_boombar_bank2_til   sprite_boombar_bank2_tileset
     00196425  _sprite_boombar_bank2_tileset      sprite_boombar_bank2_tileset
     001964E7  ___func_sprite_breakbar_bank2_ti   sprite_breakbar_bank2_tilese
     001964E7  _sprite_breakbar_bank2_tileset     sprite_breakbar_bank2_tilese
     001965A9  ___func_sprite_clock               sprite_clock
     001965A9  _sprite_clock_metasprite_0         sprite_clock
     001965B5  _sprite_clock_metasprite_1         sprite_clock
     001965C1  _sprite_clock_metasprite_2         sprite_clock
     001965CD  _sprite_clock_metasprite_3         sprite_clock
     001965D9  _sprite_clock_metasprites          sprite_clock
     001965E1  _sprite_clock_animations           sprite_clock
     001965F1  _sprite_clock_animations_lookup    sprite_clock
     001965F3  _sprite_clock                      sprite_clock
     00196606  ___func_sprite_energy_bars_stres   sprite_energy_bars_stress
     00196606  _sprite_energy_bars_stress_metas   sprite_energy_bars_stress
     00196632  _sprite_energy_bars_stress_metas   sprite_energy_bars_stress
     0019665E  _sprite_energy_bars_stress_metas   sprite_energy_bars_stress
     00196662  _sprite_energy_bars_stress_anima   sprite_energy_bars_stress
     00196672  _sprite_energy_bars_stress_anima   sprite_energy_bars_stress
     00196674  _sprite_energy_bars_stress         sprite_energy_bars_stress
     00196687  ___func_sprite_eyes                sprite_eyes
     00196687  _sprite_eyes_metasprite_0          sprite_eyes
     0019668F  _sprite_eyes_metasprite_1          sprite_eyes
     00196697  _sprite_eyes_metasprite_2          sprite_eyes
     0019669F  _sprite_eyes_metasprite_3          sprite_eyes
     001966A7  _sprite_eyes_metasprites           sprite_eyes
     001966AF  _sprite_eyes_animations            sprite_eyes
     001966BF  _sprite_eyes_animations_lookup     sprite_eyes
     001966C1  _sprite_eyes                       sprite_eyes
ASxxxx Linker V03.00/V05.40 + sdld,  page 91.
Hexadecimal  [32-Bits]

Area                                    Addr        Size        Decimal Bytes (Attributes)
--------------------------------        ----        ----        ------- ----- ------------
_CODE_25                            00194000    00003FFE =       16382. bytes (REL,CON)

      Value  Global                              Global Defined In Module
      -----  --------------------------------   ------------------------
     001966D4  ___func_sprite_final_glass_bank2   sprite_final_glass_bank2_til
     001966D4  _sprite_final_glass_bank2_tilese   sprite_final_glass_bank2_til
     00196776  ___func_sprite_final_glass_tiles   sprite_final_glass_tileset
     00196776  _sprite_final_glass_tileset        sprite_final_glass_tileset
     00196818  ___func_sprite_final_glass         sprite_final_glass
     00196818  _sprite_final_glass_metasprite_0   sprite_final_glass
     00196828  _sprite_final_glass_metasprite_1   sprite_final_glass
     00196838  _sprite_final_glass_metasprite_2   sprite_final_glass
     00196848  _sprite_final_glass_metasprite_3   sprite_final_glass
     00196858  _sprite_final_glass_metasprites    sprite_final_glass
     00196860  _sprite_final_glass_animations     sprite_final_glass
     00196870  _sprite_final_glass_animations_l   sprite_final_glass
     00196872  _sprite_final_glass                sprite_final_glass
     00196885  ___func_sprite_fire_bank2_tilese   sprite_fire_bank2_tileset
     00196885  _sprite_fire_bank2_tileset         sprite_fire_bank2_tileset
     00196947  ___func_sprite_fire_tileset        sprite_fire_tileset
     00196947  _sprite_fire_tileset               sprite_fire_tileset
     00196A09  ___func_sprite_fire                sprite_fire
     00196A09  _sprite_fire_metasprite_0          sprite_fire
     00196A1D  _sprite_fire_metasprite_1          sprite_fire
     00196A31  _sprite_fire_metasprite_2          sprite_fire
     00196A45  _sprite_fire_metasprites           sprite_fire
     00196A4B  _sprite_fire_animations            sprite_fire
     00196A5B  _sprite_fire_animations_lookup     sprite_fire
     00196A5D  _sprite_fire                       sprite_fire
     00196A70  ___func_sprite_get_key_tileset     sprite_get_key_tileset
     00196A70  _sprite_get_key_tileset            sprite_get_key_tileset
     00196AD2  ___func_sprite_get_key             sprite_get_key
     00196AD2  _sprite_get_key_metasprite_0       sprite_get_key
     00196AE2  _sprite_get_key_metasprite_1       sprite_get_key
     00196AFA  _sprite_get_key_metasprites        sprite_get_key
     00196AFE  _sprite_get_key_animations         sprite_get_key
     00196B0E  _sprite_get_key_animations_looku   sprite_get_key
     00196B10  _sprite_get_key                    sprite_get_key
     00196B23  ___func_sprite_hearts              sprite_hearts
     00196B23  _sprite_hearts_metasprite_0        sprite_hearts
     00196B33  _sprite_hearts_metasprite_1        sprite_hearts
     00196B43  _sprite_hearts_metasprite_2        sprite_hearts
     00196B53  _sprite_hearts_metasprite_3        sprite_hearts
     00196B63  _sprite_hearts_metasprites         sprite_hearts
     00196B6B  _sprite_hearts_animations          sprite_hearts
     00196B7B  _sprite_hearts_animations_lookup   sprite_hearts
     00196B7D  _sprite_hearts                     sprite_hearts
     00196B90  ___func_sprite_jo_bot              sprite_jo_bot
     00196B90  _sprite_jo_bot_metasprite_0        sprite_jo_bot
     00196BA0  _sprite_jo_bot_metasprite_1        sprite_jo_bot
     00196BB0  _sprite_jo_bot_metasprite_2        sprite_jo_bot
     00196BB4  _sprite_jo_bot_metasprite_3        sprite_jo_bot
     00196BC4  _sprite_jo_bot_metasprite_4        sprite_jo_bot
     00196BD4  _sprite_jo_bot_metasprites         sprite_jo_bot
     00196BDE  _sprite_jo_bot_animations          sprite_jo_bot
ASxxxx Linker V03.00/V05.40 + sdld,  page 92.
Hexadecimal  [32-Bits]

Area                                    Addr        Size        Decimal Bytes (Attributes)
--------------------------------        ----        ----        ------- ----- ------------
_CODE_25                            00194000    00003FFE =       16382. bytes (REL,CON)

      Value  Global                              Global Defined In Module
      -----  --------------------------------   ------------------------
     00196BEE  _sprite_jo_bot_animations_lookup   sprite_jo_bot
     00196BF0  _sprite_jo_bot                     sprite_jo_bot
     00196C03  ___func_sprite_locker_dot          sprite_locker_dot
     00196C03  _sprite_locker_dot_metasprite_0    sprite_locker_dot
     00196C0B  _sprite_locker_dot_metasprite_1    sprite_locker_dot
     00196C13  _sprite_locker_dot_metasprites     sprite_locker_dot
     00196C17  _sprite_locker_dot_animations      sprite_locker_dot
     00196C37  _sprite_locker_dot_animations_lo   sprite_locker_dot
     00196C6D  _sprite_locker_dot                 sprite_locker_dot
     00196C80  ___func_sprite_press_start_bank2   sprite_press_start_bank2_til
     00196C80  _sprite_press_start_bank2_tilese   sprite_press_start_bank2_til
     00196CE2  ___func_sprite_press_start_tiles   sprite_press_start_tileset
     00196CE2  _sprite_press_start_tileset        sprite_press_start_tileset
     00196D44  ___func_sprite_push_to_start_ban   sprite_push_to_start_bank2_t
     00196D44  _sprite_push_to_start_bank2_tile   sprite_push_to_start_bank2_t
     00196DC6  ___func_sprite_push_to_start_til   sprite_push_to_start_tileset
     00196DC6  _sprite_push_to_start_tileset      sprite_push_to_start_tileset
     00196E48  ___func_sprite_push_to_start       sprite_push_to_start
     00196E48  _sprite_push_to_start_metasprite   sprite_push_to_start
     00196E70  _sprite_push_to_start_metasprite   sprite_push_to_start
     00196E98  _sprite_push_to_start_metasprite   sprite_push_to_start
     00196E9C  _sprite_push_to_start_animations   sprite_push_to_start
     00196EAC  _sprite_push_to_start_animations   sprite_push_to_start
     00196EAE  _sprite_push_to_start              sprite_push_to_start
     00196EC1  ___func_sprite_secret              sprite_secret
     00196EC1  _sprite_secret_metasprite_0        sprite_secret
     00196EF9  _sprite_secret_metasprite_1        sprite_secret
     00196F31  _sprite_secret_metasprites         sprite_secret
     00196F35  _sprite_secret_animations          sprite_secret
     00196F45  _sprite_secret_animations_lookup   sprite_secret
     00196F47  _sprite_secret                     sprite_secret
     00196F5A  _trigger_0_interact                trigger_0_interact
     00196F6E  GBVM$trigger_0_interact$0c32c86f   trigger_0_interact
     00196F78  GBVM$trigger_0_interact$936e313a   trigger_0_interact
     00196F80  GBVM_END$trigger_0_interact$936e   trigger_0_interact
     00196F92  GBVM$trigger_0_interact$a0072386   trigger_0_interact
     00196F9C  GBVM$trigger_0_interact$893b3f92   trigger_0_interact
     00196FA4  GBVM_END$trigger_0_interact$893b   trigger_0_interact
     00196FA6  _trigger_1_interact                trigger_1_interact
     00196FBA  GBVM$trigger_1_interact$49d22a9e   trigger_1_interact
     00196FC4  GBVM$trigger_1_interact$ff4f1b55   trigger_1_interact
     00196FCC  GBVM_END$trigger_1_interact$ff4f   trigger_1_interact
     00196FDE  GBVM$trigger_1_interact$2b7a74e4   trigger_1_interact
     00196FE8  GBVM$trigger_1_interact$9eccdde8   trigger_1_interact
     00196FF0  GBVM_END$trigger_1_interact$9ecc   trigger_1_interact
     00196FF2  _trigger_2_interact                trigger_2_interact
     00197006  GBVM$trigger_2_interact$dcd32f48   trigger_2_interact
     00197010  GBVM$trigger_2_interact$f118ff7e   trigger_2_interact
     00197018  GBVM_END$trigger_2_interact$f118   trigger_2_interact
     0019702A  GBVM$trigger_2_interact$43c1afcc   trigger_2_interact
     00197034  GBVM$trigger_2_interact$1e9eeea0   trigger_2_interact
ASxxxx Linker V03.00/V05.40 + sdld,  page 93.
Hexadecimal  [32-Bits]

Area                                    Addr        Size        Decimal Bytes (Attributes)
--------------------------------        ----        ----        ------- ----- ------------
_CODE_25                            00194000    00003FFE =       16382. bytes (REL,CON)

      Value  Global                              Global Defined In Module
      -----  --------------------------------   ------------------------
     0019703C  GBVM_END$trigger_2_interact$1e9e   trigger_2_interact
     0019703E  _trigger_25_interact               trigger_25_interact
     00197052  GBVM$trigger_25_interact$5c8ec0a   trigger_25_interact
     0019705C  GBVM$trigger_25_interact$aa25537   trigger_25_interact
     00197064  GBVM_END$trigger_25_interact$aa2   trigger_25_interact
     00197076  GBVM$trigger_25_interact$87c84ac   trigger_25_interact
     00197080  GBVM$trigger_25_interact$5276548   trigger_25_interact
     00197088  GBVM_END$trigger_25_interact$527   trigger_25_interact
     0019708A  _trigger_29_interact               trigger_29_interact
     0019708D  GBVM$trigger_29_interact$73cc1b0   trigger_29_interact
     00197099  GBVM$trigger_29_interact$7760f78   trigger_29_interact
     001970A3  GBVM$trigger_29_interact$57f1b38   trigger_29_interact
     001970A8  GBVM$trigger_29_interact$f975579   trigger_29_interact
     0019710E  GBVM_END$trigger_29_interact$73c   trigger_29_interact
     0019710F  _trigger_30_interact               trigger_30_interact
     00197112  GBVM$trigger_30_interact$6f2b525   trigger_30_interact
     0019711E  GBVM$trigger_30_interact$5807aa7   trigger_30_interact
     00197128  GBVM$trigger_30_interact$5646d72   trigger_30_interact
     0019712D  GBVM$trigger_30_interact$5c19f7e   trigger_30_interact
     00197193  GBVM_END$trigger_30_interact$6f2   trigger_30_interact
     00197194  _trigger_32_interact               trigger_32_interact
     001971A8  GBVM$trigger_32_interact$339eb8b   trigger_32_interact
     001971B1  GBVM$trigger_32_interact$3e0bee1   trigger_32_interact
     001971C0  GBVM$trigger_32_interact$9828d2e   trigger_32_interact
     001971CD  GBVM$trigger_32_interact$089f51a   trigger_32_interact
     001971D6  GBVM$trigger_32_interact$4c0720c   trigger_32_interact
     001971E5  GBVM$trigger_32_interact$812e38d   trigger_32_interact
     001971F2  GBVM$trigger_32_interact$b2cbade   trigger_32_interact
     00197201  GBVM$trigger_32_interact$98e79ae   trigger_32_interact
     0019720B  GBVM$trigger_32_interact$68d8e85   trigger_32_interact
     0019720B  GBVM_END$trigger_32_interact$089   trigger_32_interact
     0019720B  GBVM_END$trigger_32_interact$339   trigger_32_interact
     00197213  GBVM_END$trigger_32_interact$68d   trigger_32_interact
     00197225  GBVM$trigger_32_interact$9e2f280   trigger_32_interact
     0019722F  GBVM$trigger_32_interact$c98b530   trigger_32_interact
     00197237  GBVM_END$trigger_32_interact$c98   trigger_32_interact
     00197239  _trigger_33_interact               trigger_33_interact
     0019724D  GBVM$trigger_33_interact$3ab39d1   trigger_33_interact
     00197257  GBVM$trigger_33_interact$38d7992   trigger_33_interact
     0019725F  GBVM_END$trigger_33_interact$38d   trigger_33_interact
     00197271  GBVM$trigger_33_interact$2e2f4b9   trigger_33_interact
     0019727B  GBVM$trigger_33_interact$ae8b8cf   trigger_33_interact
     00197283  GBVM_END$trigger_33_interact$ae8   trigger_33_interact
     00197285  _trigger_34_interact               trigger_34_interact
     00197299  GBVM$trigger_34_interact$dd6959b   trigger_34_interact
     001972A3  GBVM$trigger_34_interact$d847c28   trigger_34_interact
     001972AB  GBVM_END$trigger_34_interact$d84   trigger_34_interact
     001972BD  GBVM$trigger_34_interact$008b304   trigger_34_interact
     001972C7  GBVM$trigger_34_interact$6a0623c   trigger_34_interact
     001972CF  GBVM_END$trigger_34_interact$6a0   trigger_34_interact
     001972D1  _trigger_35_interact               trigger_35_interact
ASxxxx Linker V03.00/V05.40 + sdld,  page 94.
Hexadecimal  [32-Bits]

Area                                    Addr        Size        Decimal Bytes (Attributes)
--------------------------------        ----        ----        ------- ----- ------------
_CODE_25                            00194000    00003FFE =       16382. bytes (REL,CON)

      Value  Global                              Global Defined In Module
      -----  --------------------------------   ------------------------
     001972E5  GBVM$trigger_35_interact$4510cb5   trigger_35_interact
     001972EF  GBVM$trigger_35_interact$94eb7fd   trigger_35_interact
     001972F7  GBVM_END$trigger_35_interact$94e   trigger_35_interact
     00197309  GBVM$trigger_35_interact$e634673   trigger_35_interact
     00197313  GBVM$trigger_35_interact$6ad9776   trigger_35_interact
     0019731B  GBVM_END$trigger_35_interact$6ad   trigger_35_interact
     0019731D  _trigger_36_interact               trigger_36_interact
     00197331  GBVM$trigger_36_interact$696bf08   trigger_36_interact
     0019733D  GBVM$trigger_36_interact$6c7f94e   trigger_36_interact
     00197347  GBVM$trigger_36_interact$bca122a   trigger_36_interact
     0019734F  GBVM$trigger_36_interact$c27f1ac   trigger_36_interact
     00197357  GBVM_END$trigger_36_interact$696   trigger_36_interact
     00197357  GBVM_END$trigger_36_interact$c27   trigger_36_interact
     00197369  GBVM$trigger_36_interact$db17387   trigger_36_interact
     00197375  GBVM$trigger_36_interact$d4e988a   trigger_36_interact
     0019737F  GBVM$trigger_36_interact$365d85f   trigger_36_interact
     0019737F  GBVM_END$trigger_36_interact$db1   trigger_36_interact
     0019738B  GBVM$trigger_36_interact$7eaf376   trigger_36_interact
     00197395  GBVM$trigger_36_interact$56cbf69   trigger_36_interact
     0019739D  GBVM$trigger_36_interact$c63d3a0   trigger_36_interact
     0019739D  GBVM_END$trigger_36_interact$365   trigger_36_interact
     001973A5  GBVM_END$trigger_36_interact$c63   trigger_36_interact
     001973A7  _trigger_37_interact               trigger_37_interact
     001973BB  GBVM$trigger_37_interact$d70f522   trigger_37_interact
     001973C4  GBVM$trigger_37_interact$72e9bbd   trigger_37_interact
     001973CE  GBVM$trigger_37_interact$77601cb   trigger_37_interact
     001973D6  GBVM_END$trigger_37_interact$776   trigger_37_interact
     001973D9  GBVM$trigger_37_interact$48cbf27   trigger_37_interact
     001973E2  GBVM$trigger_37_interact$73a2875   trigger_37_interact
     001973EF  GBVM$trigger_37_interact$1a73a93   trigger_37_interact
     001973FE  GBVM$trigger_37_interact$acd0ad7   trigger_37_interact
     00197408  GBVM$trigger_37_interact$5685106   trigger_37_interact
     00197410  GBVM$trigger_37_interact$f6a9584   trigger_37_interact
     00197410  GBVM_END$trigger_37_interact$48c   trigger_37_interact
     00197410  GBVM_END$trigger_37_interact$568   trigger_37_interact
     00197410  GBVM_END$trigger_37_interact$d70   trigger_37_interact
     0019741C  GBVM$trigger_37_interact$e0e2891   trigger_37_interact
     00197424  GBVM_END$trigger_37_interact$e0e   trigger_37_interact
     00197424  GBVM_END$trigger_37_interact$f6a   trigger_37_interact
     00197436  GBVM$trigger_37_interact$c98366a   trigger_37_interact
     00197440  GBVM$trigger_37_interact$99e7e4c   trigger_37_interact
     00197448  GBVM_END$trigger_37_interact$99e   trigger_37_interact
     0019744A  _trigger_39_interact               trigger_39_interact
     0019744D  GBVM$trigger_39_interact$5bb8740   trigger_39_interact
     00197456  GBVM$trigger_39_interact$0a84bff   trigger_39_interact
     0019748B  GBVM$trigger_39_interact$e7b75f4   trigger_39_interact
     001974BD  GBVM_END$trigger_39_interact$5bb   trigger_39_interact
     001974BE  _trigger_4_interact                trigger_4_interact
     001974D2  GBVM$trigger_4_interact$e17c9546   trigger_4_interact
     001974DC  GBVM$trigger_4_interact$3d1a1cab   trigger_4_interact
     001974E4  GBVM_END$trigger_4_interact$3d1a   trigger_4_interact
ASxxxx Linker V03.00/V05.40 + sdld,  page 95.
Hexadecimal  [32-Bits]

Area                                    Addr        Size        Decimal Bytes (Attributes)
--------------------------------        ----        ----        ------- ----- ------------
_CODE_25                            00194000    00003FFE =       16382. bytes (REL,CON)

      Value  Global                              Global Defined In Module
      -----  --------------------------------   ------------------------
     001974F6  GBVM$trigger_4_interact$2607b3f4   trigger_4_interact
     00197500  GBVM$trigger_4_interact$dbb599b4   trigger_4_interact
     00197508  GBVM_END$trigger_4_interact$dbb5   trigger_4_interact
     0019750A  _trigger_40_interact               trigger_40_interact
     0019751E  GBVM$trigger_40_interact$e7bfe41   trigger_40_interact
     0019752A  GBVM$trigger_40_interact$d9e6e04   trigger_40_interact
     00197534  GBVM$trigger_40_interact$3dd0915   trigger_40_interact
     00197534  GBVM_END$trigger_40_interact$e7b   trigger_40_interact
     00197540  GBVM$trigger_40_interact$9b39946   trigger_40_interact
     0019754A  GBVM$trigger_40_interact$c416710   trigger_40_interact
     00197552  GBVM$trigger_40_interact$cb2062a   trigger_40_interact
     0019755A  GBVM_END$trigger_40_interact$3dd   trigger_40_interact
     0019755A  GBVM_END$trigger_40_interact$cb2   trigger_40_interact
     0019756C  GBVM$trigger_40_interact$b333c64   trigger_40_interact
     00197574  GBVM$trigger_40_interact$80524e4   trigger_40_interact
     00197574  GBVM_END$trigger_40_interact$b33   trigger_40_interact
     00197580  GBVM$trigger_40_interact$504edc2   trigger_40_interact
     0019758A  GBVM$trigger_40_interact$05294e9   trigger_40_interact
     00197592  GBVM_END$trigger_40_interact$805   trigger_40_interact
     00197594  _trigger_42_interact               trigger_42_interact
     001975A8  GBVM$trigger_42_interact$9156210   trigger_42_interact
     001975B2  GBVM$trigger_42_interact$7d76c14   trigger_42_interact
     001975BA  GBVM_END$trigger_42_interact$7d7   trigger_42_interact
     001975CC  GBVM$trigger_42_interact$c9c8859   trigger_42_interact
     001975D6  GBVM$trigger_42_interact$a509312   trigger_42_interact
     001975DE  GBVM_END$trigger_42_interact$a50   trigger_42_interact
     001975E0  _trigger_43_interact               trigger_43_interact
     001975F4  GBVM$trigger_43_interact$53437f0   trigger_43_interact
     001975FE  GBVM$trigger_43_interact$e244355   trigger_43_interact
     00197606  GBVM_END$trigger_43_interact$e24   trigger_43_interact
     00197618  GBVM$trigger_43_interact$51f0f32   trigger_43_interact
     00197622  GBVM$trigger_43_interact$ce55dd3   trigger_43_interact
     0019762A  GBVM_END$trigger_43_interact$ce5   trigger_43_interact
     0019762C  _trigger_44_interact               trigger_44_interact
     00197640  GBVM$trigger_44_interact$97df01f   trigger_44_interact
     00197649  GBVM$trigger_44_interact$3df4d4e   trigger_44_interact
     00197653  GBVM$trigger_44_interact$0134821   trigger_44_interact
     0019765B  GBVM_END$trigger_44_interact$013   trigger_44_interact
     0019765E  GBVM$trigger_44_interact$ab95816   trigger_44_interact
     00197667  GBVM$trigger_44_interact$0983e8f   trigger_44_interact
     00197674  GBVM$trigger_44_interact$7f5b3ba   trigger_44_interact
     00197683  GBVM$trigger_44_interact$d8e8b8e   trigger_44_interact
     0019768D  GBVM$trigger_44_interact$b83dd2f   trigger_44_interact
     00197695  GBVM$trigger_44_interact$268dd08   trigger_44_interact
     00197695  GBVM_END$trigger_44_interact$97d   trigger_44_interact
     00197695  GBVM_END$trigger_44_interact$ab9   trigger_44_interact
     00197695  GBVM_END$trigger_44_interact$b83   trigger_44_interact
     001976A1  GBVM$trigger_44_interact$8f9f9c1   trigger_44_interact
     001976A9  GBVM_END$trigger_44_interact$268   trigger_44_interact
     001976A9  GBVM_END$trigger_44_interact$8f9   trigger_44_interact
     001976BB  GBVM$trigger_44_interact$898df08   trigger_44_interact
ASxxxx Linker V03.00/V05.40 + sdld,  page 96.
Hexadecimal  [32-Bits]

Area                                    Addr        Size        Decimal Bytes (Attributes)
--------------------------------        ----        ----        ------- ----- ------------
_CODE_25                            00194000    00003FFE =       16382. bytes (REL,CON)

      Value  Global                              Global Defined In Module
      -----  --------------------------------   ------------------------
     001976C5  GBVM$trigger_44_interact$c7b9306   trigger_44_interact
     001976CD  GBVM_END$trigger_44_interact$c7b   trigger_44_interact
     001976CF  _trigger_46_interact               trigger_46_interact
     001976D2  GBVM$trigger_46_interact$b7620ce   trigger_46_interact
     001976DB  GBVM$trigger_46_interact$8497839   trigger_46_interact
     00197710  GBVM$trigger_46_interact$05fc203   trigger_46_interact
     00197742  GBVM_END$trigger_46_interact$b76   trigger_46_interact
     00197743  _trigger_47_interact               trigger_47_interact
     00197746  GBVM$trigger_47_interact$371e39e   trigger_47_interact
     0019774F  GBVM$trigger_47_interact$77cfda5   trigger_47_interact
     00197784  GBVM$trigger_47_interact$d0ca6b3   trigger_47_interact
     001977B6  GBVM_END$trigger_47_interact$371   trigger_47_interact
     001977B7  _trigger_48_interact               trigger_48_interact
     001977CB  GBVM$trigger_48_interact$26b2cd1   trigger_48_interact
     001977D3  GBVM$trigger_48_interact$e43e9f7   trigger_48_interact
     001977DB  GBVM$trigger_48_interact$1112687   trigger_48_interact
     001977E5  GBVM$trigger_48_interact$6c2f012   trigger_48_interact
     001977ED  GBVM_END$trigger_48_interact$6c2   trigger_48_interact
     001977FF  GBVM$trigger_48_interact$d0a7e10   trigger_48_interact
     00197807  GBVM$trigger_48_interact$42a2a27   trigger_48_interact
     0019780F  GBVM$trigger_48_interact$daf45b6   trigger_48_interact
     00197819  GBVM$trigger_48_interact$2bee653   trigger_48_interact
     00197821  GBVM_END$trigger_48_interact$2be   trigger_48_interact
     00197823  _trigger_49_interact               trigger_49_interact
     00197837  GBVM$trigger_49_interact$92f1db5   trigger_49_interact
     00197841  GBVM$trigger_49_interact$c900cb3   trigger_49_interact
     00197849  GBVM$trigger_49_interact$4b85140   trigger_49_interact
     00197851  GBVM_END$trigger_49_interact$4b8   trigger_49_interact
     00197863  GBVM$trigger_49_interact$f3d4b4d   trigger_49_interact
     0019786D  GBVM$trigger_49_interact$be6af8b   trigger_49_interact
     00197875  GBVM$trigger_49_interact$ef2fd19   trigger_49_interact
     0019787D  GBVM_END$trigger_49_interact$ef2   trigger_49_interact
     0019787F  _trigger_5_interact                trigger_5_interact
     00197893  GBVM$trigger_5_interact$002f5d62   trigger_5_interact
     0019789C  GBVM$trigger_5_interact$d4aadf3d   trigger_5_interact
     001978AB  GBVM$trigger_5_interact$395f11f6   trigger_5_interact
     001978B8  GBVM$trigger_5_interact$9b4b0243   trigger_5_interact
     001978C1  GBVM$trigger_5_interact$4f434edb   trigger_5_interact
     001978D0  GBVM$trigger_5_interact$313ef519   trigger_5_interact
     001978DD  GBVM$trigger_5_interact$6f6e43f1   trigger_5_interact
     001978EC  GBVM$trigger_5_interact$e67cdad4   trigger_5_interact
     001978F6  GBVM$trigger_5_interact$7e30f695   trigger_5_interact
     001978F6  GBVM_END$trigger_5_interact$002f   trigger_5_interact
     001978F6  GBVM_END$trigger_5_interact$9b4b   trigger_5_interact
     001978FE  GBVM_END$trigger_5_interact$7e30   trigger_5_interact
     00197910  GBVM$trigger_5_interact$77c7c766   trigger_5_interact
     0019791A  GBVM$trigger_5_interact$05216d27   trigger_5_interact
     00197922  GBVM_END$trigger_5_interact$0521   trigger_5_interact
     00197924  _trigger_50_interact               trigger_50_interact
     00197927  GBVM$trigger_50_interact$7205c94   trigger_50_interact
     00197930  GBVM$trigger_50_interact$6e0f4a0   trigger_50_interact
ASxxxx Linker V03.00/V05.40 + sdld,  page 97.
Hexadecimal  [32-Bits]

Area                                    Addr        Size        Decimal Bytes (Attributes)
--------------------------------        ----        ----        ------- ----- ------------
_CODE_25                            00194000    00003FFE =       16382. bytes (REL,CON)

      Value  Global                              Global Defined In Module
      -----  --------------------------------   ------------------------
     00197965  GBVM$trigger_50_interact$20e86f3   trigger_50_interact
     00197997  GBVM_END$trigger_50_interact$720   trigger_50_interact
     00197998  _trigger_51_interact               trigger_51_interact
     0019799B  GBVM$trigger_51_interact$0d8c139   trigger_51_interact
     001979A4  GBVM$trigger_51_interact$bfaf05f   trigger_51_interact
     001979D9  GBVM$trigger_51_interact$24c7323   trigger_51_interact
     00197A0B  GBVM_END$trigger_51_interact$0d8   trigger_51_interact
     00197A0C  _trigger_53_interact               trigger_53_interact
     00197A0F  GBVM$trigger_53_interact$5129d6b   trigger_53_interact
     00197A1B  GBVM$trigger_53_interact$ae6d67a   trigger_53_interact
     00197A25  GBVM$trigger_53_interact$62700ac   trigger_53_interact
     00197A2A  GBVM$trigger_53_interact$9da3afa   trigger_53_interact
     00197ACE  GBVM_END$trigger_53_interact$512   trigger_53_interact
     00197ACF  _trigger_55_interact               trigger_55_interact
     00197AE3  GBVM$trigger_55_interact$6f255da   trigger_55_interact
     00197AEF  GBVM$trigger_55_interact$6d6715b   trigger_55_interact
     00197AFB  GBVM$trigger_55_interact$c57d049   trigger_55_interact
     00197B07  GBVM$trigger_55_interact$a441099   trigger_55_interact
     00197B16  GBVM$trigger_55_interact$45859cb   trigger_55_interact
     00197B1B  GBVM$trigger_55_interact$cd22933   trigger_55_interact
     00197B1B  GBVM_END$trigger_55_interact$6d6   trigger_55_interact
     00197B1B  GBVM_END$trigger_55_interact$c57   trigger_55_interact
     00197B25  GBVM$trigger_55_interact$9491738   trigger_55_interact
     00197B2D  GBVM_END$trigger_55_interact$6f2   trigger_55_interact
     00197B2D  GBVM_END$trigger_55_interact$949   trigger_55_interact
     00197B3F  GBVM$trigger_55_interact$35fa8d2   trigger_55_interact
     00197B47  GBVM$trigger_55_interact$78b4341   trigger_55_interact
     00197B47  GBVM_END$trigger_55_interact$35f   trigger_55_interact
     00197B53  _trigger_56_interact               trigger_56_interact
     00197B67  GBVM$trigger_56_interact$03f6847   trigger_56_interact
     00197B71  GBVM$trigger_56_interact$2b5bf11   trigger_56_interact
     00197B79  GBVM_END$trigger_56_interact$2b5   trigger_56_interact
     00197B8B  GBVM$trigger_56_interact$e6c1642   trigger_56_interact
     00197B95  GBVM$trigger_56_interact$598d3af   trigger_56_interact
     00197B9D  GBVM_END$trigger_56_interact$598   trigger_56_interact
     00197B9F  _trigger_57_interact               trigger_57_interact
     00197BA2  GBVM$trigger_57_interact$2aae693   trigger_57_interact
     00197BAE  GBVM$trigger_57_interact$07028eb   trigger_57_interact
     00197BB8  GBVM$trigger_57_interact$a800aab   trigger_57_interact
     00197BBD  GBVM$trigger_57_interact$0b61f78   trigger_57_interact
     00197C57  GBVM_END$trigger_57_interact$2aa   trigger_57_interact
     00197C58  _trigger_59_interact               trigger_59_interact
     00197C6C  GBVM$trigger_59_interact$ce9cabc   trigger_59_interact
     00197C78  GBVM$trigger_59_interact$7dffb74   trigger_59_interact
     00197C80  GBVM_END$trigger_59_interact$7df   trigger_59_interact
     00197C80  GBVM_END$trigger_59_interact$ce9   trigger_59_interact
     00197C92  GBVM$trigger_59_interact$5f2a4e3   trigger_59_interact
     00197C9A  GBVM_END$trigger_59_interact$5f2   trigger_59_interact
     00197C9C  _trigger_60_interact               trigger_60_interact
     00197CB0  GBVM$trigger_60_interact$9e93f89   trigger_60_interact
     00197CBC  GBVM$trigger_60_interact$277d53b   trigger_60_interact
ASxxxx Linker V03.00/V05.40 + sdld,  page 98.
Hexadecimal  [32-Bits]

Area                                    Addr        Size        Decimal Bytes (Attributes)
--------------------------------        ----        ----        ------- ----- ------------
_CODE_25                            00194000    00003FFE =       16382. bytes (REL,CON)

      Value  Global                              Global Defined In Module
      -----  --------------------------------   ------------------------
     00197CC4  GBVM_END$trigger_60_interact$277   trigger_60_interact
     00197CC4  GBVM_END$trigger_60_interact$9e9   trigger_60_interact
     00197CD6  GBVM$trigger_60_interact$e691d35   trigger_60_interact
     00197CDE  GBVM_END$trigger_60_interact$e69   trigger_60_interact
     00197CE0  _trigger_61_interact               trigger_61_interact
     00197CF4  GBVM$trigger_61_interact$51ff25a   trigger_61_interact
     00197D00  GBVM$trigger_61_interact$f60f99b   trigger_61_interact
     00197D08  GBVM_END$trigger_61_interact$51f   trigger_61_interact
     00197D08  GBVM_END$trigger_61_interact$f60   trigger_61_interact
     00197D1A  GBVM$trigger_61_interact$d658043   trigger_61_interact
     00197D22  GBVM_END$trigger_61_interact$d65   trigger_61_interact
     00197D24  _trigger_62_interact               trigger_62_interact
     00197D38  GBVM$trigger_62_interact$a24f66f   trigger_62_interact
     00197D44  GBVM$trigger_62_interact$007031c   trigger_62_interact
     00197D4C  GBVM_END$trigger_62_interact$007   trigger_62_interact
     00197D4C  GBVM_END$trigger_62_interact$a24   trigger_62_interact
     00197D5E  GBVM$trigger_62_interact$6793d57   trigger_62_interact
     00197D66  GBVM_END$trigger_62_interact$679   trigger_62_interact
     00197D68  _trigger_63_interact               trigger_63_interact
     00197D7C  GBVM$trigger_63_interact$6a7b673   trigger_63_interact
     00197D88  GBVM$trigger_63_interact$8aac210   trigger_63_interact
     00197D90  GBVM_END$trigger_63_interact$6a7   trigger_63_interact
     00197D90  GBVM_END$trigger_63_interact$8aa   trigger_63_interact
     00197DA2  GBVM$trigger_63_interact$b80004a   trigger_63_interact
     00197DAA  GBVM_END$trigger_63_interact$b80   trigger_63_interact
     00197DAC  _trigger_68_interact               trigger_68_interact
     00197DC0  GBVM$trigger_68_interact$100d0d4   trigger_68_interact
     00197DCA  GBVM$trigger_68_interact$c147efb   trigger_68_interact
     00197DD2  GBVM_END$trigger_68_interact$c14   trigger_68_interact
     00197DE4  GBVM$trigger_68_interact$d288ef3   trigger_68_interact
     00197DEE  GBVM$trigger_68_interact$38bb01a   trigger_68_interact
     00197DF6  GBVM_END$trigger_68_interact$38b   trigger_68_interact
     00197DF8  _trigger_69_interact               trigger_69_interact
     00197DFB  GBVM$trigger_69_interact$f0e3cbb   trigger_69_interact
     00197E04  GBVM$trigger_69_interact$5d36934   trigger_69_interact
     00197E39  GBVM$trigger_69_interact$c5262a3   trigger_69_interact
     00197E6B  GBVM_END$trigger_69_interact$f0e   trigger_69_interact
     00197E6C  _trigger_80_interact               trigger_80_interact
     00197E80  GBVM$trigger_80_interact$2b10a1a   trigger_80_interact
     00197E8A  GBVM$trigger_80_interact$4b5a562   trigger_80_interact
     00197E92  GBVM_END$trigger_80_interact$4b5   trigger_80_interact
     00197EA4  GBVM$trigger_80_interact$8ed1c98   trigger_80_interact
     00197EAE  GBVM$trigger_80_interact$f12d043   trigger_80_interact
     00197EB6  GBVM_END$trigger_80_interact$f12   trigger_80_interact
     00197EB8  _trigger_82_interact               trigger_82_interact
     00197ECC  GBVM$trigger_82_interact$ec8e74c   trigger_82_interact
     00197ED8  GBVM$trigger_82_interact$4c099b7   trigger_82_interact
     00197EE7  GBVM$trigger_82_interact$4aeb411   trigger_82_interact
     00197EE7  GBVM_END$trigger_82_interact$ec8   trigger_82_interact
     00197EF1  GBVM$trigger_82_interact$277ddea   trigger_82_interact
     00197EF9  GBVM$trigger_82_interact$d1f8bcc   trigger_82_interact
ASxxxx Linker V03.00/V05.40 + sdld,  page 99.
Hexadecimal  [32-Bits]

Area                                    Addr        Size        Decimal Bytes (Attributes)
--------------------------------        ----        ----        ------- ----- ------------
_CODE_25                            00194000    00003FFE =       16382. bytes (REL,CON)

      Value  Global                              Global Defined In Module
      -----  --------------------------------   ------------------------
     00197F01  GBVM_END$trigger_82_interact$d1f   trigger_82_interact
     00197F13  GBVM$trigger_82_interact$4f60f6d   trigger_82_interact
     00197F1D  GBVM$trigger_82_interact$72e64ba   trigger_82_interact
     00197F25  GBVM$trigger_82_interact$7207655   trigger_82_interact
     00197F2D  GBVM_END$trigger_82_interact$720   trigger_82_interact
     00197F2F  _trigger_9_interact                trigger_9_interact
     00197F32  GBVM$trigger_9_interact$048591ef   trigger_9_interact
     00197F3B  GBVM$trigger_9_interact$67b7156e   trigger_9_interact
     00197F70  GBVM$trigger_9_interact$99437452   trigger_9_interact
     00197FA2  GBVM_END$trigger_9_interact$0485   trigger_9_interact
     00197FA3  _trigger_96_interact               trigger_96_interact
     00197FA6  GBVM$trigger_96_interact$3f32e1e   trigger_96_interact
     00197FB0  GBVM$trigger_96_interact$3ab8d4f   trigger_96_interact
     00197FB8  GBVM$trigger_96_interact$e9d99f5   trigger_96_interact
     00197FB9  GBVM$trigger_96_interact$389e63e   trigger_96_interact
     00197FBF  GBVM$trigger_96_interact$344b01b   trigger_96_interact
     00197FCB  GBVM$trigger_96_interact$6425918   trigger_96_interact

ASxxxx Linker V03.00/V05.40 + sdld,  page 100.
Hexadecimal  [32-Bits]

Area                                    Addr        Size        Decimal Bytes (Attributes)
--------------------------------        ----        ----        ------- ----- ------------
_CODE_21                            00154000    00004000 =       16384. bytes (REL,CON)

      Value  Global                              Global Defined In Module
      -----  --------------------------------   ------------------------
     00154000  _CGBFadeToWhiteStep                fade_manager
     00154039  _CGBFadeToBlackStep                fade_manager
     00154074  _ApplyPaletteChangeColor           fade_manager
     001540B1  _fade_speeds                       fade_manager
     001540B8  _DMGFadeToWhiteStep                fade_manager
     001540D9  _DMGFadeToBlackStep                fade_manager
     001540FC  _ApplyPaletteChangeDMG             fade_manager
     00154152  _fade_init                         fade_manager
     00154173  _fade_in                           fade_manager
     001541AB  _fade_out                          fade_manager
     001541E4  _fade_update                       fade_manager
     00154237  _fade_applypalettechange           fade_manager
     00154249  _fade_setspeed                     fade_manager
     00154259  _fade_in_modal                     fade_manager
     00154273  _fade_out_modal                    fade_manager
     0015428D  ___func_VM_RTC                     vm_rtc
     0015428D  _vm_rtc_latch                      vm_rtc
     00154295  _vm_rtc_get                        vm_rtc
     001542FC  _vm_rtc_set                        vm_rtc
     0015435A  _vm_rtc_start                      vm_rtc
     0015437D  _actor_0_update                    actor_0_update
     0015437F  GBVM$actor_0_update$5f342543_1c1   actor_0_update
     0015438B  GBVM$actor_0_update$db170f7b_b9a   actor_0_update
     00154397  GBVM$actor_0_update$201d51be_b07   actor_0_update
     00154397  GBVM_END$actor_0_update$5f342543   actor_0_update
     001543AC  GBVM$actor_0_update$10c6cb86_980   actor_0_update
     001543B8  GBVM$actor_0_update$645c51f1_41c   actor_0_update
     001543B8  GBVM_END$actor_0_update$201d51be   actor_0_update
     001543CD  GBVM$actor_0_update$a3cb6892_7fe   actor_0_update
     001543D9  GBVM$actor_0_update$f288dd41_276   actor_0_update
     001543D9  GBVM_END$actor_0_update$645c51f1   actor_0_update
     001543EE  GBVM$actor_0_update$162a3a56_2d1   actor_0_update
     001543FA  GBVM$actor_0_update$e7d69dd7_b5b   actor_0_update
     001543FA  GBVM_END$actor_0_update$f288dd41   actor_0_update
     0015440F  GBVM$actor_0_update$a14c2d91_f5c   actor_0_update
     0015441B  GBVM$actor_0_update$634fc5af_a29   actor_0_update
     0015441B  GBVM_END$actor_0_update$e7d69dd7   actor_0_update
     00154430  GBVM$actor_0_update$3555af81_bbe   actor_0_update
     0015443C  GBVM$actor_0_update$62c20337_312   actor_0_update
     0015443C  GBVM_END$actor_0_update$634fc5af   actor_0_update
     00154451  GBVM$actor_0_update$d7fd24ae_f49   actor_0_update
     0015445D  GBVM$actor_0_update$a711c1e0_01c   actor_0_update
     0015445D  GBVM_END$actor_0_update$62c20337   actor_0_update
     00154472  GBVM$actor_0_update$3f2d9a2b_0bd   actor_0_update
     0015447C  GBVM$actor_0_update$fb5e3c5d_6e4   actor_0_update
     00154488  GBVM$actor_0_update$99abbc69_b1f   actor_0_update
     00154498  GBVM$actor_0_update$9140886f_914   actor_0_update
     0015449D  GBVM$actor_0_update$f8dba9db_b20   actor_0_update
     001544A9  GBVM$actor_0_update$e6f40b81_f5f   actor_0_update
     001544AE  GBVM$actor_0_update$4404b288_865   actor_0_update
ASxxxx Linker V03.00/V05.40 + sdld,  page 101.
Hexadecimal  [32-Bits]

Area                                    Addr        Size        Decimal Bytes (Attributes)
--------------------------------        ----        ----        ------- ----- ------------
_CODE_21                            00154000    00004000 =       16384. bytes (REL,CON)

      Value  Global                              Global Defined In Module
      -----  --------------------------------   ------------------------
     001544BE  GBVM$actor_0_update$ad4e12be_a5a   actor_0_update
     001544CA  GBVM$actor_0_update$4b6a40c3_865   actor_0_update
     001544D4  GBVM$actor_0_update$02532864_bc4   actor_0_update
     001544D4  GBVM_END$actor_0_update$a711c1e0   actor_0_update
     001544E9  GBVM$actor_0_update$337e7c1d_a06   actor_0_update
     001544F3  GBVM$actor_0_update$1fa77f4f_c8b   actor_0_update
     001544FF  GBVM$actor_0_update$cf951c35_50e   actor_0_update
     0015450F  GBVM$actor_0_update$2378bfb8_880   actor_0_update
     00154514  GBVM$actor_0_update$146d4eae_11a   actor_0_update
     00154520  GBVM$actor_0_update$a91c877c_324   actor_0_update
     00154525  GBVM$actor_0_update$449dcc3f_1ec   actor_0_update
     00154535  GBVM$actor_0_update$60cdaad3_c47   actor_0_update
     00154541  GBVM$actor_0_update$49c87575_ba2   actor_0_update
     0015454B  GBVM$actor_0_update$1ac6ed4b_c05   actor_0_update
     00154557  GBVM$actor_0_update$58cd0704_f54   actor_0_update
     00154561  GBVM$actor_0_update$9a2f2a07_b52   actor_0_update
     0015456D  GBVM$actor_0_update$066e2dd1_041   actor_0_update
     0015457D  GBVM$actor_0_update$ec1fe9d3_82a   actor_0_update
     00154582  GBVM$actor_0_update$8d1e00e9_f68   actor_0_update
     0015458E  GBVM$actor_0_update$819e68fd_0a6   actor_0_update
     00154593  GBVM$actor_0_update$d84e7649_956   actor_0_update
     001545A3  GBVM$actor_0_update$21aaf0b2_601   actor_0_update
     001545AF  GBVM$actor_0_update$c1cf7477_5b6   actor_0_update
     001545B9  GBVM_END$actor_0_update$02532864   actor_0_update
     001545BE  ___func_bg_break_start_tilemap_a   bg_break_start_tilemap_attr
     001545BE  _bg_break_start_tilemap_attr       bg_break_start_tilemap_attr
     001547EC  ___func_bg_break_start_tilemap     bg_break_start_tilemap
     001547EC  _bg_break_start_tilemap            bg_break_start_tilemap
     00154A1A  ___func_bg_breakroom_b_tilemap_a   bg_breakroom_b_tilemap_attr
     00154A1A  _bg_breakroom_b_tilemap_attr       bg_breakroom_b_tilemap_attr
     00154C48  ___func_bg_breakroom_b_tilemap     bg_breakroom_b_tilemap
     00154C48  _bg_breakroom_b_tilemap            bg_breakroom_b_tilemap
     00154E76  ___func_bg_breakroom_tilemap_att   bg_breakroom_tilemap_attr
     00154E76  _bg_breakroom_tilemap_attr         bg_breakroom_tilemap_attr
     001550A4  ___func_bg_breakroom_tilemap       bg_breakroom_tilemap
     001550A4  _bg_breakroom_tilemap              bg_breakroom_tilemap
     001552D2  ___func_bg_final_boss_b_tilemap_   bg_final_boss_b_tilemap_attr
     001552D2  _bg_final_boss_b_tilemap_attr      bg_final_boss_b_tilemap_attr
     00155512  ___func_bg_final_boss_b_tilemap    bg_final_boss_b_tilemap
     00155512  _bg_final_boss_b_tilemap           bg_final_boss_b_tilemap
     00155752  ___func_bg_final_boss_b_tileset    bg_final_boss_b_tileset
     00155752  _bg_final_boss_b_tileset           bg_final_boss_b_tileset
     001559E4  ___func_bg_jumpscare_tilemap_att   bg_jumpscare_tilemap_attr
     001559E4  _bg_jumpscare_tilemap_attr         bg_jumpscare_tilemap_attr
     00155C12  ___func_bg_jumpscare_tilemap       bg_jumpscare_tilemap
     00155C12  _bg_jumpscare_tilemap              bg_jumpscare_tilemap
     00155E40  ___func_bg_vents_2_tileset         bg_vents_2_tileset
     00155E40  _bg_vents_2_tileset                bg_vents_2_tileset
     00156082  ___func_bg_work_start_tilemap_at   bg_work_start_tilemap_attr
     00156082  _bg_work_start_tilemap_attr        bg_work_start_tilemap_attr
     001562B0  ___func_bg_work_start_tilemap      bg_work_start_tilemap
ASxxxx Linker V03.00/V05.40 + sdld,  page 102.
Hexadecimal  [32-Bits]

Area                                    Addr        Size        Decimal Bytes (Attributes)
--------------------------------        ----        ----        ------- ----- ------------
_CODE_21                            00154000    00004000 =       16384. bytes (REL,CON)

      Value  Global                              Global Defined In Module
      -----  --------------------------------   ------------------------
     001562B0  _bg_work_start_tilemap             bg_work_start_tilemap
     001564DE  ___func_scene_0_collisions         scene_0_collisions
     001564DE  _scene_0_collisions                scene_0_collisions
     0015670C  ___func_scene_1_collisions         scene_1_collisions
     0015670C  _scene_1_collisions                scene_1_collisions
     0015693A  ___func_scene_10_collisions        scene_10_collisions
     0015693A  _scene_10_collisions               scene_10_collisions
     00156B68  ___func_scene_11_collisions        scene_11_collisions
     00156B68  _scene_11_collisions               scene_11_collisions
     00156D96  ___func_scene_16_sprites           scene_16_sprites
     00156D96  _scene_16_sprites                  scene_16_sprites
     00156D99  ___func_scene_3_collisions         scene_3_collisions
     00156D99  _scene_3_collisions                scene_3_collisions
     00156FC7  ___func_scene_43_collisions        scene_43_collisions
     00156FC7  _scene_43_collisions               scene_43_collisions
     00157207  _scene_47_init                     scene_47_init
     00157208  GBVM$scene_47_init$autofade$038a   scene_47_init
     00157213  GBVM$scene_47_init$a1bc18e7_4b06   scene_47_init
     0015721C  GBVM$scene_47_init$2ef6b560_04ad   scene_47_init
     0015725B  GBVM$scene_47_init$6b11aae3_8912   scene_47_init
     00157296  GBVM$scene_47_init$6e7ecdf0_c186   scene_47_init
     00157296  GBVM_END$scene_47_init$a1bc18e7_   scene_47_init
     0015746D  GBVM$scene_47_init$ec367614_0246   scene_47_init
     00157475  GBVM_END$scene_47_init$ec367614_   scene_47_init
     00157476  ___func_scene_5_collisions         scene_5_collisions
     00157476  _scene_5_collisions                scene_5_collisions
     001576A4  ___func_sound_type1_wav            sound_type1_wav
     001576A4  _sound_type1_wav                   sound_type1_wav
     00157940  ___func_sprite_boombar             sprite_boombar
     00157940  _sprite_boombar_metasprite_0       sprite_boombar
     0015796C  _sprite_boombar_metasprite_1       sprite_boombar
     00157998  _sprite_boombar_metasprite_2       sprite_boombar
     001579C4  _sprite_boombar_metasprite_3       sprite_boombar
     001579F0  _sprite_boombar_metasprite_4       sprite_boombar
     00157A1C  _sprite_boombar_metasprite_5       sprite_boombar
     00157A48  _sprite_boombar_metasprite_6       sprite_boombar
     00157A74  _sprite_boombar_metasprite_7       sprite_boombar
     00157AA0  _sprite_boombar_metasprite_8       sprite_boombar
     00157ACC  _sprite_boombar_metasprite_9       sprite_boombar
     00157AF8  _sprite_boombar_metasprite_10      sprite_boombar
     00157B24  _sprite_boombar_metasprites        sprite_boombar
     00157B3A  _sprite_boombar_animations         sprite_boombar
     00157B4A  _sprite_boombar_animations_looku   sprite_boombar
     00157B4C  _sprite_boombar                    sprite_boombar
     00157B5F  ___func_sprite_breakbar            sprite_breakbar
     00157B5F  _sprite_breakbar_metasprite_0      sprite_breakbar
     00157B8B  _sprite_breakbar_metasprite_1      sprite_breakbar
     00157BB7  _sprite_breakbar_metasprite_2      sprite_breakbar
     00157BE3  _sprite_breakbar_metasprite_3      sprite_breakbar
     00157C0F  _sprite_breakbar_metasprite_4      sprite_breakbar
     00157C3B  _sprite_breakbar_metasprite_5      sprite_breakbar
ASxxxx Linker V03.00/V05.40 + sdld,  page 103.
Hexadecimal  [32-Bits]

Area                                    Addr        Size        Decimal Bytes (Attributes)
--------------------------------        ----        ----        ------- ----- ------------
_CODE_21                            00154000    00004000 =       16384. bytes (REL,CON)

      Value  Global                              Global Defined In Module
      -----  --------------------------------   ------------------------
     00157C67  _sprite_breakbar_metasprite_6      sprite_breakbar
     00157C93  _sprite_breakbar_metasprite_7      sprite_breakbar
     00157CBF  _sprite_breakbar_metasprite_8      sprite_breakbar
     00157CEB  _sprite_breakbar_metasprite_9      sprite_breakbar
     00157D17  _sprite_breakbar_metasprite_10     sprite_breakbar
     00157D43  _sprite_breakbar_metasprites       sprite_breakbar
     00157D59  _sprite_breakbar_animations        sprite_breakbar
     00157D69  _sprite_breakbar_animations_look   sprite_breakbar
     00157D6B  _sprite_breakbar                   sprite_breakbar
     00157D7E  ___func_sprite_player_larry_bank   sprite_player_larry_bank2_ti
     00157D7E  _sprite_player_larry_bank2_tiles   sprite_player_larry_bank2_ti

ASxxxx Linker V03.00/V05.40 + sdld,  page 104.
Hexadecimal  [32-Bits]

Area                                    Addr        Size        Decimal Bytes (Attributes)
--------------------------------        ----        ----        ------- ----- ------------
_HEADER_SIO0                        00000000    00000004 =           4. bytes (ABS,CON)

      Value  Global                              Global Defined In Module
      -----  --------------------------------   ------------------------
ASxxxx Linker V03.00/V05.40 + sdld,  page 105.
Hexadecimal  [32-Bits]

Area                                    Addr        Size        Decimal Bytes (Attributes)
--------------------------------        ----        ----        ------- ----- ------------
_HEADER_TIMER0                      00000000    00000004 =           4. bytes (ABS,CON)

      Value  Global                              Global Defined In Module
      -----  --------------------------------   ------------------------
ASxxxx Linker V03.00/V05.40 + sdld,  page 106.
Hexadecimal  [32-Bits]

Area                                    Addr        Size        Decimal Bytes (Attributes)
--------------------------------        ----        ----        ------- ----- ------------
_CODE_24                            00184000    00003FFF =       16383. bytes (REL,CON)

      Value  Global                              Global Defined In Module
      -----  --------------------------------   ------------------------
     00184000  _music_init_driver                 music_manager
     0018405C  _music_init_events                 music_manager
     00184098  _music_events_poll                 music_manager
     001840C0  _music_pause                       music_manager
     001840E2  ___func_VM_MATH                    vm_math
     001840E2  _vm_sin_scale                      vm_math
     0018417E  _vm_cos_scale                      vm_math
     0018421C  _itoa_fmt                          vm_ui_a
     00184250  .utoa_fmt                          vm_ui_a
     001842FA  _actor_17_update                   actor_17_update
     001842FC  GBVM$actor_17_update$c1ae7a7e_b3   actor_17_update
     00184308  GBVM$actor_17_update$4b1bb401_8f   actor_17_update
     00184335  GBVM$actor_17_update$d13d9f1a_26   actor_17_update
     00184341  GBVM$actor_17_update$ac01fc2f_84   actor_17_update
     00184373  GBVM_END$actor_17_update$d13d9f1   actor_17_update
     00184376  GBVM$actor_17_update$e4bb395f_23   actor_17_update
     00184389  GBVM$actor_17_update$f4ac6737_f3   actor_17_update
     0018439C  GBVM$actor_17_update$6c2f8fce_79   actor_17_update
     001843AF  GBVM$actor_17_update$8e09973b_a2   actor_17_update
     001843C2  GBVM$actor_17_update$0d0e160f_eb   actor_17_update
     001843D5  GBVM$actor_17_update$c483fbb9_f2   actor_17_update
     001843E8  GBVM$actor_17_update$904686e8_5f   actor_17_update
     001843FB  GBVM$actor_17_update$abe20c27_2a   actor_17_update
     0018440E  GBVM$actor_17_update$6075ff95_bc   actor_17_update
     00184421  GBVM$actor_17_update$e90bc4ca_13   actor_17_update
     00184434  GBVM_END$actor_17_update$4b1bb40   actor_17_update
     00184434  GBVM_END$actor_17_update$c1ae7a7   actor_17_update
     00184439  _actor_3_interact                  actor_3_interact
     0018444C  GBVM$actor_3_interact$11af18e3_9   actor_3_interact
     0018445E  GBVM$actor_3_interact$5ca3e7ef_a   actor_3_interact
     00184469  GBVM$actor_3_interact$6653a612_0   actor_3_interact
     0018449E  GBVM$actor_3_interact$9621d2c3_6   actor_3_interact
     001844A6  GBVM$actor_3_interact$e80c0e6a_9   actor_3_interact
     001844B0  GBVM$actor_3_interact$9c6b3a17_a   actor_3_interact
     001844BF  GBVM$actor_3_interact$574ccd60_b   actor_3_interact
     001844C8  GBVM$actor_3_interact$40aa931a_9   actor_3_interact
     001844D2  GBVM$actor_3_interact$19751660_6   actor_3_interact
     001844DD  GBVM$actor_3_interact$ec272b4b_2   actor_3_interact
     001844E5  GBVM$actor_3_interact$c8a54173_f   actor_3_interact
     001844F1  GBVM$actor_3_interact$719222b6_7   actor_3_interact
     00184523  GBVM_END$actor_3_interact$11af18   actor_3_interact
     00184525  _actor_37_update                   actor_37_update
     00184527  GBVM$actor_37_update$dbfff6b3_01   actor_37_update
     0018453C  GBVM$actor_37_update$a4ecbc82_4b   actor_37_update
     00184546  GBVM$actor_37_update$c296044e_86   actor_37_update
     00184558  GBVM$actor_37_update$6027c375_53   actor_37_update
     00184567  GBVM$actor_37_update$3e93571b_93   actor_37_update
     00184576  GBVM$actor_37_update$f07ab152_09   actor_37_update
     00184585  GBVM$actor_37_update$08095519_78   actor_37_update
     00184591  GBVM$actor_37_update$0e80dd59_db   actor_37_update
ASxxxx Linker V03.00/V05.40 + sdld,  page 107.
Hexadecimal  [32-Bits]

Area                                    Addr        Size        Decimal Bytes (Attributes)
--------------------------------        ----        ----        ------- ----- ------------
_CODE_24                            00184000    00003FFF =       16383. bytes (REL,CON)

      Value  Global                              Global Defined In Module
      -----  --------------------------------   ------------------------
     0018459B  GBVM$actor_37_update$f74e71ed_ba   actor_37_update
     001845A5  GBVM$actor_37_update$42b17457_c4   actor_37_update
     001845AF  GBVM$actor_37_update$8b4984a5_b0   actor_37_update
     001845BE  GBVM$actor_37_update$afc3a676_77   actor_37_update
     001845CD  GBVM$actor_37_update$0f47eda3_12   actor_37_update
     001845DC  GBVM$actor_37_update$1795c01e_3c   actor_37_update
     001845E4  GBVM$actor_37_update$4a8a8ede_b2   actor_37_update
     001845EE  GBVM$actor_37_update$98aed083_ae   actor_37_update
     001845EE  GBVM_END$actor_37_update$c296044   actor_37_update
     001845EE  GBVM_END$actor_37_update$dbfff6b   actor_37_update
     001845FA  GBVM$actor_37_update$003ae7f8_53   actor_37_update
     00184604  GBVM$actor_37_update$d823be74_c7   actor_37_update
     00184604  GBVM_END$actor_37_update$98aed08   actor_37_update
     00184619  GBVM$actor_37_update$e2caf765_b7   actor_37_update
     0018461E  GBVM$actor_37_update$80740176_c2   actor_37_update
     0018462A  GBVM$actor_37_update$7a0d3384_22   actor_37_update
     0018465C  GBVM_END$actor_37_update$d823be7   actor_37_update
     00184661  _actor_68_update                   actor_68_update
     00184663  GBVM$actor_68_update$88fce138_63   actor_68_update
     0018466F  GBVM$actor_68_update$bf68a0a5_b4   actor_68_update
     0018469C  GBVM$actor_68_update$494389b9_ff   actor_68_update
     001846A8  GBVM$actor_68_update$3d1846f6_1a   actor_68_update
     001846DA  GBVM_END$actor_68_update$494389b   actor_68_update
     001846DD  GBVM$actor_68_update$38270b75_1c   actor_68_update
     001846F0  GBVM$actor_68_update$e178ca2e_1f   actor_68_update
     00184703  GBVM$actor_68_update$c2890669_33   actor_68_update
     00184716  GBVM$actor_68_update$8bcfefb9_55   actor_68_update
     00184729  GBVM$actor_68_update$6182739d_3a   actor_68_update
     0018473C  GBVM$actor_68_update$1c5c3464_d9   actor_68_update
     0018474F  GBVM$actor_68_update$d7178391_e2   actor_68_update
     00184762  GBVM$actor_68_update$3a5d01ae_c5   actor_68_update
     00184775  GBVM$actor_68_update$e02a0233_66   actor_68_update
     00184788  GBVM$actor_68_update$841ea0e3_76   actor_68_update
     0018479B  GBVM_END$actor_68_update$88fce13   actor_68_update
     0018479B  GBVM_END$actor_68_update$bf68a0a   actor_68_update
     001847A0  _actor_69_update                   actor_69_update
     001847A2  GBVM$actor_69_update$1448037b_19   actor_69_update
     001847AE  GBVM$actor_69_update$0de47a80_8d   actor_69_update
     001847DB  GBVM$actor_69_update$40f8ae51_af   actor_69_update
     001847E7  GBVM$actor_69_update$af534ce1_d6   actor_69_update
     00184819  GBVM_END$actor_69_update$40f8ae5   actor_69_update
     0018481C  GBVM$actor_69_update$90c1c3cd_32   actor_69_update
     0018482F  GBVM$actor_69_update$32672e8e_fa   actor_69_update
     00184842  GBVM$actor_69_update$342a3ead_54   actor_69_update
     00184855  GBVM$actor_69_update$7cd0bc47_45   actor_69_update
     00184868  GBVM$actor_69_update$360ec56d_26   actor_69_update
     0018487B  GBVM$actor_69_update$e7c424e3_98   actor_69_update
     0018488E  GBVM$actor_69_update$b2b8b5de_ea   actor_69_update
     001848A1  GBVM$actor_69_update$92db4192_ac   actor_69_update
     001848B4  GBVM$actor_69_update$c76ec6ea_bc   actor_69_update
     001848C7  GBVM$actor_69_update$e50993cc_f5   actor_69_update
ASxxxx Linker V03.00/V05.40 + sdld,  page 108.
Hexadecimal  [32-Bits]

Area                                    Addr        Size        Decimal Bytes (Attributes)
--------------------------------        ----        ----        ------- ----- ------------
_CODE_24                            00184000    00003FFF =       16383. bytes (REL,CON)

      Value  Global                              Global Defined In Module
      -----  --------------------------------   ------------------------
     001848DA  GBVM_END$actor_69_update$0de47a8   actor_69_update
     001848DA  GBVM_END$actor_69_update$1448037   actor_69_update
     001848DF  _actor_70_update                   actor_70_update
     001848E1  GBVM$actor_70_update$2aa663c1_2c   actor_70_update
     001848ED  GBVM$actor_70_update$dcbabfef_1a   actor_70_update
     0018491A  GBVM$actor_70_update$fdb4bd58_6f   actor_70_update
     00184926  GBVM$actor_70_update$850ceeb2_21   actor_70_update
     00184958  GBVM_END$actor_70_update$fdb4bd5   actor_70_update
     0018495B  GBVM$actor_70_update$78cf5206_b4   actor_70_update
     0018496E  GBVM$actor_70_update$56a12ec6_61   actor_70_update
     00184981  GBVM$actor_70_update$5ec5e5e6_e8   actor_70_update
     00184994  GBVM$actor_70_update$1a3ff575_d9   actor_70_update
     001849A7  GBVM$actor_70_update$05a51033_7a   actor_70_update
     001849BA  GBVM$actor_70_update$644587ce_1b   actor_70_update
     001849CD  GBVM$actor_70_update$e3af4d57_5c   actor_70_update
     001849E0  GBVM$actor_70_update$7a47848b_b4   actor_70_update
     001849F3  GBVM$actor_70_update$07d76ee7_6c   actor_70_update
     00184A06  GBVM$actor_70_update$10afc237_ee   actor_70_update
     00184A19  GBVM_END$actor_70_update$2aa663c   actor_70_update
     00184A19  GBVM_END$actor_70_update$dcbabfe   actor_70_update
     00184A1E  _actor_71_update                   actor_71_update
     00184A20  GBVM$actor_71_update$a93713d2_89   actor_71_update
     00184A2C  GBVM$actor_71_update$784e27c2_86   actor_71_update
     00184A59  GBVM$actor_71_update$72950817_b2   actor_71_update
     00184A65  GBVM$actor_71_update$f7993a2c_41   actor_71_update
     00184A97  GBVM_END$actor_71_update$7295081   actor_71_update
     00184A9A  GBVM$actor_71_update$a1e686df_45   actor_71_update
     00184AAD  GBVM$actor_71_update$3f996a3b_0e   actor_71_update
     00184AC0  GBVM$actor_71_update$8830dbb0_08   actor_71_update
     00184AD3  GBVM$actor_71_update$68a7fccb_0a   actor_71_update
     00184AE6  GBVM$actor_71_update$f7d876c9_9a   actor_71_update
     00184AF9  GBVM$actor_71_update$50b677c4_41   actor_71_update
     00184B0C  GBVM$actor_71_update$4953a2f7_e7   actor_71_update
     00184B1F  GBVM$actor_71_update$642fc8c7_2e   actor_71_update
     00184B32  GBVM$actor_71_update$8717753a_81   actor_71_update
     00184B45  GBVM$actor_71_update$00dd64c2_5e   actor_71_update
     00184B58  GBVM_END$actor_71_update$784e27c   actor_71_update
     00184B58  GBVM_END$actor_71_update$a93713d   actor_71_update
     00184B5D  _actor_72_update                   actor_72_update
     00184B5F  GBVM$actor_72_update$a751aae1_08   actor_72_update
     00184B6B  GBVM$actor_72_update$08321d32_82   actor_72_update
     00184B98  GBVM$actor_72_update$a032eab3_32   actor_72_update
     00184BA4  GBVM$actor_72_update$e93e1f6e_28   actor_72_update
     00184BD6  GBVM_END$actor_72_update$a032eab   actor_72_update
     00184BD9  GBVM$actor_72_update$5aa0b247_40   actor_72_update
     00184BEC  GBVM$actor_72_update$3ba12b28_5f   actor_72_update
     00184BFF  GBVM$actor_72_update$5a8e8548_a9   actor_72_update
     00184C12  GBVM$actor_72_update$8ad082cf_7e   actor_72_update
     00184C25  GBVM$actor_72_update$93511b94_87   actor_72_update
     00184C38  GBVM$actor_72_update$222b4d5e_07   actor_72_update
     00184C4B  GBVM$actor_72_update$194c44fd_6a   actor_72_update
ASxxxx Linker V03.00/V05.40 + sdld,  page 109.
Hexadecimal  [32-Bits]

Area                                    Addr        Size        Decimal Bytes (Attributes)
--------------------------------        ----        ----        ------- ----- ------------
_CODE_24                            00184000    00003FFF =       16383. bytes (REL,CON)

      Value  Global                              Global Defined In Module
      -----  --------------------------------   ------------------------
     00184C5E  GBVM$actor_72_update$5d1e9197_59   actor_72_update
     00184C71  GBVM$actor_72_update$8d8aa936_c4   actor_72_update
     00184C84  GBVM$actor_72_update$54d411e3_1d   actor_72_update
     00184C97  GBVM_END$actor_72_update$08321d3   actor_72_update
     00184C97  GBVM_END$actor_72_update$a751aae   actor_72_update
     00184C9C  _actor_73_update                   actor_73_update
     00184C9E  GBVM$actor_73_update$9dd9522e_24   actor_73_update
     00184CAA  GBVM$actor_73_update$b3b55879_38   actor_73_update
     00184CD7  GBVM$actor_73_update$8c866c96_fe   actor_73_update
     00184CE3  GBVM$actor_73_update$88d2fc87_5d   actor_73_update
     00184D15  GBVM_END$actor_73_update$8c866c9   actor_73_update
     00184D18  GBVM$actor_73_update$7ba8bad0_de   actor_73_update
     00184D2B  GBVM$actor_73_update$d2d25c49_93   actor_73_update
     00184D3E  GBVM$actor_73_update$1ba458a7_c0   actor_73_update
     00184D51  GBVM$actor_73_update$2c851247_31   actor_73_update
     00184D64  GBVM$actor_73_update$0d619664_15   actor_73_update
     00184D77  GBVM$actor_73_update$f9fb0add_0f   actor_73_update
     00184D8A  GBVM$actor_73_update$c3c4ea2d_7c   actor_73_update
     00184D9D  GBVM$actor_73_update$63b32872_a3   actor_73_update
     00184DB0  GBVM$actor_73_update$c7636ec4_3f   actor_73_update
     00184DC3  GBVM$actor_73_update$ef39621a_4d   actor_73_update
     00184DD6  GBVM_END$actor_73_update$9dd9522   actor_73_update
     00184DD6  GBVM_END$actor_73_update$b3b5587   actor_73_update
     00184DDB  _actor_74_update                   actor_74_update
     00184DDD  GBVM$actor_74_update$17a81f9d_10   actor_74_update
     00184DE9  GBVM$actor_74_update$74292192_3f   actor_74_update
     00184E16  GBVM$actor_74_update$36e3bbd3_11   actor_74_update
     00184E22  GBVM$actor_74_update$7e8ca0b4_75   actor_74_update
     00184E54  GBVM_END$actor_74_update$36e3bbd   actor_74_update
     00184E57  GBVM$actor_74_update$4bcd38ca_21   actor_74_update
     00184E6A  GBVM$actor_74_update$5c09e333_65   actor_74_update
     00184E7D  GBVM$actor_74_update$288f416a_8e   actor_74_update
     00184E90  GBVM$actor_74_update$54b564cc_c4   actor_74_update
     00184EA3  GBVM$actor_74_update$478d064e_3c   actor_74_update
     00184EB6  GBVM$actor_74_update$51369115_e5   actor_74_update
     00184EC9  GBVM$actor_74_update$c2cddca1_ec   actor_74_update
     00184EDC  GBVM$actor_74_update$ae25d388_db   actor_74_update
     00184EEF  GBVM$actor_74_update$78eacddf_2f   actor_74_update
     00184F02  GBVM$actor_74_update$f53890b5_04   actor_74_update
     00184F15  GBVM_END$actor_74_update$17a81f9   actor_74_update
     00184F15  GBVM_END$actor_74_update$7429219   actor_74_update
     00184F1A  _actor_75_update                   actor_75_update
     00184F1C  GBVM$actor_75_update$c58ad74a_e2   actor_75_update
     00184F28  GBVM$actor_75_update$32d125a1_00   actor_75_update
     00184F55  GBVM$actor_75_update$c97debbb_9e   actor_75_update
     00184F61  GBVM$actor_75_update$cad0bad4_2b   actor_75_update
     00184F93  GBVM_END$actor_75_update$c97debb   actor_75_update
     00184F96  GBVM$actor_75_update$9cb4cd17_8c   actor_75_update
     00184FA9  GBVM$actor_75_update$c0f72b47_8d   actor_75_update
     00184FBC  GBVM$actor_75_update$fe9cf4a2_37   actor_75_update
     00184FCF  GBVM$actor_75_update$8178cfdc_6e   actor_75_update
ASxxxx Linker V03.00/V05.40 + sdld,  page 110.
Hexadecimal  [32-Bits]

Area                                    Addr        Size        Decimal Bytes (Attributes)
--------------------------------        ----        ----        ------- ----- ------------
_CODE_24                            00184000    00003FFF =       16383. bytes (REL,CON)

      Value  Global                              Global Defined In Module
      -----  --------------------------------   ------------------------
     00184FE2  GBVM$actor_75_update$01878b3d_3a   actor_75_update
     00184FF5  GBVM$actor_75_update$0cb589b0_90   actor_75_update
     00185008  GBVM$actor_75_update$b37e6f53_da   actor_75_update
     0018501B  GBVM$actor_75_update$926954cd_e2   actor_75_update
     0018502E  GBVM$actor_75_update$6f607cc0_eb   actor_75_update
     00185041  GBVM$actor_75_update$7a2a9467_a4   actor_75_update
     00185054  GBVM_END$actor_75_update$32d125a   actor_75_update
     00185054  GBVM_END$actor_75_update$c58ad74   actor_75_update
     00185059  _actor_76_update                   actor_76_update
     0018505B  GBVM$actor_76_update$6dd49eee_fb   actor_76_update
     00185067  GBVM$actor_76_update$782abc99_81   actor_76_update
     00185094  GBVM$actor_76_update$2a3e796b_51   actor_76_update
     001850A0  GBVM$actor_76_update$cd485fd3_ae   actor_76_update
     001850D2  GBVM_END$actor_76_update$2a3e796   actor_76_update
     001850D5  GBVM$actor_76_update$caf3b39a_0c   actor_76_update
     001850E8  GBVM$actor_76_update$c97b4f97_a0   actor_76_update
     001850FB  GBVM$actor_76_update$96dbaf3c_05   actor_76_update
     0018510E  GBVM$actor_76_update$9b11e46d_f0   actor_76_update
     00185121  GBVM$actor_76_update$e3f7815a_8f   actor_76_update
     00185134  GBVM$actor_76_update$37bd345a_29   actor_76_update
     00185147  GBVM$actor_76_update$b7199e53_cf   actor_76_update
     0018515A  GBVM$actor_76_update$7c064b75_bf   actor_76_update
     0018516D  GBVM$actor_76_update$de3d2f6b_98   actor_76_update
     00185180  GBVM$actor_76_update$886eaf46_67   actor_76_update
     00185193  GBVM_END$actor_76_update$6dd49ee   actor_76_update
     00185193  GBVM_END$actor_76_update$782abc9   actor_76_update
     00185198  _actor_77_update                   actor_77_update
     0018519A  GBVM$actor_77_update$06c43903_88   actor_77_update
     001851A6  GBVM$actor_77_update$8523c953_7e   actor_77_update
     001851D3  GBVM$actor_77_update$d0a15305_3f   actor_77_update
     001851DF  GBVM$actor_77_update$15304642_77   actor_77_update
     00185211  GBVM_END$actor_77_update$d0a1530   actor_77_update
     00185214  GBVM$actor_77_update$982ea9ef_f2   actor_77_update
     00185227  GBVM$actor_77_update$5bb0af63_0f   actor_77_update
     0018523A  GBVM$actor_77_update$2770bf2f_85   actor_77_update
     0018524D  GBVM$actor_77_update$8fcbc816_28   actor_77_update
     00185260  GBVM$actor_77_update$f4535b5a_92   actor_77_update
     00185273  GBVM$actor_77_update$98055989_5c   actor_77_update
     00185286  GBVM$actor_77_update$3df32517_b9   actor_77_update
     00185299  GBVM$actor_77_update$4c2bc571_f6   actor_77_update
     001852AC  GBVM$actor_77_update$d60693c7_2d   actor_77_update
     001852BF  GBVM$actor_77_update$c85d8a16_5e   actor_77_update
     001852D2  GBVM_END$actor_77_update$06c4390   actor_77_update
     001852D2  GBVM_END$actor_77_update$8523c95   actor_77_update
     001852D7  _actor_78_update                   actor_78_update
     001852D9  GBVM$actor_78_update$d76a0cda_39   actor_78_update
     001852E5  GBVM$actor_78_update$ddf4b81a_28   actor_78_update
     00185312  GBVM$actor_78_update$6cd89221_27   actor_78_update
     0018531E  GBVM$actor_78_update$8b407451_a9   actor_78_update
     00185350  GBVM_END$actor_78_update$6cd8922   actor_78_update
     00185353  GBVM$actor_78_update$977c8c97_be   actor_78_update
ASxxxx Linker V03.00/V05.40 + sdld,  page 111.
Hexadecimal  [32-Bits]

Area                                    Addr        Size        Decimal Bytes (Attributes)
--------------------------------        ----        ----        ------- ----- ------------
_CODE_24                            00184000    00003FFF =       16383. bytes (REL,CON)

      Value  Global                              Global Defined In Module
      -----  --------------------------------   ------------------------
     00185366  GBVM$actor_78_update$6adcb849_79   actor_78_update
     00185379  GBVM$actor_78_update$9db0188f_9e   actor_78_update
     0018538C  GBVM$actor_78_update$8558ba95_6c   actor_78_update
     0018539F  GBVM$actor_78_update$39bc4069_a1   actor_78_update
     001853B2  GBVM$actor_78_update$3e6a10ab_c8   actor_78_update
     001853C5  GBVM$actor_78_update$011403b4_53   actor_78_update
     001853D8  GBVM$actor_78_update$204d864c_89   actor_78_update
     001853EB  GBVM$actor_78_update$5c91814a_4f   actor_78_update
     001853FE  GBVM$actor_78_update$2968bce2_a7   actor_78_update
     00185411  GBVM_END$actor_78_update$d76a0cd   actor_78_update
     00185411  GBVM_END$actor_78_update$ddf4b81   actor_78_update
     00185416  _actor_83_update                   actor_83_update
     00185418  GBVM$actor_83_update$2f586486_de   actor_83_update
     0018543B  GBVM$actor_83_update$ee704cd0_68   actor_83_update
     00185444  GBVM$actor_83_update$ab03ae62_22   actor_83_update
     00185467  GBVM$actor_83_update$1d9d4634_6f   actor_83_update
     00185471  GBVM$actor_83_update$77dfc895_ca   actor_83_update
     0018547A  GBVM$actor_83_update$d7a2b7f6_71   actor_83_update
     0018549D  GBVM$actor_83_update$ceae1c97_61   actor_83_update
     001854C0  GBVM$actor_83_update$500b5af9_52   actor_83_update
     001854CA  GBVM$actor_83_update$6403b65d_e4   actor_83_update
     001854DF  GBVM$actor_83_update$566cced3_68   actor_83_update
     001854E8  GBVM$actor_83_update$31d0a1bb_a7   actor_83_update
     001854E8  GBVM_END$actor_83_update$6403b65   actor_83_update
     001854FD  GBVM$actor_83_update$8679b66c_52   actor_83_update
     00185506  GBVM$actor_83_update$bb8c2449_35   actor_83_update
     00185506  GBVM_END$actor_83_update$31d0a1b   actor_83_update
     0018551B  GBVM$actor_83_update$91abe273_7c   actor_83_update
     00185524  GBVM$actor_83_update$ff4a363b_76   actor_83_update
     00185524  GBVM_END$actor_83_update$bb8c244   actor_83_update
     00185539  GBVM$actor_83_update$a0b30c1b_a6   actor_83_update
     00185542  GBVM$actor_83_update$053a83ca_d8   actor_83_update
     00185542  GBVM_END$actor_83_update$ff4a363   actor_83_update
     00185557  GBVM$actor_83_update$2e50b0bd_6e   actor_83_update
     00185560  GBVM_END$actor_83_update$053a83c   actor_83_update
     00185565  _actor_84_update                   actor_84_update
     00185567  GBVM$actor_84_update$2b19baa5_50   actor_84_update
     0018558A  GBVM$actor_84_update$9da442ee_de   actor_84_update
     00185592  GBVM$actor_84_update$ffef1e16_a3   actor_84_update
     0018559B  GBVM$actor_84_update$a546838b_d4   actor_84_update
     001855BE  GBVM$actor_84_update$2dd51381_e6   actor_84_update
     001855C6  GBVM$actor_84_update$00b08b0c_7a   actor_84_update
     001855E9  GBVM$actor_84_update$34b44279_48   actor_84_update
     0018560C  GBVM$actor_84_update$a7ef9ed9_c5   actor_84_update
     00185621  GBVM$actor_84_update$22d8edfb_78   actor_84_update
     0018562A  GBVM$actor_84_update$dde84260_76   actor_84_update
     0018562A  GBVM_END$actor_84_update$a7ef9ed   actor_84_update
     0018563F  GBVM$actor_84_update$df8b4276_d9   actor_84_update
     00185648  GBVM$actor_84_update$b82b867b_6a   actor_84_update
     00185648  GBVM_END$actor_84_update$dde8426   actor_84_update
     0018565D  GBVM$actor_84_update$2892892b_21   actor_84_update
ASxxxx Linker V03.00/V05.40 + sdld,  page 112.
Hexadecimal  [32-Bits]

Area                                    Addr        Size        Decimal Bytes (Attributes)
--------------------------------        ----        ----        ------- ----- ------------
_CODE_24                            00184000    00003FFF =       16383. bytes (REL,CON)

      Value  Global                              Global Defined In Module
      -----  --------------------------------   ------------------------
     00185666  GBVM$actor_84_update$d5118405_1b   actor_84_update
     00185666  GBVM_END$actor_84_update$b82b867   actor_84_update
     0018567B  GBVM$actor_84_update$3a84fd94_2e   actor_84_update
     00185684  GBVM$actor_84_update$6d498135_2d   actor_84_update
     00185684  GBVM_END$actor_84_update$d511840   actor_84_update
     00185699  GBVM$actor_84_update$91fa8986_89   actor_84_update
     001856A2  GBVM_END$actor_84_update$6d49813   actor_84_update
     001856A7  _actor_85_update                   actor_85_update
     001856A9  GBVM$actor_85_update$cc29d411_be   actor_85_update
     001856CC  GBVM$actor_85_update$d1445eb2_c6   actor_85_update
     001856D4  GBVM$actor_85_update$bf1a80df_61   actor_85_update
     001856DD  GBVM$actor_85_update$7f6090a1_49   actor_85_update
     00185700  GBVM$actor_85_update$a7d01625_bf   actor_85_update
     00185708  GBVM$actor_85_update$0d5b2269_3d   actor_85_update
     0018572B  GBVM$actor_85_update$d59163fb_c1   actor_85_update
     0018574E  GBVM$actor_85_update$43b5be64_d6   actor_85_update
     00185763  GBVM$actor_85_update$cf4a7508_8b   actor_85_update
     0018576C  GBVM$actor_85_update$e08975d4_3c   actor_85_update
     0018576C  GBVM_END$actor_85_update$43b5be6   actor_85_update
     00185781  GBVM$actor_85_update$344432e8_b3   actor_85_update
     0018578A  GBVM$actor_85_update$20f72a48_27   actor_85_update
     0018578A  GBVM_END$actor_85_update$e08975d   actor_85_update
     0018579F  GBVM$actor_85_update$260b6fa0_bd   actor_85_update
     001857A8  GBVM$actor_85_update$49a7b68b_aa   actor_85_update
     001857A8  GBVM_END$actor_85_update$20f72a4   actor_85_update
     001857BD  GBVM$actor_85_update$25a6960c_9d   actor_85_update
     001857C6  GBVM$actor_85_update$5b9b4da6_27   actor_85_update
     001857C6  GBVM_END$actor_85_update$49a7b68   actor_85_update
     001857DB  GBVM$actor_85_update$8a3ba647_1c   actor_85_update
     001857E4  GBVM_END$actor_85_update$5b9b4da   actor_85_update
     001857E9  _actor_86_update                   actor_86_update
     001857EB  GBVM$actor_86_update$cc4390bb_0c   actor_86_update
     0018580E  GBVM$actor_86_update$306a7a96_50   actor_86_update
     00185816  GBVM$actor_86_update$bf5ed1b1_fa   actor_86_update
     0018581F  GBVM$actor_86_update$4f45d936_d9   actor_86_update
     00185842  GBVM$actor_86_update$92f34288_78   actor_86_update
     0018584A  GBVM$actor_86_update$c46f404c_1e   actor_86_update
     0018586D  GBVM$actor_86_update$0a20d59f_6a   actor_86_update
     00185890  GBVM$actor_86_update$cbf8b67d_73   actor_86_update
     001858A5  GBVM$actor_86_update$43724b9e_2d   actor_86_update
     001858AE  GBVM$actor_86_update$99602b10_46   actor_86_update
     001858AE  GBVM_END$actor_86_update$cbf8b67   actor_86_update
     001858C3  GBVM$actor_86_update$33efdec4_d0   actor_86_update
     001858CC  GBVM$actor_86_update$fd0d79d7_82   actor_86_update
     001858CC  GBVM_END$actor_86_update$99602b1   actor_86_update
     001858E1  GBVM$actor_86_update$60f17c8f_29   actor_86_update
     001858EA  GBVM$actor_86_update$69fb5ab6_f3   actor_86_update
     001858EA  GBVM_END$actor_86_update$fd0d79d   actor_86_update
     001858FF  GBVM$actor_86_update$a944593b_96   actor_86_update
     00185908  GBVM$actor_86_update$d940a08c_3e   actor_86_update
     00185908  GBVM_END$actor_86_update$69fb5ab   actor_86_update
ASxxxx Linker V03.00/V05.40 + sdld,  page 113.
Hexadecimal  [32-Bits]

Area                                    Addr        Size        Decimal Bytes (Attributes)
--------------------------------        ----        ----        ------- ----- ------------
_CODE_24                            00184000    00003FFF =       16383. bytes (REL,CON)

      Value  Global                              Global Defined In Module
      -----  --------------------------------   ------------------------
     0018591D  GBVM$actor_86_update$a51f9891_51   actor_86_update
     00185926  GBVM_END$actor_86_update$d940a08   actor_86_update
     0018592B  _actor_87_update                   actor_87_update
     0018592D  GBVM$actor_87_update$dbe19eb2_4e   actor_87_update
     00185950  GBVM$actor_87_update$7eb81b3a_43   actor_87_update
     00185958  GBVM$actor_87_update$f7bae720_26   actor_87_update
     00185961  GBVM$actor_87_update$4b13e65a_e2   actor_87_update
     00185984  GBVM$actor_87_update$fe696689_3c   actor_87_update
     0018598C  GBVM$actor_87_update$f4c89105_43   actor_87_update
     001859AF  GBVM$actor_87_update$93fe7aa2_1e   actor_87_update
     001859D2  GBVM$actor_87_update$bbc5a691_32   actor_87_update
     001859E7  GBVM$actor_87_update$d7e7a0b7_4d   actor_87_update
     001859F0  GBVM$actor_87_update$13d077f7_11   actor_87_update
     001859F0  GBVM_END$actor_87_update$bbc5a69   actor_87_update
     00185A05  GBVM$actor_87_update$37481d17_04   actor_87_update
     00185A0E  GBVM$actor_87_update$a34e93b7_01   actor_87_update
     00185A0E  GBVM_END$actor_87_update$13d077f   actor_87_update
     00185A23  GBVM$actor_87_update$22e79441_c3   actor_87_update
     00185A2C  GBVM$actor_87_update$d7d276cd_d5   actor_87_update
     00185A2C  GBVM_END$actor_87_update$a34e93b   actor_87_update
     00185A41  GBVM$actor_87_update$10641478_e0   actor_87_update
     00185A4A  GBVM$actor_87_update$26df454b_e0   actor_87_update
     00185A4A  GBVM_END$actor_87_update$d7d276c   actor_87_update
     00185A5F  GBVM$actor_87_update$1d4afaad_0d   actor_87_update
     00185A68  GBVM_END$actor_87_update$26df454   actor_87_update
     00185A6D  _actor_88_update                   actor_88_update
     00185A6F  GBVM$actor_88_update$d624686b_1a   actor_88_update
     00185A92  GBVM$actor_88_update$c3b641dd_3b   actor_88_update
     00185A9A  GBVM$actor_88_update$612c6730_cf   actor_88_update
     00185AA3  GBVM$actor_88_update$3ad554f5_39   actor_88_update
     00185AC6  GBVM$actor_88_update$3d243bf8_62   actor_88_update
     00185ACE  GBVM$actor_88_update$6082954b_de   actor_88_update
     00185AF1  GBVM$actor_88_update$21d6b0fe_c2   actor_88_update
     00185B14  GBVM$actor_88_update$bdb4b241_80   actor_88_update
     00185B29  GBVM$actor_88_update$56ff3d5a_af   actor_88_update
     00185B32  GBVM$actor_88_update$8cc35941_d4   actor_88_update
     00185B32  GBVM_END$actor_88_update$bdb4b24   actor_88_update
     00185B47  GBVM$actor_88_update$f790f432_91   actor_88_update
     00185B50  GBVM$actor_88_update$a667a9e2_ad   actor_88_update
     00185B50  GBVM_END$actor_88_update$8cc3594   actor_88_update
     00185B65  GBVM$actor_88_update$1af7b858_1e   actor_88_update
     00185B6E  GBVM$actor_88_update$4c38cc66_ac   actor_88_update
     00185B6E  GBVM_END$actor_88_update$a667a9e   actor_88_update
     00185B83  GBVM$actor_88_update$9ac911b4_1f   actor_88_update
     00185B8C  GBVM$actor_88_update$cc5246eb_b4   actor_88_update
     00185B8C  GBVM_END$actor_88_update$4c38cc6   actor_88_update
     00185BA1  GBVM$actor_88_update$99976881_67   actor_88_update
     00185BAA  GBVM_END$actor_88_update$cc5246e   actor_88_update
     00185BAF  ___func_bg_productivity_too_low_   bg_productivity_too_low_tile
     00185BAF  _bg_productivity_too_low_tileset   bg_productivity_too_low_tile
     00185D01  ___func_bg_stress_too_high_tiles   bg_stress_too_high_tileset
ASxxxx Linker V03.00/V05.40 + sdld,  page 114.
Hexadecimal  [32-Bits]

Area                                    Addr        Size        Decimal Bytes (Attributes)
--------------------------------        ----        ----        ------- ----- ------------
_CODE_24                            00184000    00003FFF =       16383. bytes (REL,CON)

      Value  Global                              Global Defined In Module
      -----  --------------------------------   ------------------------
     00185D01  _bg_stress_too_high_tileset        bg_stress_too_high_tileset
     00185E03  ___func_scene_1_actors             scene_1_actors
     00185E03  _scene_1_actors                    scene_1_actors
     00185F3B  ___func_scene_26_actors            scene_26_actors
     00185F3B  _scene_26_actors                   scene_26_actors
     00186073  _scene_31_init                     scene_31_init
     00186076  GBVM$scene_31_init$d0b3b1c1_7797   scene_31_init
     00186080  GBVM$scene_31_init$97038b09_29a1   scene_31_init
     00186081  GBVM$scene_31_init$14cc49f4_75b2   scene_31_init
     00186085  GBVM$scene_31_init$ca9e456e_232a   scene_31_init
     0018608A  GBVM$scene_31_init$autofade$3f7b   scene_31_init
     00186095  GBVM$scene_31_init$611072a7_0898   scene_31_init
     0018610B  GBVM$scene_31_init$374221e2_ccf8   scene_31_init
     00186114  GBVM$scene_31_init$56ec3b2a_e92d   scene_31_init
     00186118  GBVM$scene_31_init$c914fcf5_7b20   scene_31_init
     0018614D  GBVM$scene_31_init$96319785_8ad6   scene_31_init
     00186151  GBVM$scene_31_init$5ab786d6_0627   scene_31_init
     00186183  GBVM_END$scene_31_init$374221e2_   scene_31_init
     00186184  _scene_39_init                     scene_39_init
     00186187  GBVM$scene_39_init$8f97ef05_a4e5   scene_39_init
     0018618F  GBVM$scene_39_init$b3e79868_7137   scene_39_init
     00186198  GBVM$scene_39_init$ff99250b_4f6d   scene_39_init
     001861A1  GBVM$scene_39_init$d03f6190_60d3   scene_39_init
     001861A8  GBVM$scene_39_init$a6be49ac_578d   scene_39_init
     001861AC  GBVM$scene_39_init$4fc3bda7_7e54   scene_39_init
     001861AC  GBVM_END$scene_39_init$ff99250b_   scene_39_init
     001861BD  GBVM$scene_39_init$06297767_e318   scene_39_init
     001861C6  GBVM$scene_39_init$autofade$5dc5   scene_39_init
     001861D1  GBVM$scene_39_init$f4f5c188_6c52   scene_39_init
     001861F4  GBVM$scene_39_init$3fc0e715_cfe3   scene_39_init
     00186200  GBVM$scene_39_init$fd54f9ac_b637   scene_39_init
     00186209  GBVM$scene_39_init$bb644ee9_94f5   scene_39_init
     00186215  GBVM$scene_39_init$09f8494b_9cf0   scene_39_init
     0018621E  GBVM$scene_39_init$267610c8_4019   scene_39_init
     0018622A  GBVM$scene_39_init$a6574651_61d2   scene_39_init
     0018624D  GBVM$scene_39_init$8a807eb2_81a5   scene_39_init
     00186256  GBVM$scene_39_init$3b965697_36d4   scene_39_init
     00186262  GBVM$scene_39_init$7a509ee6_99c9   scene_39_init
     00186297  GBVM$scene_39_init$543ad643_05d3   scene_39_init
     0018629B  GBVM$scene_39_init$4b4c1616_9a3f   scene_39_init
     001862CD  GBVM_END$scene_39_init$8a807eb2_   scene_39_init
     001862CE  ___func_scene_47_collisions        scene_47_collisions
     001862CE  _scene_47_collisions               scene_47_collisions
     00186436  ___func_scene_6_collisions         scene_6_collisions
     00186436  _scene_6_collisions                scene_6_collisions
     0018659E  ___func_scene_7_collisions         scene_7_collisions
     0018659E  _scene_7_collisions                scene_7_collisions
     00186706  ___func_scene_8_collisions         scene_8_collisions
     00186706  _scene_8_collisions                scene_8_collisions
     0018686E  ___func_scene_9_collisions         scene_9_collisions
     0018686E  _scene_9_collisions                scene_9_collisions
ASxxxx Linker V03.00/V05.40 + sdld,  page 115.
Hexadecimal  [32-Bits]

Area                                    Addr        Size        Decimal Bytes (Attributes)
--------------------------------        ----        ----        ------- ----- ------------
_CODE_24                            00184000    00003FFF =       16383. bytes (REL,CON)

      Value  Global                              Global Defined In Module
      -----  --------------------------------   ------------------------
     001869D6  _script_input_123                  script_input_123
     001869D8  GBVM$script_input_123$ec2ecc1a_0   script_input_123
     00186A91  GBVM$script_input_123$d4f2376b_4   script_input_123
     00186A9D  GBVM$script_input_123$d474ff32_d   script_input_123
     00186AA2  GBVM$script_input_123$bfb26d0a_b   script_input_123
     00186B07  GBVM$script_input_123$5986ea8f_a   script_input_123
     00186B39  GBVM_END$script_input_123$d4f237   script_input_123
     00186B3A  _script_input_22                   script_input_22
     00186B3C  GBVM$script_input_22$5c8ecac3_d4   script_input_22
     00186B45  GBVM$script_input_22$3d41736f_d5   script_input_22
     00186BD1  GBVM$script_input_22$0b7fb932_c8   script_input_22
     00186C06  GBVM$script_input_22$a8242e41_b4   script_input_22
     00186CA1  GBVM_END$script_input_22$5c8ecac   script_input_22
     00186CA2  _script_input_28                   script_input_28
     00186CA4  GBVM$script_input_28$715d6bc7_4f   script_input_28
     00186CA9  GBVM$script_input_28$3fb12930_26   script_input_28
     00186D02  GBVM$script_input_28$13ba963a_c3   script_input_28
     00186D56  GBVM$script_input_28$03fe34f2_0a   script_input_28
     00186D60  GBVM$script_input_28$d5ad5ff8_0f   script_input_28
     00186D68  GBVM$script_input_28$b1906997_f8   script_input_28
     00186D68  GBVM_END$script_input_28$d5ad5ff   script_input_28
     00186D9B  _script_input_50                   script_input_50
     00186D9D  GBVM$script_input_50$b1f2886f_05   script_input_50
     00186DA9  GBVM$script_input_50$431e8a14_c6   script_input_50
     00186E33  GBVM$script_input_50$a059595a_72   script_input_50
     00186E33  GBVM$script_input_50$e8086667_97   script_input_50
     00186E43  GBVM$script_input_50$0988a80b_cd   script_input_50
     00186E53  GBVM$script_input_50$b6b55457_20   script_input_50
     00186E63  GBVM$script_input_50$832b57c6_7c   script_input_50
     00186E73  GBVM$script_input_50$9a5526d5_fe   script_input_50
     00186E83  GBVM$script_input_50$2b51e20c_f2   script_input_50
     00186E93  GBVM$script_input_50$ea3bce48_64   script_input_50
     00186EA3  GBVM$script_input_50$c61331a2_21   script_input_50
     00186EB3  GBVM$script_input_50$c4486495_5e   script_input_50
     00186EB3  GBVM_END$script_input_50$a059595   script_input_50
     00186EB8  GBVM_END$script_input_50$b1f2886   script_input_50
     00186EB9  _script_input_98                   script_input_98
     00186EBB  GBVM$script_input_98$3d020b31_42   script_input_98
     00186EC1  GBVM$script_input_98$419f0b27_1d   script_input_98
     00186ECA  GBVM$script_input_98$07d05346_5e   script_input_98
     00186ECA  GBVM$script_input_98$7dc11b7f_4e   script_input_98
     00186ECF  GBVM$script_input_98$557eddb3_bd   script_input_98
     00186ED4  GBVM$script_input_98$e1f393a7_5d   script_input_98
     00186ED9  GBVM$script_input_98$ae8e7a55_95   script_input_98
     00186EDE  GBVM$script_input_98$e536a9b7_02   script_input_98
     00186EE3  GBVM$script_input_98$3d3e6da1_1a   script_input_98
     00186EE8  GBVM$script_input_98$0fdcc0fa_79   script_input_98
     00186EED  GBVM$script_input_98$8cc7d308_98   script_input_98
     00186EF2  GBVM$script_input_98$1d4165ee_39   script_input_98
     00186EF7  GBVM$script_input_98$92d2178c_23   script_input_98
     00186EFC  GBVM$script_input_98$1b9ac1b5_45   script_input_98
ASxxxx Linker V03.00/V05.40 + sdld,  page 116.
Hexadecimal  [32-Bits]

Area                                    Addr        Size        Decimal Bytes (Attributes)
--------------------------------        ----        ----        ------- ----- ------------
_CODE_24                            00184000    00003FFF =       16383. bytes (REL,CON)

      Value  Global                              Global Defined In Module
      -----  --------------------------------   ------------------------
     00186F2E  GBVM_END$script_input_98$7dc11b7   script_input_98
     00186F31  GBVM$script_input_98$8ac42541_9e   script_input_98
     00186F43  GBVM$script_input_98$af454235_93   script_input_98
     00186F78  GBVM$script_input_98$e935a409_fc   script_input_98
     00186F7D  GBVM$script_input_98$7235d70a_ca   script_input_98
     00186FAF  GBVM_END$script_input_98$419f0b2   script_input_98
     00186FAF  GBVM_END$script_input_98$8ac4254   script_input_98
     00186FB0  ___func_sprite_boombar_tileset     sprite_boombar_tileset
     00186FB0  _sprite_boombar_tileset            sprite_boombar_tileset
     00187092  ___func_sprite_breakbar_tileset    sprite_breakbar_tileset
     00187092  _sprite_breakbar_tileset           sprite_breakbar_tileset
     00187174  ___func_sprite_energy_bars         sprite_energy_bars
     00187174  _sprite_energy_bars_metasprite_0   sprite_energy_bars
     001871A0  _sprite_energy_bars_metasprite_1   sprite_energy_bars
     001871CC  _sprite_energy_bars_metasprite_2   sprite_energy_bars
     001871F8  _sprite_energy_bars_metasprite_3   sprite_energy_bars
     00187224  _sprite_energy_bars_metasprites    sprite_energy_bars
     0018722C  _sprite_energy_bars_animations     sprite_energy_bars
     0018724C  _sprite_energy_bars_animations_l   sprite_energy_bars
     0018725E  _sprite_energy_bars                sprite_energy_bars
     00187271  ___func_sprite_interact_button_b   sprite_interact_button_bank2
     00187271  _sprite_interact_button_bank2_ti   sprite_interact_button_bank2
     00187353  ___func_sprite_interact_button_t   sprite_interact_button_tiles
     00187353  _sprite_interact_button_tileset    sprite_interact_button_tiles
     00187455  ___func_sprite_interact_button     sprite_interact_button
     00187455  _sprite_interact_button_metaspri   sprite_interact_button
     0018745D  _sprite_interact_button_metaspri   sprite_interact_button
     00187465  _sprite_interact_button_metaspri   sprite_interact_button
     0018746D  _sprite_interact_button_metaspri   sprite_interact_button
     00187475  _sprite_interact_button_metaspri   sprite_interact_button
     00187485  _sprite_interact_button_metaspri   sprite_interact_button
     00187495  _sprite_interact_button_metaspri   sprite_interact_button
     001874A5  _sprite_interact_button_metaspri   sprite_interact_button
     001874B5  _sprite_interact_button_metaspri   sprite_interact_button
     001874C5  _sprite_interact_button_metaspri   sprite_interact_button
     001874D7  _sprite_interact_button_animatio   sprite_interact_button
     00187547  _sprite_interact_button_animatio   sprite_interact_button
     00187569  _sprite_interact_button            sprite_interact_button
     0018757C  ___func_sprite_items_bank2_tiles   sprite_items_bank2_tileset
     0018757C  _sprite_items_bank2_tileset        sprite_items_bank2_tileset
     0018767E  ___func_sprite_items_tileset       sprite_items_tileset
     0018767E  _sprite_items_tileset              sprite_items_tileset
     001877A0  ___func_sprite_peekers_bank2_til   sprite_peekers_bank2_tileset
     001877A0  _sprite_peekers_bank2_tileset      sprite_peekers_bank2_tileset
     00187902  ___func_sprite_peekers_tileset     sprite_peekers_tileset
     00187902  _sprite_peekers_tileset            sprite_peekers_tileset
     00187A64  ___func_sprite_peekers             sprite_peekers
     00187A64  _sprite_peekers_metasprite_0       sprite_peekers
     00187A70  _sprite_peekers_metasprite_1       sprite_peekers
     00187A7C  _sprite_peekers_metasprite_2       sprite_peekers
     00187A98  _sprite_peekers_metasprite_3       sprite_peekers
ASxxxx Linker V03.00/V05.40 + sdld,  page 117.
Hexadecimal  [32-Bits]

Area                                    Addr        Size        Decimal Bytes (Attributes)
--------------------------------        ----        ----        ------- ----- ------------
_CODE_24                            00184000    00003FFF =       16383. bytes (REL,CON)

      Value  Global                              Global Defined In Module
      -----  --------------------------------   ------------------------
     00187AB0  _sprite_peekers_metasprite_4       sprite_peekers
     00187AC8  _sprite_peekers_metasprite_5       sprite_peekers
     00187AE0  _sprite_peekers_metasprites        sprite_peekers
     00187AEC  _sprite_peekers_animations         sprite_peekers
     00187B1C  _sprite_peekers_animations_looku   sprite_peekers
     00187B32  _sprite_peekers                    sprite_peekers
     00187B45  _trigger_10_interact               trigger_10_interact
     00187B59  GBVM$trigger_10_interact$a0c36c7   trigger_10_interact
     00187B65  GBVM$trigger_10_interact$79a6e6f   trigger_10_interact
     00187B6E  GBVM$trigger_10_interact$17a2127   trigger_10_interact
     00187B7A  GBVM$trigger_10_interact$2c04aff   trigger_10_interact
     00187B89  GBVM$trigger_10_interact$5a049df   trigger_10_interact
     00187B93  GBVM$trigger_10_interact$b99844e   trigger_10_interact
     00187B9B  GBVM_END$trigger_10_interact$17a   trigger_10_interact
     00187B9B  GBVM_END$trigger_10_interact$b99   trigger_10_interact
     00187B9E  GBVM$trigger_10_interact$03af16d   trigger_10_interact
     00187BAD  GBVM$trigger_10_interact$d61a923   trigger_10_interact
     00187BB7  GBVM$trigger_10_interact$2503bb0   trigger_10_interact
     00187BBF  GBVM_END$trigger_10_interact$250   trigger_10_interact
     00187BBF  GBVM_END$trigger_10_interact$79a   trigger_10_interact
     00187BBF  GBVM_END$trigger_10_interact$a0c   trigger_10_interact
     00187BD1  GBVM$trigger_10_interact$d5d6c26   trigger_10_interact
     00187BDB  GBVM$trigger_10_interact$6bdf5df   trigger_10_interact
     00187BE3  GBVM_END$trigger_10_interact$6bd   trigger_10_interact
     00187BE5  _trigger_31_interact               trigger_31_interact
     00187BE8  GBVM$trigger_31_interact$811be20   trigger_31_interact
     00187BF4  GBVM$trigger_31_interact$d74c39f   trigger_31_interact
     00187BFE  GBVM$trigger_31_interact$74d64d2   trigger_31_interact
     00187C03  GBVM$trigger_31_interact$591a91d   trigger_31_interact
     00187C43  GBVM$trigger_31_interact$c9ed72e   trigger_31_interact
     00187C4C  GBVM$trigger_31_interact$41ad2bf   trigger_31_interact
     00187C98  GBVM$trigger_31_interact$7d815dc   trigger_31_interact
     00187C9D  GBVM$trigger_31_interact$039519d   trigger_31_interact
     00187D20  GBVM_END$trigger_31_interact$811   trigger_31_interact
     00187D20  GBVM_END$trigger_31_interact$c9e   trigger_31_interact
     00187D21  _trigger_41_interact               trigger_41_interact
     00187D24  GBVM$trigger_41_interact$c6aa2db   trigger_41_interact
     00187D2D  GBVM$trigger_41_interact$973cdcb   trigger_41_interact
     00187D62  GBVM$trigger_41_interact$8f46484   trigger_41_interact
     00187D6B  GBVM$trigger_41_interact$bda600b   trigger_41_interact
     00187D74  GBVM$trigger_41_interact$868203f   trigger_41_interact
     00187DA9  GBVM$trigger_41_interact$6059305   trigger_41_interact
     00187DDB  GBVM_END$trigger_41_interact$bda   trigger_41_interact
     00187DDE  GBVM$trigger_41_interact$aae6272   trigger_41_interact
     00187E10  GBVM_END$trigger_41_interact$8f4   trigger_41_interact
     00187E10  GBVM_END$trigger_41_interact$c6a   trigger_41_interact
     00187E11  _trigger_52_interact               trigger_52_interact
     00187E14  GBVM$trigger_52_interact$95fcf7c   trigger_52_interact
     00187E20  GBVM$trigger_52_interact$c24846c   trigger_52_interact
     00187E2A  GBVM$trigger_52_interact$c7b5ff2   trigger_52_interact
     00187E2F  GBVM$trigger_52_interact$a00ebb4   trigger_52_interact
ASxxxx Linker V03.00/V05.40 + sdld,  page 118.
Hexadecimal  [32-Bits]

Area                                    Addr        Size        Decimal Bytes (Attributes)
--------------------------------        ----        ----        ------- ----- ------------
_CODE_24                            00184000    00003FFF =       16383. bytes (REL,CON)

      Value  Global                              Global Defined In Module
      -----  --------------------------------   ------------------------
     00187E74  GBVM$trigger_52_interact$3006b9e   trigger_52_interact
     00187E80  GBVM$trigger_52_interact$f1ae404   trigger_52_interact
     00187E85  GBVM$trigger_52_interact$52558c4   trigger_52_interact
     00187F07  GBVM_END$trigger_52_interact$300   trigger_52_interact
     00187F07  GBVM_END$trigger_52_interact$95f   trigger_52_interact
     00187F08  _trigger_54_interact               trigger_54_interact
     00187F0B  GBVM$trigger_54_interact$123f4df   trigger_54_interact
     00187F17  GBVM$trigger_54_interact$c39372b   trigger_54_interact
     00187F21  GBVM$trigger_54_interact$5bbd638   trigger_54_interact
     00187F26  GBVM$trigger_54_interact$2eacef3   trigger_54_interact
     00187F6B  GBVM$trigger_54_interact$2fe0bcd   trigger_54_interact
     00187F77  GBVM$trigger_54_interact$120caf4   trigger_54_interact
     00187F7C  GBVM$trigger_54_interact$0ce93d0   trigger_54_interact
     00187FFE  GBVM_END$trigger_54_interact$123   trigger_54_interact
     00187FFE  GBVM_END$trigger_54_interact$2fe   trigger_54_interact

ASxxxx Linker V03.00/V05.40 + sdld,  page 119.
Hexadecimal  [32-Bits]

Area                                    Addr        Size        Decimal Bytes (Attributes)
--------------------------------        ----        ----        ------- ----- ------------
_CODE_16                            00104000    00003FFF =       16383. bytes (REL,CON)

      Value  Global                              Global Defined In Module
      -----  --------------------------------   ------------------------
     00104000  _projectiles_init                  projectiles
     0010402F  _projectile_launch                 projectiles
     00104429  _actor_92_interact                 actor_92_interact
     0010443C  GBVM$actor_92_interact$dfca1ee4_   actor_92_interact
     0010443D  GBVM$actor_92_interact$163f3747_   actor_92_interact
     00104449  GBVM$actor_92_interact$7acc980d_   actor_92_interact
     00104455  GBVM$actor_92_interact$6df5341f_   actor_92_interact
     0010445E  GBVM$actor_92_interact$8b56044d_   actor_92_interact
     0010446A  GBVM$actor_92_interact$0db272be_   actor_92_interact
     0010447D  GBVM$actor_92_interact$1fe207fd_   actor_92_interact
     00104486  GBVM$actor_92_interact$293650c8_   actor_92_interact
     00104495  GBVM$actor_92_interact$c14b3c9d_   actor_92_interact
     0010449A  GBVM$actor_92_interact$e2e42a5e_   actor_92_interact
     0010498E  GBVM$actor_92_interact$c37707af_   actor_92_interact
     0010498E  GBVM_END$actor_92_interact$1fe20   actor_92_interact
     001049C2  ___func_bg_cubicle_b_tilemap_att   bg_cubicle_b_tilemap_attr
     001049C2  _bg_cubicle_b_tilemap_attr         bg_cubicle_b_tilemap_attr
     00104F08  ___func_bg_cubicle_b_tilemap       bg_cubicle_b_tilemap
     00104F08  _bg_cubicle_b_tilemap              bg_cubicle_b_tilemap
     0010544E  ___func_bg_cubicle_c_tilemap_att   bg_cubicle_c_tilemap_attr
     0010544E  _bg_cubicle_c_tilemap_attr         bg_cubicle_c_tilemap_attr
     00105994  ___func_bg_cubicle_c_tilemap       bg_cubicle_c_tilemap
     00105994  _bg_cubicle_c_tilemap              bg_cubicle_c_tilemap
     00105EDA  ___func_bg_hallway_tileset         bg_hallway_tileset
     00105EDA  _bg_hallway_tileset                bg_hallway_tileset
     0010643C  ___func_bg_secret_zone_1_tilemap   bg_secret_zone_1_tilemap_att
     0010643C  _bg_secret_zone_1_tilemap_attr     bg_secret_zone_1_tilemap_att
     001069CA  ___func_bg_secret_zone_1_tilemap   bg_secret_zone_1_tilemap
     001069CA  _bg_secret_zone_1_tilemap          bg_secret_zone_1_tilemap
     00106F58  ___func_bg_title_screen_tileset    bg_title_screen_tileset
     00106F58  _bg_title_screen_tileset           bg_title_screen_tileset
     001074CA  _scene_15_init                     scene_15_init
     001074CD  GBVM$scene_15_init$e01a948c_7187   scene_15_init
     001074D6  GBVM$scene_15_init$cb150c3b_6121   scene_15_init
     001074E5  GBVM$scene_15_init$4668b3c2_490a   scene_15_init
     001074EF  GBVM$scene_15_init$c79cfc71_0a2b   scene_15_init
     001074F8  GBVM$scene_15_init$5223b370_3844   scene_15_init
     00107505  GBVM$scene_15_init$e53a49af_98d3   scene_15_init
     0010750E  GBVM$scene_15_init$7c8fdec0_10d7   scene_15_init
     00107516  GBVM$scene_15_init$bd7bcba5_7f9d   scene_15_init
     00107516  GBVM_END$scene_15_init$7c8fdec0_   scene_15_init
     0010752B  GBVM$scene_15_init$da2e4070_53a6   scene_15_init
     0010753B  GBVM$scene_15_init$ba41303d_1992   scene_15_init
     0010753B  GBVM_END$scene_15_init$bd7bcba5_   scene_15_init
     00107550  GBVM$scene_15_init$a443e923_037c   scene_15_init
     00107560  GBVM$scene_15_init$839ec950_d82f   scene_15_init
     00107560  GBVM_END$scene_15_init$ba41303d_   scene_15_init
     00107575  GBVM$scene_15_init$47278444_7e85   scene_15_init
     00107585  GBVM$scene_15_init$df97d6ea_6bde   scene_15_init
     00107585  GBVM_END$scene_15_init$839ec950_   scene_15_init
ASxxxx Linker V03.00/V05.40 + sdld,  page 120.
Hexadecimal  [32-Bits]

Area                                    Addr        Size        Decimal Bytes (Attributes)
--------------------------------        ----        ----        ------- ----- ------------
_CODE_16                            00104000    00003FFF =       16383. bytes (REL,CON)

      Value  Global                              Global Defined In Module
      -----  --------------------------------   ------------------------
     0010759A  GBVM$scene_15_init$09c7dc1b_edcc   scene_15_init
     001075AA  GBVM$scene_15_init$ed2aeec4_b828   scene_15_init
     001075AA  GBVM_END$scene_15_init$df97d6ea_   scene_15_init
     001075BF  GBVM$scene_15_init$97ecbd3c_74d7   scene_15_init
     001075CF  GBVM$scene_15_init$e03b06fc_cde2   scene_15_init
     001075CF  GBVM_END$scene_15_init$ed2aeec4_   scene_15_init
     001075E4  GBVM$scene_15_init$38f90122_8fef   scene_15_init
     001075F4  GBVM$scene_15_init$cdbbf278_2bf0   scene_15_init
     001075F4  GBVM_END$scene_15_init$e03b06fc_   scene_15_init
     00107609  GBVM$scene_15_init$fd1fe626_704d   scene_15_init
     00107619  GBVM$scene_15_init$767ed8be_6e28   scene_15_init
     00107619  GBVM_END$scene_15_init$cdbbf278_   scene_15_init
     0010762E  GBVM$scene_15_init$7e1cb9be_5f25   scene_15_init
     0010763E  GBVM$scene_15_init$43b3b617_c93e   scene_15_init
     0010763E  GBVM_END$scene_15_init$767ed8be_   scene_15_init
     00107653  GBVM$scene_15_init$9145fa78_379a   scene_15_init
     00107663  GBVM$scene_15_init$edaf362d_d95c   scene_15_init
     00107663  GBVM_END$scene_15_init$43b3b617_   scene_15_init
     00107678  GBVM$scene_15_init$79de1c5f_7096   scene_15_init
     00107688  GBVM$scene_15_init$33a8db90_c06e   scene_15_init
     00107688  GBVM_END$scene_15_init$edaf362d_   scene_15_init
     0010769D  GBVM$scene_15_init$1a49838e_5abd   scene_15_init
     001076AD  GBVM$scene_15_init$d9929d26_ddd7   scene_15_init
     001076AD  GBVM_END$scene_15_init$33a8db90_   scene_15_init
     001076C2  GBVM$scene_15_init$da8b26f5_546c   scene_15_init
     001076D2  GBVM$scene_15_init$de02c256_917d   scene_15_init
     001076D2  GBVM_END$scene_15_init$d9929d26_   scene_15_init
     001076E7  GBVM$scene_15_init$50c87267_7964   scene_15_init
     001076F7  GBVM$scene_15_init$ca8bbdc5_b4dd   scene_15_init
     001076F7  GBVM_END$scene_15_init$de02c256_   scene_15_init
     0010770C  GBVM$scene_15_init$2c12cf2f_cf3a   scene_15_init
     0010771C  GBVM$scene_15_init$78bdaa15_f1e7   scene_15_init
     0010771C  GBVM_END$scene_15_init$ca8bbdc5_   scene_15_init
     00107731  GBVM$scene_15_init$c0175b41_2b5a   scene_15_init
     00107741  GBVM$scene_15_init$3c9eb912_b4d8   scene_15_init
     00107741  GBVM_END$scene_15_init$78bdaa15_   scene_15_init
     00107756  GBVM$scene_15_init$c11793f7_e66d   scene_15_init
     00107766  GBVM$scene_15_init$bcff27f5_763d   scene_15_init
     00107766  GBVM_END$scene_15_init$3c9eb912_   scene_15_init
     0010777B  GBVM$scene_15_init$575c80b6_6f43   scene_15_init
     0010778B  GBVM$scene_15_init$ca8ac072_e5e2   scene_15_init
     0010778B  GBVM_END$scene_15_init$bcff27f5_   scene_15_init
     001077A0  GBVM$scene_15_init$36e10a7c_09c9   scene_15_init
     001077B0  GBVM$scene_15_init$dbf0926d_1738   scene_15_init
     001077B0  GBVM_END$scene_15_init$ca8ac072_   scene_15_init
     001077C5  GBVM$scene_15_init$1491347b_f5f5   scene_15_init
     001077D5  GBVM$scene_15_init$3876c551_ff6a   scene_15_init
     001077D5  GBVM_END$scene_15_init$dbf0926d_   scene_15_init
     001077EA  GBVM$scene_15_init$1f87b74b_c19e   scene_15_init
     001077FA  GBVM$scene_15_init$9c3bc914_aafd   scene_15_init
     001077FA  GBVM_END$scene_15_init$3876c551_   scene_15_init
ASxxxx Linker V03.00/V05.40 + sdld,  page 121.
Hexadecimal  [32-Bits]

Area                                    Addr        Size        Decimal Bytes (Attributes)
--------------------------------        ----        ----        ------- ----- ------------
_CODE_16                            00104000    00003FFF =       16383. bytes (REL,CON)

      Value  Global                              Global Defined In Module
      -----  --------------------------------   ------------------------
     0010780F  GBVM$scene_15_init$66de0d3c_582f   scene_15_init
     0010781F  GBVM$scene_15_init$7035980b_c1c4   scene_15_init
     0010781F  GBVM_END$scene_15_init$9c3bc914_   scene_15_init
     00107834  GBVM$scene_15_init$2dc135af_cec6   scene_15_init
     00107844  GBVM$scene_15_init$95811ffa_d16b   scene_15_init
     00107844  GBVM_END$scene_15_init$7035980b_   scene_15_init
     00107859  GBVM$scene_15_init$b61badd0_7907   scene_15_init
     00107869  GBVM$scene_15_init$413be904_3d45   scene_15_init
     00107869  GBVM_END$scene_15_init$95811ffa_   scene_15_init
     0010787E  GBVM$scene_15_init$f3f62ffd_72c4   scene_15_init
     0010788E  GBVM$scene_15_init$11426ff5_8625   scene_15_init
     0010788E  GBVM_END$scene_15_init$413be904_   scene_15_init
     001078A3  GBVM$scene_15_init$750f1e0f_2597   scene_15_init
     001078B3  GBVM$scene_15_init$f9cdd3a0_7ae8   scene_15_init
     001078B3  GBVM_END$scene_15_init$11426ff5_   scene_15_init
     001078C8  GBVM$scene_15_init$b525676c_5bd9   scene_15_init
     001078D8  GBVM$scene_15_init$ef74240f_4a7d   scene_15_init
     001078D8  GBVM_END$scene_15_init$f9cdd3a0_   scene_15_init
     001078ED  GBVM$scene_15_init$c42f4857_17e1   scene_15_init
     001078FD  GBVM$scene_15_init$c8fab59a_27c8   scene_15_init
     001078FD  GBVM_END$scene_15_init$ef74240f_   scene_15_init
     00107912  GBVM$scene_15_init$71a8e423_74b6   scene_15_init
     00107922  GBVM$scene_15_init$6605b78a_cb4b   scene_15_init
     00107922  GBVM_END$scene_15_init$c8fab59a_   scene_15_init
     00107937  GBVM$scene_15_init$91fdac6f_09d9   scene_15_init
     00107947  GBVM$scene_15_init$cdb00b53_fbdb   scene_15_init
     00107947  GBVM_END$scene_15_init$6605b78a_   scene_15_init
     0010795C  GBVM$scene_15_init$816e61d0_5dfd   scene_15_init
     0010796C  GBVM$scene_15_init$916218e8_4300   scene_15_init
     0010796C  GBVM_END$scene_15_init$c79cfc71_   scene_15_init
     0010796C  GBVM_END$scene_15_init$cdb00b53_   scene_15_init
     00107975  GBVM$scene_15_init$097eb4f4_d928   scene_15_init
     00107981  GBVM$scene_15_init$29d67389_9481   scene_15_init
     00107992  GBVM$scene_15_init$autofade$5843   scene_15_init
     00107992  GBVM_END$scene_15_init$097eb4f4_   scene_15_init
     0010799D  GBVM$scene_15_init$651111c3_80eb   scene_15_init
     001079A9  GBVM$scene_15_init$bfe2f8ac_ff57   scene_15_init
     001079AE  GBVM$scene_15_init$b217e2a7_131a   scene_15_init
     001079BA  GBVM$scene_15_init$c340f49f_f90b   scene_15_init
     001079CD  GBVM$scene_15_init$a873d056_2775   scene_15_init
     001079EF  GBVM$scene_15_init$2b608706_1887   scene_15_init
     001079EF  GBVM$scene_15_init$c1525526_61bd   scene_15_init
     001079EF  GBVM_END$scene_15_init$651111c3_   scene_15_init
     001079F7  GBVM$scene_15_init$63321f41_f006   scene_15_init
     00107A00  GBVM$scene_15_init$5f042292_e8dd   scene_15_init
     00107A02  GBVM$scene_15_init$d0155032_717a   scene_15_init
     00107A0A  GBVM$scene_15_init$2e5a152f_eb6e   scene_15_init
     00107A0A  GBVM_END$scene_15_init$d0155032_   scene_15_init
     00107A1C  GBVM$scene_15_init$dce3fcfa_aaf7   scene_15_init
     00107A24  GBVM$scene_15_init$b0b9d758_f5f5   scene_15_init
     00107A2C  GBVM_END$scene_15_init$2e5a152f_   scene_15_init
ASxxxx Linker V03.00/V05.40 + sdld,  page 122.
Hexadecimal  [32-Bits]

Area                                    Addr        Size        Decimal Bytes (Attributes)
--------------------------------        ----        ----        ------- ----- ------------
_CODE_16                            00104000    00003FFF =       16383. bytes (REL,CON)

      Value  Global                              Global Defined In Module
      -----  --------------------------------   ------------------------
     00107A2C  GBVM_END$scene_15_init$b0b9d758_   scene_15_init
     00107A2D  ___func_scene_38_collisions        scene_38_collisions
     00107A2D  _scene_38_collisions               scene_38_collisions
     00107FBB  _trigger_58_interact               trigger_58_interact
     00107FCF  GBVM$trigger_58_interact$27c7205   trigger_58_interact
     00107FDB  GBVM$trigger_58_interact$521af71   trigger_58_interact
     00107FE3  GBVM_END$trigger_58_interact$27c   trigger_58_interact
     00107FE3  GBVM_END$trigger_58_interact$521   trigger_58_interact
     00107FF5  GBVM$trigger_58_interact$e4c1f7c   trigger_58_interact
     00107FFD  GBVM_END$trigger_58_interact$e4c   trigger_58_interact
ASxxxx Linker V03.00/V05.40 + sdld,  page 123.
Hexadecimal  [32-Bits]

Area                                    Addr        Size        Decimal Bytes (Attributes)
--------------------------------        ----        ----        ------- ----- ------------
_CODE_14                            000E4000    00003FFF =       16383. bytes (REL,CON)

      Value  Global                              Global Defined In Module
      -----  --------------------------------   ------------------------
     000E4000  _scroll_init                       scroll
     000E402A  _scroll_reset                      scroll
     000E404A  _scroll_update                     scroll
     000E4181  _scroll_viewport                   scroll
     000E461A  _scroll_repaint                    scroll
     000E462A  _scroll_render_rows                scroll
     000E46C0  _scroll_queue_row                  scroll
     000E46E2  _scroll_queue_col                  scroll
     000E472D  ___func_VM_UI                      vm_ui
     000E472D  _vm_display_text                   vm_ui
     000E4796  _vm_switch_text_layer              vm_ui
     000E47B0  _vm_overlay_setpos                 vm_ui
     000E47CA  _vm_overlay_wait                   vm_ui
     000E485A  _vm_overlay_move_to                vm_ui
     000E489E  _vm_overlay_set_scroll             vm_ui
     000E48D7  _vm_overlay_clear                  vm_ui
     000E49A9  _vm_overlay_show                   vm_ui
     000E49F7  _vm_choice                         vm_ui
     000E4B12  _vm_set_font                       vm_ui
     000E4B41  _vm_overlay_scroll                 vm_ui
     000E4BA2  _vm_overlay_set_submap             vm_ui
     000E4C0E  _vm_overlay_set_submap_ex          vm_ui
     000E4D0F  _vm_overlay_set_map                vm_ui
     000E4E6E  _vm_set_text_sound                 vm_ui
     000E4E87  ___func_avatar_font_0              avatar_font_0
     000E50EB  _avatar_font_0                     avatar_font_0
     000E50F3  ___func_bg_final_escape_2_tilese   bg_final_escape_2_tileset
     000E50F3  _bg_final_escape_2_tileset         bg_final_escape_2_tileset
     000E58F5  ___func_bg_jumpscare_tileset       bg_jumpscare_tileset
     000E58F5  _bg_jumpscare_tileset              bg_jumpscare_tileset
     000E60F7  ___func_bg_locker_tileset          bg_locker_tileset
     000E60F7  _bg_locker_tileset                 bg_locker_tileset
     000E67F9  ___func_bg_outside_tileset         bg_outside_tileset
     000E67F9  _bg_outside_tileset                bg_outside_tileset
     000E6FFB  ___func_bg_secret_zone_1_tileset   bg_secret_zone_1_tileset
     000E6FFB  _bg_secret_zone_1_tileset          bg_secret_zone_1_tileset
     000E77FD  ___func_bg_work_start_tileset      bg_work_start_tileset
     000E77FD  _bg_work_start_tileset             bg_work_start_tileset

ASxxxx Linker V03.00/V05.40 + sdld,  page 124.
Hexadecimal  [32-Bits]

Area                                    Addr        Size        Decimal Bytes (Attributes)
--------------------------------        ----        ----        ------- ----- ------------
_CODE_1                             00014000    00004000 =       16384. bytes (REL,CON)

      Value  Global                              Global Defined In Module
      -----  --------------------------------   ------------------------
     00014000  _ui_swap_tiles                     
     0001404A  _ui_print_make_mask_lr             
     00014066  _ui_print_make_mask_rl             
     00014082  _ui_init                           ui
     00014153  _ui_load_tiles                     ui
     000141AA  _ui_draw_frame                     ui
     00014244  _ui_print_reset                    ui
     00014295  _ui_set_start_tile                 ui
     000142C1  _ui_print_render                   ui
     00014557  _ui_draw_text_buffer_char          ui
     00014A41  _ui_run_menu                       ui
     00014C18  _ui_run_modal                      ui
     00014CD2  ___func_VM_PROJECTILE              vm_projectiles
     00014CD2  _vm_projectile_launch              vm_projectiles
     00014D13  _vm_projectile_load_type           vm_projectiles
     00014DA5  ___func_VM_SGB                     vm_sgb
     00014DA5  ___func_font_condensed             font_condensed
     00015CCA  _font_condensed                    font_condensed
     00015CD2  ___func_scene_0_sprites            scene_0_sprites
     00015CD2  _scene_0_sprites                   scene_0_sprites
     00015CD5  _script_input                      script_input
     00015CD6  ___func_sound_treasure_wav         sound_treasure_wav
     00015CD6  _sound_treasure_wav                sound_treasure_wav

ASxxxx Linker V03.00/V05.40 + sdld,  page 125.
Hexadecimal  [32-Bits]

Area                                    Addr        Size        Decimal Bytes (Attributes)
--------------------------------        ----        ----        ------- ----- ------------
_CODE_22                            00164000    00003FFE =       16382. bytes (REL,CON)

      Value  Global                              Global Defined In Module
      -----  --------------------------------   ------------------------
     00164000  _set_sgb_border                    sgb_border
     001641EA  ___func_VM_PALETTE                 vm_palette
     001641EA  _vm_load_palette                   vm_palette
     00164393  _actor_106_update                  actor_106_update
     00164395  GBVM$actor_106_update$4d298311_c   actor_106_update
     001643C2  GBVM$actor_106_update$53331980_c   actor_106_update
     001643CE  GBVM$actor_106_update$6011dc4a_a   actor_106_update
     001643D6  GBVM$actor_106_update$a6f3b325_6   actor_106_update
     001643DA  GBVM$actor_106_update$f32c88cb_2   actor_106_update
     001643E4  GBVM$actor_106_update$c487169d_a   actor_106_update
     001643F0  GBVM$actor_106_update$468c4b63_e   actor_106_update
     001643F6  GBVM$actor_106_update$e4ff897d_3   actor_106_update
     00164402  GBVM$actor_106_update$a491489d_1   actor_106_update
     0016440A  GBVM$actor_106_update$f8f98d62_2   actor_106_update
     0016443C  GBVM_END$actor_106_update$533319   actor_106_update
     0016443F  GBVM$actor_106_update$fe8f7d66_4   actor_106_update
     00164452  GBVM$actor_106_update$a5d1604f_c   actor_106_update
     00164465  GBVM$actor_106_update$eabf1286_8   actor_106_update
     00164478  GBVM$actor_106_update$f77cec25_7   actor_106_update
     0016448B  GBVM$actor_106_update$5149f0ce_6   actor_106_update
     0016449E  GBVM$actor_106_update$d2100aea_2   actor_106_update
     001644B1  GBVM$actor_106_update$605ee477_c   actor_106_update
     001644C4  GBVM$actor_106_update$78b47595_8   actor_106_update
     001644D7  GBVM$actor_106_update$e990c79b_6   actor_106_update
     001644EA  GBVM$actor_106_update$1a6dfc5c_3   actor_106_update
     001644FD  GBVM_END$actor_106_update$4d2983   actor_106_update
     00164502  _actor_107_update                  actor_107_update
     00164504  GBVM$actor_107_update$58f52ade_d   actor_107_update
     00164531  GBVM$actor_107_update$c4a1c912_1   actor_107_update
     0016453D  GBVM$actor_107_update$13efb3d7_1   actor_107_update
     00164545  GBVM$actor_107_update$d57a3b10_f   actor_107_update
     00164549  GBVM$actor_107_update$a134faa8_c   actor_107_update
     00164553  GBVM$actor_107_update$80e7ab7a_2   actor_107_update
     0016455F  GBVM$actor_107_update$dbd71d95_b   actor_107_update
     00164565  GBVM$actor_107_update$e9cc685e_4   actor_107_update
     00164571  GBVM$actor_107_update$99575599_1   actor_107_update
     00164579  GBVM$actor_107_update$79e6bb50_5   actor_107_update
     001645AB  GBVM_END$actor_107_update$c4a1c9   actor_107_update
     001645AE  GBVM$actor_107_update$632329ad_5   actor_107_update
     001645C1  GBVM$actor_107_update$2b7a34fa_f   actor_107_update
     001645D4  GBVM$actor_107_update$1bf6c838_0   actor_107_update
     001645E7  GBVM$actor_107_update$6b722d71_a   actor_107_update
     001645FA  GBVM$actor_107_update$69e952aa_0   actor_107_update
     0016460D  GBVM$actor_107_update$ce6c3e65_a   actor_107_update
     00164620  GBVM$actor_107_update$e4392291_c   actor_107_update
     00164633  GBVM$actor_107_update$3f36a8d9_a   actor_107_update
     00164646  GBVM$actor_107_update$9a8de2bc_1   actor_107_update
     00164659  GBVM$actor_107_update$04940cf7_c   actor_107_update
     0016466C  GBVM_END$actor_107_update$58f52a   actor_107_update
     00164671  _actor_99_update                   actor_99_update
ASxxxx Linker V03.00/V05.40 + sdld,  page 126.
Hexadecimal  [32-Bits]

Area                                    Addr        Size        Decimal Bytes (Attributes)
--------------------------------        ----        ----        ------- ----- ------------
_CODE_22                            00164000    00003FFE =       16382. bytes (REL,CON)

      Value  Global                              Global Defined In Module
      -----  --------------------------------   ------------------------
     00164673  GBVM$actor_99_update$232f6850_80   actor_99_update
     0016467F  GBVM$actor_99_update$81d17a87_f6   actor_99_update
     001646AC  GBVM$actor_99_update$b38079e1_8c   actor_99_update
     001646B8  GBVM$actor_99_update$e9fa51b2_c9   actor_99_update
     001646C0  GBVM$actor_99_update$cd5e1a99_4f   actor_99_update
     001646C4  GBVM$actor_99_update$5d6beffc_3a   actor_99_update
     001646CE  GBVM$actor_99_update$0453e129_3d   actor_99_update
     001646DA  GBVM$actor_99_update$72f6056a_3a   actor_99_update
     001646E0  GBVM$actor_99_update$d44b17c5_82   actor_99_update
     001646EC  GBVM$actor_99_update$362da33f_7b   actor_99_update
     001646F4  GBVM$actor_99_update$29841af6_38   actor_99_update
     00164726  GBVM_END$actor_99_update$b38079e   actor_99_update
     00164729  GBVM$actor_99_update$af198f0f_10   actor_99_update
     0016473C  GBVM$actor_99_update$7f9bb721_aa   actor_99_update
     0016474F  GBVM$actor_99_update$48ffaf78_ae   actor_99_update
     00164762  GBVM$actor_99_update$f9532493_d6   actor_99_update
     00164775  GBVM$actor_99_update$aae18885_cb   actor_99_update
     00164788  GBVM$actor_99_update$463b0a4e_31   actor_99_update
     0016479B  GBVM$actor_99_update$cc3ce19c_9a   actor_99_update
     001647AE  GBVM$actor_99_update$8038a315_7d   actor_99_update
     001647C1  GBVM$actor_99_update$fadf555b_4f   actor_99_update
     001647D4  GBVM$actor_99_update$5d5403d5_0b   actor_99_update
     001647E7  GBVM_END$actor_99_update$232f685   actor_99_update
     001647E7  GBVM_END$actor_99_update$81d17a8   actor_99_update
     001647EC  ___func_bg_bathroom_b_tilemap_at   bg_bathroom_b_tilemap_attr
     001647EC  _bg_bathroom_b_tilemap_attr        bg_bathroom_b_tilemap_attr
     001649F6  ___func_bg_bathroom_b_tilemap      bg_bathroom_b_tilemap
     001649F6  _bg_bathroom_b_tilemap             bg_bathroom_b_tilemap
     00164C00  ___func_bg_bathroom_tilemap_attr   bg_bathroom_tilemap_attr
     00164C00  _bg_bathroom_tilemap_attr          bg_bathroom_tilemap_attr
     00164E0A  ___func_bg_bathroom_tilemap        bg_bathroom_tilemap
     00164E0A  _bg_bathroom_tilemap               bg_bathroom_tilemap
     00165014  ___func_bg_boss_hallway_tilemap_   bg_boss_hallway_tilemap_attr
     00165014  _bg_boss_hallway_tilemap_attr      bg_boss_hallway_tilemap_attr
     001651B2  ___func_bg_boss_hallway_tilemap    bg_boss_hallway_tilemap
     001651B2  _bg_boss_hallway_tilemap           bg_boss_hallway_tilemap
     00165350  ___func_bg_caught_tileset          bg_caught_tileset
     00165350  _bg_caught_tileset                 bg_caught_tileset
     00165532  ___func_bg_final_boss_cgb_tilese   bg_final_boss_cgb_tileset
     00165532  _bg_final_boss_cgb_tileset         bg_final_boss_cgb_tileset
     001656B4  ___func_bg_hallway_b_tilemap       bg_hallway_b_tilemap
     001656B4  _bg_hallway_b_tilemap              bg_hallway_b_tilemap
     001658D0  ___func_bg_hallway_tilemap_attr    bg_hallway_tilemap_attr
     001658D0  _bg_hallway_tilemap_attr           bg_hallway_tilemap_attr
     00165AEC  ___func_bg_hallway_tilemap         bg_hallway_tilemap
     00165AEC  _bg_hallway_tilemap                bg_hallway_tilemap
     00165D08  ___func_bg_jumpscare_cgb_tileset   bg_jumpscare_cgb_tileset
     00165D08  _bg_jumpscare_cgb_tileset          bg_jumpscare_cgb_tileset
     00165E9A  ___func_bg_outside_cgb_tileset     bg_outside_cgb_tileset
     00165E9A  _bg_outside_cgb_tileset            bg_outside_cgb_tileset
     0016605C  ___func_bg_outside_tilemap_attr    bg_outside_tilemap_attr
ASxxxx Linker V03.00/V05.40 + sdld,  page 127.
Hexadecimal  [32-Bits]

Area                                    Addr        Size        Decimal Bytes (Attributes)
--------------------------------        ----        ----        ------- ----- ------------
_CODE_22                            00164000    00003FFE =       16382. bytes (REL,CON)

      Value  Global                              Global Defined In Module
      -----  --------------------------------   ------------------------
     0016605C  _bg_outside_tilemap_attr           bg_outside_tilemap_attr
     001661E8  ___func_bg_outside_tilemap         bg_outside_tilemap
     001661E8  _bg_outside_tilemap                bg_outside_tilemap
     00166374  ___func_scene_14_collisions        scene_14_collisions
     00166374  _scene_14_collisions               scene_14_collisions
     0016657E  _scene_17_init                     scene_17_init
     00166581  GBVM$scene_17_init$3f809ce5_d9dd   scene_17_init
     0016658B  GBVM$scene_17_init$ca71d8ef_36e3   scene_17_init
     00166590  GBVM$scene_17_init$autofade$e712   scene_17_init
     0016659B  GBVM$scene_17_init$9f534efb_cf3b   scene_17_init
     001666E2  GBVM$scene_17_init$41b00f53_3619   scene_17_init
     00166715  _scene_18_init                     scene_18_init
     00166718  GBVM$scene_18_init$405b9128_7d1f   scene_18_init
     00166720  GBVM$scene_18_init$33169799_de97   scene_18_init
     00166720  GBVM_END$scene_18_init$405b9128_   scene_18_init
     00166725  GBVM$scene_18_init$autofade$882e   scene_18_init
     00166730  GBVM$scene_18_init$ff258c26_7a0a   scene_18_init
     0016685C  GBVM$scene_18_init$d20d156a_b971   scene_18_init
     0016688F  _scene_2_init                      scene_2_init
     00166892  GBVM$scene_2_init$528dc4ab_bf30_   scene_2_init
     0016689E  GBVM$scene_2_init$4ad3e5b5_fd19_   scene_2_init
     001668A7  GBVM$scene_2_init$74666e47_3fe4_   scene_2_init
     001668A7  GBVM_END$scene_2_init$528dc4ab_b   scene_2_init
     001668BC  GBVM$scene_2_init$d2794c02_64ec_   scene_2_init
     001668C5  GBVM$scene_2_init$c7daf357_93b9_   scene_2_init
     001668C5  GBVM_END$scene_2_init$74666e47_3   scene_2_init
     001668DA  GBVM$scene_2_init$a9ed695c_94a8_   scene_2_init
     001668E3  GBVM$scene_2_init$13f8fcae_4505_   scene_2_init
     001668E3  GBVM_END$scene_2_init$c7daf357_9   scene_2_init
     001668F8  GBVM$scene_2_init$55c658cd_dbdc_   scene_2_init
     00166901  GBVM$scene_2_init$5e64d8aa_4369_   scene_2_init
     00166901  GBVM_END$scene_2_init$13f8fcae_4   scene_2_init
     00166916  GBVM$scene_2_init$69209400_8dfb_   scene_2_init
     0016691F  GBVM$scene_2_init$f8d00985_709e_   scene_2_init
     0016691F  GBVM_END$scene_2_init$5e64d8aa_4   scene_2_init
     00166934  GBVM$scene_2_init$032fec92_c23a_   scene_2_init
     0016693D  GBVM$scene_2_init$3a93bdb4_0d81_   scene_2_init
     0016693D  GBVM_END$scene_2_init$f8d00985_7   scene_2_init
     00166952  GBVM$scene_2_init$bd09c283_847d_   scene_2_init
     0016695B  GBVM$scene_2_init$c2742d89_1b7f_   scene_2_init
     0016695B  GBVM_END$scene_2_init$3a93bdb4_0   scene_2_init
     00166963  GBVM$scene_2_init$e0970309_a9fa_   scene_2_init
     0016696C  GBVM$scene_2_init$fd7bb82e_3fab_   scene_2_init
     00166974  GBVM$scene_2_init$61207101_18d6_   scene_2_init
     0016697E  GBVM$scene_2_init$bdfcd887_1365_   scene_2_init
     00166987  GBVM$scene_2_init$8bcd277f_232b_   scene_2_init
     00166997  GBVM$scene_2_init$ac06c61d_1545_   scene_2_init
     001669A0  GBVM$scene_2_init$5f4063aa_306e_   scene_2_init
     001669B0  GBVM$scene_2_init$ec3d3832_2014_   scene_2_init
     001669B9  GBVM$scene_2_init$615e1404_ef12_   scene_2_init
     001669CE  GBVM$scene_2_init$96e91b46_9e5d_   scene_2_init
ASxxxx Linker V03.00/V05.40 + sdld,  page 128.
Hexadecimal  [32-Bits]

Area                                    Addr        Size        Decimal Bytes (Attributes)
--------------------------------        ----        ----        ------- ----- ------------
_CODE_22                            00164000    00003FFE =       16382. bytes (REL,CON)

      Value  Global                              Global Defined In Module
      -----  --------------------------------   ------------------------
     001669DE  GBVM$scene_2_init$12309c23_a821_   scene_2_init
     001669DE  GBVM_END$scene_2_init$615e1404_e   scene_2_init
     001669F3  GBVM$scene_2_init$74cf15dc_deda_   scene_2_init
     00166A03  GBVM$scene_2_init$93faf6c2_10f1_   scene_2_init
     00166A03  GBVM_END$scene_2_init$12309c23_a   scene_2_init
     00166A18  GBVM$scene_2_init$d4c3abfd_b203_   scene_2_init
     00166A28  GBVM$scene_2_init$a5823a6f_4b62_   scene_2_init
     00166A28  GBVM_END$scene_2_init$93faf6c2_1   scene_2_init
     00166A2C  GBVM$scene_2_init$1f654d18_3a78_   scene_2_init
     00166A3D  GBVM$scene_2_init$6f536767_7d06_   scene_2_init
     00166A46  GBVM$scene_2_init$937ffbe7_2987_   scene_2_init
     00166A4B  GBVM$scene_2_init$autofade$bc6e9   scene_2_init
     00166A56  GBVM$scene_2_init$906f480a_492a_   scene_2_init
     00166A58  GBVM$scene_2_init$375130d8_f21a_   scene_2_init
     00166A62  GBVM$scene_2_init$1be8e936_8b86_   scene_2_init
     00166A67  GBVM$scene_2_init$44730c68_a99b_   scene_2_init
     00166A6F  GBVM$scene_2_init$8139ba2c_6c85_   scene_2_init
     00166A6F  GBVM_END$scene_2_init$44730c68_a   scene_2_init
     00166A77  GBVM$scene_2_init$33578de7_0c36_   scene_2_init
     00166A86  GBVM$scene_2_init$f922823f_0cdd_   scene_2_init
     00166A88  GBVM$scene_2_init$a4d6eab8_84f7_   scene_2_init
     00166A90  GBVM$scene_2_init$5864e88b_95dd_   scene_2_init
     00166A90  GBVM_END$scene_2_init$a4d6eab8_8   scene_2_init
     00166A98  GBVM_END$scene_2_init$5864e88b_9   scene_2_init
     00166A99  ___func_scene_21_collisions        scene_21_collisions
     00166A99  _scene_21_collisions               scene_21_collisions
     00166CA3  ___func_scene_23_collisions        scene_23_collisions
     00166CA3  _scene_23_collisions               scene_23_collisions
     00166EBF  ___func_scene_24_collisions        scene_24_collisions
     00166EBF  _scene_24_collisions               scene_24_collisions
     001670DB  ___func_scene_29_collisions        scene_29_collisions
     001670DB  _scene_29_collisions               scene_29_collisions
     00167279  ___func_scene_39_collisions        scene_39_collisions
     00167279  _scene_39_collisions               scene_39_collisions
     00167405  ___func_scene_41_actors            scene_41_actors
     00167405  _scene_41_actors                   scene_41_actors
     001675D9  _scene_6_init                      scene_6_init
     001675DC  GBVM$scene_6_init$6ed260e3_1aee_   scene_6_init
     001675E0  GBVM$scene_6_init$85425773_f6a9_   scene_6_init
     001675EA  GBVM$scene_6_init$73ef9bad_aa3f_   scene_6_init
     001675EF  GBVM$scene_6_init$ee117590_7cae_   scene_6_init
     001675F4  GBVM$scene_6_init$71eabe1a_72be_   scene_6_init
     001675F9  GBVM$scene_6_init$3cf4945a_19cc_   scene_6_init
     001675FE  GBVM$scene_6_init$3c7da63e_3525_   scene_6_init
     00167603  GBVM$scene_6_init$d51730a3_50f8_   scene_6_init
     00167608  GBVM$scene_6_init$58a1776e_1dc4_   scene_6_init
     00167610  GBVM$scene_6_init$8ef251cb_5407_   scene_6_init
     00167615  GBVM$scene_6_init$f612662c_981c_   scene_6_init
     0016761A  GBVM$scene_6_init$6af1f62a_efa1_   scene_6_init
     0016761F  GBVM$scene_6_init$ecfba98a_ab3b_   scene_6_init
     00167624  GBVM$scene_6_init$95422436_c71b_   scene_6_init
ASxxxx Linker V03.00/V05.40 + sdld,  page 129.
Hexadecimal  [32-Bits]

Area                                    Addr        Size        Decimal Bytes (Attributes)
--------------------------------        ----        ----        ------- ----- ------------
_CODE_22                            00164000    00003FFE =       16382. bytes (REL,CON)

      Value  Global                              Global Defined In Module
      -----  --------------------------------   ------------------------
     00167629  GBVM$scene_6_init$74ca0904_0eb6_   scene_6_init
     0016762E  GBVM$scene_6_init$752252ca_ee92_   scene_6_init
     00167633  GBVM$scene_6_init$c18f9ac4_8f2e_   scene_6_init
     0016763B  GBVM$scene_6_init$9d273355_84c9_   scene_6_init
     00167640  GBVM$scene_6_init$d03ae322_1d07_   scene_6_init
     00167645  GBVM$scene_6_init$35b4bf2a_ed42_   scene_6_init
     0016764A  GBVM$scene_6_init$d2fa375d_8c74_   scene_6_init
     0016764F  GBVM$scene_6_init$47b7b4f1_0cd7_   scene_6_init
     00167654  GBVM$scene_6_init$d5bff58b_6973_   scene_6_init
     00167659  GBVM$scene_6_init$63b60ef7_f244_   scene_6_init
     0016765E  GBVM$scene_6_init$aeea5ff6_dd1f_   scene_6_init
     00167663  GBVM$scene_6_init$a4e740b2_9169_   scene_6_init
     00167668  GBVM$scene_6_init$9b0e6fae_478e_   scene_6_init
     0016766D  GBVM$scene_6_init$9b9a1ae9_397a_   scene_6_init
     00167672  GBVM$scene_6_init$b7a1f48e_7cc0_   scene_6_init
     00167677  GBVM$scene_6_init$84c2c8af_d1a5_   scene_6_init
     0016767C  GBVM$scene_6_init$c264faa2_5997_   scene_6_init
     00167681  GBVM$scene_6_init$8df928d5_97d6_   scene_6_init
     00167686  GBVM$scene_6_init$c4c5d375_ba66_   scene_6_init
     0016768B  GBVM$scene_6_init$cd9dedac_6f47_   scene_6_init
     00167690  GBVM$scene_6_init$71e6709b_6a26_   scene_6_init
     00167695  GBVM$scene_6_init$0e435a32_8552_   scene_6_init
     0016769A  GBVM$scene_6_init$355ec339_25e7_   scene_6_init
     0016769F  GBVM$scene_6_init$6864a664_e90e_   scene_6_init
     001676A4  GBVM$scene_6_init$bacdbba9_60e2_   scene_6_init
     001676A9  GBVM$scene_6_init$ed99d4a5_ec11_   scene_6_init
     001676AE  GBVM$scene_6_init$293b57c3_c66b_   scene_6_init
     001676B3  GBVM$scene_6_init$21d03bed_a314_   scene_6_init
     001676BC  GBVM$scene_6_init$autofade$d3afd   scene_6_init
     001676C7  GBVM$scene_6_init$314357a2_78ef_   scene_6_init
     001676D3  GBVM$scene_6_init$a6e3fc2e_a8e6_   scene_6_init
     001676DC  GBVM$scene_6_init$7180bef9_1c6d_   scene_6_init
     001676E6  GBVM$scene_6_init$857786af_7525_   scene_6_init
     001676E8  GBVM$scene_6_init$6d77401c_0bf5_   scene_6_init
     001676F1  GBVM$scene_6_init$aac41b1d_f309_   scene_6_init
     00167726  GBVM$scene_6_init$9b123370_018b_   scene_6_init
     00167758  GBVM_END$scene_6_init$6d77401c_0   scene_6_init
     00167759  _script_engine_init                
     001678E7  _script_input_0                    script_input_0
     001678E9  GBVM$script_input_0$dedc9e11_1c1   script_input_0
     001678F5  GBVM$script_input_0$18065717_bbe   script_input_0
     001678FA  GBVM$script_input_0$0a7d1e19_4ee   script_input_0
     00167902  GBVM$script_input_0$1b5dc5f9_f05   script_input_0
     0016790B  GBVM$script_input_0$76285e01_a1d   script_input_0
     0016791A  GBVM$script_input_0$1f73d840_3e1   script_input_0
     00167923  GBVM$script_input_0$eef475ab_d91   script_input_0
     00167933  GBVM$script_input_0$a3fbf838_9d4   script_input_0
     00167986  GBVM$script_input_0$e9936896_41d   script_input_0
     00167992  GBVM$script_input_0$e5b06d86_a0e   script_input_0
     0016799B  GBVM$script_input_0$745b4216_ff9   script_input_0
     001679A0  GBVM$script_input_0$798dadc3_99a   script_input_0
ASxxxx Linker V03.00/V05.40 + sdld,  page 130.
Hexadecimal  [32-Bits]

Area                                    Addr        Size        Decimal Bytes (Attributes)
--------------------------------        ----        ----        ------- ----- ------------
_CODE_22                            00164000    00003FFE =       16382. bytes (REL,CON)

      Value  Global                              Global Defined In Module
      -----  --------------------------------   ------------------------
     001679A0  GBVM_END$script_input_0$e9936896   script_input_0
     001679B5  GBVM$script_input_0$18bfbaaf_647   script_input_0
     001679BE  GBVM$script_input_0$b2b0cfbf_bb1   script_input_0
     001679BE  GBVM_END$script_input_0$798dadc3   script_input_0
     001679D3  GBVM$script_input_0$dd6b8066_bfc   script_input_0
     001679DC  GBVM$script_input_0$d65958a3_85c   script_input_0
     001679DC  GBVM_END$script_input_0$b2b0cfbf   script_input_0
     001679F1  GBVM$script_input_0$a742bc4a_2a4   script_input_0
     001679FA  GBVM$script_input_0$46de5825_bd2   script_input_0
     001679FA  GBVM_END$script_input_0$d65958a3   script_input_0
     00167A0F  GBVM$script_input_0$66d3a1e7_bfc   script_input_0
     00167A18  GBVM$script_input_0$46683fb3_e82   script_input_0
     00167A18  GBVM_END$script_input_0$46de5825   script_input_0
     00167A2D  GBVM$script_input_0$61df51a3_018   script_input_0
     00167A36  GBVM$script_input_0$e5695c69_cb6   script_input_0
     00167A36  GBVM_END$script_input_0$46683fb3   script_input_0
     00167A4B  GBVM$script_input_0$1f4680e8_19a   script_input_0
     00167A54  GBVM$script_input_0$a4d8a12e_726   script_input_0
     00167A54  GBVM_END$script_input_0$e5695c69   script_input_0
     00167A60  GBVM$script_input_0$879e0411_6be   script_input_0
     00167A68  GBVM$script_input_0$2e6048d6_3ee   script_input_0
     00167A78  GBVM$script_input_0$32bbda5d_47f   script_input_0
     00167A7E  GBVM$script_input_0$ce17ac56_529   script_input_0
     00167A97  GBVM$script_input_0$13b98833_1a2   script_input_0
     00167AA6  GBVM$script_input_0$2fbb3328_06b   script_input_0
     00167AAF  GBVM$script_input_0$f2d65a1c_305   script_input_0
     00167AB7  GBVM$script_input_0$eb728eca_15d   script_input_0
     00167ABF  GBVM$script_input_0$561d3840_bc5   script_input_0
     00167AC4  GBVM_END$script_input_0$dedc9e11   script_input_0
     00167AC5  _script_input_14                   script_input_14
     00167AC7  GBVM$script_input_14$78cc305f_e2   script_input_14
     00167AD0  GBVM$script_input_14$ae0549aa_09   script_input_14
     00167AD9  GBVM$script_input_14$a53fd11c_a2   script_input_14
     00167B0E  GBVM$script_input_14$6a9bb931_54   script_input_14
     00167B13  GBVM$script_input_14$a7004767_31   script_input_14
     00167BA6  GBVM$script_input_14$868afe56_50   script_input_14
     00167BB5  GBVM$script_input_14$982d0d6d_ef   script_input_14
     00167BBD  GBVM_END$script_input_14$982d0d6   script_input_14
     00167BBD  GBVM_END$script_input_14$ae0549a   script_input_14
     00167BC0  GBVM$script_input_14$03d9d10f_df   script_input_14
     00167C8E  GBVM_END$script_input_14$78cc305   script_input_14
     00167C8F  ___func_sprite_conveyor            sprite_conveyor
     00167C8F  _sprite_conveyor_metasprite_0      sprite_conveyor
     00167C93  _sprite_conveyor_metasprites       sprite_conveyor
     00167C95  _sprite_conveyor_animations        sprite_conveyor
     00167CA5  _sprite_conveyor_animations_look   sprite_conveyor
     00167CA7  _sprite_conveyor                   sprite_conveyor
     00167CBA  ___func_sprite_secret_bank2_tile   sprite_secret_bank2_tileset
     00167CBA  _sprite_secret_bank2_tileset       sprite_secret_bank2_tileset
     00167E5C  ___func_sprite_secret_tileset      sprite_secret_tileset
     00167E5C  _sprite_secret_tileset             sprite_secret_tileset

ASxxxx Linker V03.00/V05.40 + sdld,  page 131.
Hexadecimal  [32-Bits]

Area                                    Addr        Size        Decimal Bytes (Attributes)
--------------------------------        ----        ----        ------- ----- ------------
_CODE_2                             00024000    00003FFE =       16382. bytes (REL,CON)

      Value  Global                              Global Defined In Module
      -----  --------------------------------   ------------------------
     00024000  _trigger_reset                     trigger
     00024010  _trigger_interact                  trigger
     0002404F  _trigger_activate_at               trigger
     0002409A  _trigger_at_intersection           trigger
     000241C1  _trigger_activate_at_intersectio   trigger
     00024302  _trigger_at_tile                   trigger
     00024393  ___func_scene_10_sprites           scene_10_sprites
     00024393  _scene_10_sprites                  scene_10_sprites
     00024396  ___func_sound_boss_jumpscare_wav   sound_boss_jumpscare_wav
     00024396  _sound_boss_jumpscare_wav          sound_boss_jumpscare_wav

ASxxxx Linker V03.00/V05.40 + sdld,  page 132.
Hexadecimal  [32-Bits]

Area                                    Addr        Size        Decimal Bytes (Attributes)
--------------------------------        ----        ----        ------- ----- ------------
_CODE_8                             00084000    00003FFE =       16382. bytes (REL,CON)

      Value  Global                              Global Defined In Module
      -----  --------------------------------   ------------------------
     00084000  ___func_VM_ACTOR                   vm_actor
     00084000  _vm_actor_move_to                  vm_actor
     00084A46  _vm_actor_move_cancel              vm_actor
     00084A7C  _vm_actor_activate                 vm_actor
     00084ACD  _vm_actor_deactivate               vm_actor
     00084B1E  _vm_actor_begin_update             vm_actor
     00084BA5  _vm_actor_terminate_update         vm_actor
     00084BEC  _vm_actor_set_dir                  vm_actor
     00084C35  _vm_actor_set_anim                 vm_actor
     00084CC3  _vm_actor_set_pos                  vm_actor
     00084D3D  _vm_actor_get_pos                  vm_actor
     00084DAC  _vm_actor_get_dir                  vm_actor
     00084E26  _vm_actor_get_angle                vm_actor
     00084EA7  _vm_actor_emote                    vm_actor
     00084F6B  _vm_actor_set_bounds               vm_actor
     00084FC9  _vm_actor_set_spritesheet          vm_actor
     00085093  _vm_actor_replace_tile             vm_actor
     000850FE  _vm_actor_set_anim_tick            vm_actor
     0008513C  _vm_actor_set_move_speed           vm_actor
     0008517A  _vm_actor_set_anim_frame           vm_actor
     000851BE  _vm_actor_get_anim_frame           vm_actor
     00085208  _vm_actor_set_anim_set             vm_actor
     00085290  _vm_actor_set_spritesheet_by_ref   vm_actor
     0008539D  _vm_actor_set_flags                vm_actor
     0008544B  _actor_3_update                    actor_3_update
     0008544D  GBVM$actor_3_update$bb565b64_6be   actor_3_update
     00085456  GBVM$actor_3_update$36f42e96_801   actor_3_update
     00086505  _song_bs_cyb_surfing_the_net_Dat   song_bs_cyb_surfing_the_net_
     000876F9  _song_bz_cozy_midnight_study_0_D   song_bz_cozy_midnight_study_
     0008770E  _scene_3_init                      scene_3_init
     00087711  GBVM$scene_3_init$8e49221e_3e06_   scene_3_init
     0008771B  GBVM$scene_3_init$489817c7_4648_   scene_3_init
     00087725  GBVM$scene_3_init$a856fb60_a072_   scene_3_init
     0008772F  GBVM$scene_3_init$bc57ae32_ccee_   scene_3_init
     00087739  GBVM$scene_3_init$4f8372ec_1833_   scene_3_init
     00087742  GBVM$scene_3_init$5a6d73da_eea9_   scene_3_init
     0008774F  GBVM$scene_3_init$5aca522f_b770_   scene_3_init
     00087759  GBVM$scene_3_init$85098017_8ce9_   scene_3_init
     00087759  GBVM_END$scene_3_init$4f8372ec_1   scene_3_init
     00087763  GBVM$scene_3_init$212acd4f_9d31_   scene_3_init
     0008776C  GBVM$scene_3_init$b6ab0666_2b42_   scene_3_init
     00087779  GBVM$scene_3_init$c4df8600_6625_   scene_3_init
     00087782  GBVM$scene_3_init$1eb65260_7e3b_   scene_3_init
     0008778A  GBVM$scene_3_init$3ab7bdcd_a08a_   scene_3_init
     0008778A  GBVM_END$scene_3_init$1eb65260_7   scene_3_init
     0008779F  GBVM$scene_3_init$fe348a60_fcae_   scene_3_init
     000877AF  GBVM$scene_3_init$8d566d46_9bd9_   scene_3_init
     000877AF  GBVM_END$scene_3_init$3ab7bdcd_a   scene_3_init
     000877C4  GBVM$scene_3_init$4f40e1d2_a89a_   scene_3_init
     000877D4  GBVM$scene_3_init$4d672abd_244d_   scene_3_init
ASxxxx Linker V03.00/V05.40 + sdld,  page 133.
Hexadecimal  [32-Bits]

Area                                    Addr        Size        Decimal Bytes (Attributes)
--------------------------------        ----        ----        ------- ----- ------------
_CODE_8                             00084000    00003FFE =       16382. bytes (REL,CON)

      Value  Global                              Global Defined In Module
      -----  --------------------------------   ------------------------
     000877D4  GBVM_END$scene_3_init$8d566d46_9   scene_3_init
     000877E9  GBVM$scene_3_init$f0a12d9b_36f9_   scene_3_init
     000877F9  GBVM$scene_3_init$ef60595a_736b_   scene_3_init
     000877F9  GBVM_END$scene_3_init$4d672abd_2   scene_3_init
     0008780E  GBVM$scene_3_init$d0d6ebc3_6eb9_   scene_3_init
     0008781E  GBVM$scene_3_init$121d9907_6d1d_   scene_3_init
     0008781E  GBVM_END$scene_3_init$ef60595a_7   scene_3_init
     00087833  GBVM$scene_3_init$51cc309e_9807_   scene_3_init
     00087843  GBVM$scene_3_init$0d401a10_c883_   scene_3_init
     00087843  GBVM_END$scene_3_init$121d9907_6   scene_3_init
     00087858  GBVM$scene_3_init$3d61b974_952f_   scene_3_init
     00087868  GBVM$scene_3_init$2bbe8ebe_0cb0_   scene_3_init
     00087868  GBVM_END$scene_3_init$0d401a10_c   scene_3_init
     0008787D  GBVM$scene_3_init$9f980fb1_f157_   scene_3_init
     0008788D  GBVM$scene_3_init$2ca6f1b4_0c2c_   scene_3_init
     0008788D  GBVM_END$scene_3_init$2bbe8ebe_0   scene_3_init
     000878A2  GBVM$scene_3_init$c9626923_8328_   scene_3_init
     000878B2  GBVM$scene_3_init$077c2d98_e124_   scene_3_init
     000878B2  GBVM_END$scene_3_init$2ca6f1b4_0   scene_3_init
     000878C7  GBVM$scene_3_init$d3855fa1_fcf4_   scene_3_init
     000878D7  GBVM$scene_3_init$86e52db5_64cf_   scene_3_init
     000878D7  GBVM_END$scene_3_init$077c2d98_e   scene_3_init
     000878EC  GBVM$scene_3_init$0b71b550_75ef_   scene_3_init
     000878FC  GBVM$scene_3_init$86e156bf_a17f_   scene_3_init
     000878FC  GBVM_END$scene_3_init$86e52db5_6   scene_3_init
     00087911  GBVM$scene_3_init$c3a3c46e_9e18_   scene_3_init
     00087921  GBVM$scene_3_init$6b98eb3d_8988_   scene_3_init
     00087921  GBVM_END$scene_3_init$86e156bf_a   scene_3_init
     00087936  GBVM$scene_3_init$11ccdaed_372c_   scene_3_init
     00087946  GBVM$scene_3_init$765a1c84_884b_   scene_3_init
     00087946  GBVM_END$scene_3_init$6b98eb3d_8   scene_3_init
     0008795B  GBVM$scene_3_init$d5cf6528_410a_   scene_3_init
     0008796B  GBVM$scene_3_init$b06dbf0e_3618_   scene_3_init
     0008796B  GBVM_END$scene_3_init$765a1c84_8   scene_3_init
     00087980  GBVM$scene_3_init$28ebc296_bc82_   scene_3_init
     00087990  GBVM$scene_3_init$263c61ad_8d35_   scene_3_init
     00087990  GBVM_END$scene_3_init$b06dbf0e_3   scene_3_init
     000879A5  GBVM$scene_3_init$3e31c955_dcce_   scene_3_init
     000879B5  GBVM$scene_3_init$4518afea_8233_   scene_3_init
     000879B5  GBVM_END$scene_3_init$263c61ad_8   scene_3_init
     000879CA  GBVM$scene_3_init$2b490c02_912b_   scene_3_init
     000879DA  GBVM$scene_3_init$25bd6383_b8fc_   scene_3_init
     000879DA  GBVM_END$scene_3_init$4518afea_8   scene_3_init
     000879EF  GBVM$scene_3_init$815188ab_9045_   scene_3_init
     000879FF  GBVM$scene_3_init$a18effcb_ed59_   scene_3_init
     000879FF  GBVM_END$scene_3_init$25bd6383_b   scene_3_init
     00087A14  GBVM$scene_3_init$ba96f28e_86e5_   scene_3_init
     00087A24  GBVM$scene_3_init$b7185744_24af_   scene_3_init
     00087A24  GBVM_END$scene_3_init$a18effcb_e   scene_3_init
     00087A39  GBVM$scene_3_init$80066699_d962_   scene_3_init
     00087A49  GBVM$scene_3_init$d49cc420_997e_   scene_3_init
ASxxxx Linker V03.00/V05.40 + sdld,  page 134.
Hexadecimal  [32-Bits]

Area                                    Addr        Size        Decimal Bytes (Attributes)
--------------------------------        ----        ----        ------- ----- ------------
_CODE_8                             00084000    00003FFE =       16382. bytes (REL,CON)

      Value  Global                              Global Defined In Module
      -----  --------------------------------   ------------------------
     00087A49  GBVM_END$scene_3_init$b7185744_2   scene_3_init
     00087A5E  GBVM$scene_3_init$a6fad048_a1ce_   scene_3_init
     00087A6E  GBVM$scene_3_init$997d119d_4814_   scene_3_init
     00087A6E  GBVM_END$scene_3_init$d49cc420_9   scene_3_init
     00087A83  GBVM$scene_3_init$0f275139_dd92_   scene_3_init
     00087A93  GBVM$scene_3_init$8eb32060_beb6_   scene_3_init
     00087A93  GBVM_END$scene_3_init$997d119d_4   scene_3_init
     00087AA8  GBVM$scene_3_init$2afdfda1_c4bf_   scene_3_init
     00087AB8  GBVM$scene_3_init$5824d553_d83f_   scene_3_init
     00087AB8  GBVM_END$scene_3_init$8eb32060_b   scene_3_init
     00087ACD  GBVM$scene_3_init$ab5fad01_e053_   scene_3_init
     00087ADD  GBVM$scene_3_init$d5c7191e_1a6b_   scene_3_init
     00087ADD  GBVM_END$scene_3_init$5824d553_d   scene_3_init
     00087AF2  GBVM$scene_3_init$2cbd0602_c0a7_   scene_3_init
     00087B02  GBVM$scene_3_init$a8ceacfc_e93e_   scene_3_init
     00087B02  GBVM_END$scene_3_init$d5c7191e_1   scene_3_init
     00087B17  GBVM$scene_3_init$7abeae29_715e_   scene_3_init
     00087B27  GBVM$scene_3_init$f4f23937_821d_   scene_3_init
     00087B27  GBVM_END$scene_3_init$a8ceacfc_e   scene_3_init
     00087B3C  GBVM$scene_3_init$4070a702_eb08_   scene_3_init
     00087B4C  GBVM$scene_3_init$190cca43_3503_   scene_3_init
     00087B4C  GBVM_END$scene_3_init$f4f23937_8   scene_3_init
     00087B61  GBVM$scene_3_init$3074db6a_1a13_   scene_3_init
     00087B71  GBVM$scene_3_init$6d5a5516_d3c8_   scene_3_init
     00087B71  GBVM_END$scene_3_init$190cca43_3   scene_3_init
     00087B86  GBVM$scene_3_init$9622b9e9_bb3a_   scene_3_init
     00087B96  GBVM$scene_3_init$49349819_dfdc_   scene_3_init
     00087B96  GBVM_END$scene_3_init$6d5a5516_d   scene_3_init
     00087BAB  GBVM$scene_3_init$f6a600bc_fb50_   scene_3_init
     00087BBB  GBVM$scene_3_init$1fafa552_f580_   scene_3_init
     00087BBB  GBVM_END$scene_3_init$49349819_d   scene_3_init
     00087BD0  GBVM$scene_3_init$61190fc0_4753_   scene_3_init
     00087BE0  GBVM$scene_3_init$2db0121e_d443_   scene_3_init
     00087BE0  GBVM_END$scene_3_init$1fafa552_f   scene_3_init
     00087BE0  GBVM_END$scene_3_init$212acd4f_9   scene_3_init
     00087BEC  GBVM$scene_3_init$2b4a041b_5a4f_   scene_3_init
     00087BFC  GBVM$scene_3_init$af3c2358_e2d6_   scene_3_init
     00087C0C  GBVM$scene_3_init$37720acc_6599_   scene_3_init
     00087C1C  GBVM$scene_3_init$f9d7182a_7fb1_   scene_3_init
     00087C2C  GBVM$scene_3_init$5afe30a4_6818_   scene_3_init
     00087C3C  GBVM$scene_3_init$155c3b6b_3528_   scene_3_init
     00087C4C  GBVM$scene_3_init$1e14ba4f_2999_   scene_3_init
     00087C5C  GBVM$scene_3_init$43d24417_31bf_   scene_3_init
     00087C6C  GBVM$scene_3_init$cc5beb2c_ecd0_   scene_3_init
     00087C7C  GBVM$scene_3_init$a3fafa0d_ace2_   scene_3_init
     00087C8C  GBVM$scene_3_init$7d91f10f_5908_   scene_3_init
     00087C9C  GBVM$scene_3_init$eae9b4eb_7c6c_   scene_3_init
     00087CAC  GBVM$scene_3_init$ef92b0ae_fa11_   scene_3_init
     00087CBC  GBVM$scene_3_init$db7a3b56_fea6_   scene_3_init
     00087CCC  GBVM$scene_3_init$bcf97503_86f4_   scene_3_init
     00087CDC  GBVM$scene_3_init$a0ea30ab_15f1_   scene_3_init
ASxxxx Linker V03.00/V05.40 + sdld,  page 135.
Hexadecimal  [32-Bits]

Area                                    Addr        Size        Decimal Bytes (Attributes)
--------------------------------        ----        ----        ------- ----- ------------
_CODE_8                             00084000    00003FFE =       16382. bytes (REL,CON)

      Value  Global                              Global Defined In Module
      -----  --------------------------------   ------------------------
     00087CEC  GBVM$scene_3_init$a2132f1d_5d3e_   scene_3_init
     00087CFC  GBVM$scene_3_init$80310de4_159d_   scene_3_init
     00087D0C  GBVM$scene_3_init$109f4f44_d9be_   scene_3_init
     00087D0C  GBVM_END$scene_3_init$2db0121e_d   scene_3_init
     00087D18  GBVM$scene_3_init$9981e002_0387_   scene_3_init
     00087D22  GBVM$scene_3_init$autofade$1c644   scene_3_init
     00087D22  GBVM_END$scene_3_init$109f4f44_d   scene_3_init
     00087D2D  GBVM$scene_3_init$89e61b99_2ada_   scene_3_init
     00087D39  GBVM$scene_3_init$c1d0304f_2bd5_   scene_3_init
     00087D3E  GBVM$scene_3_init$f3fdc159_c069_   scene_3_init
     00087E7C  GBVM$scene_3_init$73b6071a_1cd6_   scene_3_init
     00087E7C  GBVM_END$scene_3_init$89e61b99_2   scene_3_init
     00087E88  GBVM$scene_3_init$451ee06f_ba32_   scene_3_init
     00087F15  GBVM$scene_3_init$45888f02_f8b3_   scene_3_init
     00087F1A  GBVM$scene_3_init$228b96f7_66bf_   scene_3_init
     00087F1A  GBVM_END$scene_3_init$73b6071a_1   scene_3_init
     00087F2F  GBVM$scene_3_init$33c92efe_ee46_   scene_3_init
     00087F3A  GBVM$scene_3_init$5771e8b0_5372_   scene_3_init
     00087FC8  GBVM$scene_3_init$61593a5d_24ac_   scene_3_init
     00087FC8  GBVM$scene_3_init$d95850b0_c7a5_   scene_3_init
     00087FC8  GBVM_END$scene_3_init$228b96f7_6   scene_3_init
     00087FD1  GBVM$scene_3_init$1520d55d_bd33_   scene_3_init
     00087FD3  GBVM$scene_3_init$24b7ef1e_25c8_   scene_3_init
     00087FDB  GBVM$scene_3_init$d4ea52fe_b79d_   scene_3_init
     00087FDB  GBVM_END$scene_3_init$24b7ef1e_2   scene_3_init
     00087FED  GBVM$scene_3_init$7cac2f17_454f_   scene_3_init
     00087FF5  GBVM$scene_3_init$815e4b74_103c_   scene_3_init
     00087FFD  GBVM_END$scene_3_init$815e4b74_1   scene_3_init
     00087FFD  GBVM_END$scene_3_init$d4ea52fe_b   scene_3_init

ASxxxx Linker V03.00/V05.40 + sdld,  page 136.
Hexadecimal  [32-Bits]

Area                                    Addr        Size        Decimal Bytes (Attributes)
--------------------------------        ----        ----        ------- ----- ------------
_CODE_12                            000C4000    00004000 =       16384. bytes (REL,CON)

      Value  Global                              Global Defined In Module
      -----  --------------------------------   ------------------------
     000C4000  ___func_VM_GAMEBOY                 vm_gameboy
     000C4000  _vm_set_sprites_visible            vm_gameboy
     000C4017  _vm_input_wait                     vm_gameboy
     000C4040  _vm_context_prepare                vm_gameboy
     000C406B  _vm_input_attach                   vm_gameboy
     000C4081  _vm_input_detach                   vm_gameboy
     000C4095  _vm_input_get                      vm_gameboy
     000C40C9  _vm_fade                           vm_gameboy
     000C40F9  _vm_timer_prepare                  vm_gameboy
     000C4124  _vm_timer_set                      vm_gameboy
     000C413F  _vm_timer_stop                     vm_gameboy
     000C4153  _vm_timer_reset                    vm_gameboy
     000C416A  _vm_get_tile_xy                    vm_gameboy
     000C4240  _vm_replace_tile                   vm_gameboy
     000C42EB  _vm_poll                           vm_gameboy
     000C43BD  _vm_set_sprite_mode                vm_gameboy
     000C43D1  _vm_replace_tile_xy                vm_gameboy
     000C45B1  _vm_rumble                         vm_gameboy
     000C45D1  _vm_load_tileset                   vm_gameboy
     000C46A2  ___func_bg_bathroom_tileset        bg_bathroom_tileset
     000C46A2  _bg_bathroom_tileset               bg_bathroom_tileset
     000C4EA4  ___func_bg_boss_office_b_tileset   bg_boss_office_b_tileset
     000C4EA4  _bg_boss_office_b_tileset          bg_boss_office_b_tileset
     000C56A6  ___func_bg_boss_office_c_tileset   bg_boss_office_c_tileset
     000C56A6  _bg_boss_office_c_tileset          bg_boss_office_c_tileset
     000C5EA8  ___func_bg_boss_office_tileset     bg_boss_office_tileset
     000C5EA8  _bg_boss_office_tileset            bg_boss_office_tileset
     000C66AA  ___func_bg_cubicle_b_tileset       bg_cubicle_b_tileset
     000C66AA  _bg_cubicle_b_tileset              bg_cubicle_b_tileset
     000C6F1C  ___func_bg_cubicle_c_cgb_tileset   bg_cubicle_c_cgb_tileset
     000C6F1C  _bg_cubicle_c_cgb_tileset          bg_cubicle_c_cgb_tileset
     000C777E  ___func_bg_cubicle_c_tileset       bg_cubicle_c_tileset
     000C777E  _bg_cubicle_c_tileset              bg_cubicle_c_tileset
     000C7FF0  ___func_cursor_image               cursor_image
     000C7FF0  _cursor_image                      cursor_image

ASxxxx Linker V03.00/V05.40 + sdld,  page 137.
Hexadecimal  [32-Bits]

Area                                    Addr        Size        Decimal Bytes (Attributes)
--------------------------------        ----        ----        ------- ----- ------------
_CODE_9                             00094000    00004000 =       16384. bytes (REL,CON)

      Value  Global                              Global Defined In Module
      -----  --------------------------------   ------------------------
     00094000  ___func_VM_MAIN                    vm
     00094000  _vm_call                           vm
     00094042  _vm_ret                            vm
     000940A2  _vm_call_far                       vm
     00094121  _vm_ret_far                        vm
     00094199  _vm_push                           vm
     000941C4  _vm_pop                            vm
     000941FF  _vm_loop                           vm
     0009428A  _vm_jump                           vm
     00094296  _wait_frames                       vm
     00094303  _vm_invoke                         vm
     00094430  _vm_join                           vm
     00094492  _vm_terminate                      vm
     000944BF  _vm_if                             vm
     00094604  _vm_if_const                       vm
     00094719  _vm_push_value                     vm
     0009476B  _vm_push_value_ind                 vm
     000947E0  _vm_push_reference                 vm
     00094837  _vm_reserve                        vm
     00094865  _vm_set                            vm
     000948C6  _vm_set_const                      vm
     000948F2  _vm_get_tlocal                     vm
     0009497F  _vm_test_terminate                 vm
     0009498A  _vm_idle                           vm
     00094996  _vm_init_rng                       vm
     000949C2  _vm_rand                           vm
     00094A04  _vm_lock                           vm
     00094A13  _vm_unlock                         vm
     00094A26  _vm_raise                          vm
     00094A68  _vm_set_indirect                   vm
     00094AE3  _vm_get_indirect                   vm
     00094B5E  _vm_poll_loaded                    vm
     00094B8E  _vm_memset                         vm
     00094BC8  _vm_memcpy                         vm
     00094C45  _script_runner_init                vm
     00094CFC  _script_execute                    vm
     00094E62  _script_terminate                  vm
     00094EC7  _script_detach_hthread             vm
     00094F03  ___func_bg_choice_b_tilemap        bg_choice_b_tilemap
     00094F03  _bg_choice_b_tilemap               bg_choice_b_tilemap
     0009662F  _song_big_explosion_Data           song_big_explosion_Data
     00097673  _song_bs_cyb_server_room_Data      song_bs_cyb_server_room_Data
     00097688  _scene_1_init                      scene_1_init
     0009768B  GBVM$scene_1_init$d38c74d6_fcca_   scene_1_init
     00097695  GBVM$scene_1_init$8872440d_ac51_   scene_1_init
     0009769F  GBVM$scene_1_init$14d542bc_465d_   scene_1_init
     000976A9  GBVM$scene_1_init$7901409b_e5d5_   scene_1_init
     000976B3  GBVM$scene_1_init$63677ec6_b478_   scene_1_init
     000976BC  GBVM$scene_1_init$67eb9081_509e_   scene_1_init
     000976C9  GBVM$scene_1_init$b9b15436_6861_   scene_1_init
ASxxxx Linker V03.00/V05.40 + sdld,  page 138.
Hexadecimal  [32-Bits]

Area                                    Addr        Size        Decimal Bytes (Attributes)
--------------------------------        ----        ----        ------- ----- ------------
_CODE_9                             00094000    00004000 =       16384. bytes (REL,CON)

      Value  Global                              Global Defined In Module
      -----  --------------------------------   ------------------------
     000976D3  GBVM$scene_1_init$e9dc2aca_0808_   scene_1_init
     000976D3  GBVM_END$scene_1_init$63677ec6_b   scene_1_init
     000976DC  GBVM$scene_1_init$a3c1c6e9_56cd_   scene_1_init
     000976E9  GBVM$scene_1_init$e8eac0cd_549d_   scene_1_init
     000976F2  GBVM$scene_1_init$ed698c91_21d5_   scene_1_init
     000976FA  GBVM$scene_1_init$aba5026c_dcf9_   scene_1_init
     000976FA  GBVM_END$scene_1_init$ed698c91_2   scene_1_init
     0009770F  GBVM$scene_1_init$f1793f6b_7eb1_   scene_1_init
     0009771F  GBVM$scene_1_init$09dec2fd_47ae_   scene_1_init
     0009771F  GBVM_END$scene_1_init$aba5026c_d   scene_1_init
     00097734  GBVM$scene_1_init$571c1c28_00cd_   scene_1_init
     00097744  GBVM$scene_1_init$9894f6ca_6ab7_   scene_1_init
     00097744  GBVM_END$scene_1_init$09dec2fd_4   scene_1_init
     00097759  GBVM$scene_1_init$bf34b050_eda5_   scene_1_init
     00097769  GBVM$scene_1_init$db31e337_da27_   scene_1_init
     00097769  GBVM_END$scene_1_init$9894f6ca_6   scene_1_init
     0009777E  GBVM$scene_1_init$35e81267_6012_   scene_1_init
     0009778E  GBVM$scene_1_init$0aa5d915_8707_   scene_1_init
     0009778E  GBVM_END$scene_1_init$db31e337_d   scene_1_init
     000977A3  GBVM$scene_1_init$95b8a488_da04_   scene_1_init
     000977B3  GBVM$scene_1_init$ae57c4e4_f2ee_   scene_1_init
     000977B3  GBVM_END$scene_1_init$0aa5d915_8   scene_1_init
     000977C8  GBVM$scene_1_init$62e4655f_b180_   scene_1_init
     000977D8  GBVM$scene_1_init$17750e69_77cd_   scene_1_init
     000977D8  GBVM_END$scene_1_init$ae57c4e4_f   scene_1_init
     000977ED  GBVM$scene_1_init$7d35f649_116f_   scene_1_init
     000977FD  GBVM$scene_1_init$354af7fa_9594_   scene_1_init
     000977FD  GBVM_END$scene_1_init$17750e69_7   scene_1_init
     00097812  GBVM$scene_1_init$50c046c4_60d0_   scene_1_init
     00097822  GBVM$scene_1_init$c482d89b_fe0b_   scene_1_init
     00097822  GBVM_END$scene_1_init$354af7fa_9   scene_1_init
     00097837  GBVM$scene_1_init$f8ab6f14_83cb_   scene_1_init
     00097847  GBVM$scene_1_init$fbda3044_9d96_   scene_1_init
     00097847  GBVM_END$scene_1_init$c482d89b_f   scene_1_init
     0009785C  GBVM$scene_1_init$2bd6425f_880f_   scene_1_init
     0009786C  GBVM$scene_1_init$0414aaf5_fc2d_   scene_1_init
     0009786C  GBVM_END$scene_1_init$fbda3044_9   scene_1_init
     00097881  GBVM$scene_1_init$32f8abd9_9de8_   scene_1_init
     00097891  GBVM$scene_1_init$d6f591e2_8553_   scene_1_init
     00097891  GBVM_END$scene_1_init$0414aaf5_f   scene_1_init
     000978A6  GBVM$scene_1_init$c3dd12a2_0453_   scene_1_init
     000978B6  GBVM$scene_1_init$f2e0bbdf_152a_   scene_1_init
     000978B6  GBVM_END$scene_1_init$d6f591e2_8   scene_1_init
     000978CB  GBVM$scene_1_init$1e00109b_b386_   scene_1_init
     000978DB  GBVM$scene_1_init$b49b857a_23a6_   scene_1_init
     000978DB  GBVM_END$scene_1_init$f2e0bbdf_1   scene_1_init
     000978F0  GBVM$scene_1_init$43a9ac9d_566f_   scene_1_init
     00097900  GBVM$scene_1_init$edb4bf3d_12c5_   scene_1_init
     00097900  GBVM_END$scene_1_init$b49b857a_2   scene_1_init
     00097915  GBVM$scene_1_init$7a6c648c_bd04_   scene_1_init
     00097925  GBVM$scene_1_init$ad232404_c7d5_   scene_1_init
ASxxxx Linker V03.00/V05.40 + sdld,  page 139.
Hexadecimal  [32-Bits]

Area                                    Addr        Size        Decimal Bytes (Attributes)
--------------------------------        ----        ----        ------- ----- ------------
_CODE_9                             00094000    00004000 =       16384. bytes (REL,CON)

      Value  Global                              Global Defined In Module
      -----  --------------------------------   ------------------------
     00097925  GBVM_END$scene_1_init$edb4bf3d_1   scene_1_init
     0009793A  GBVM$scene_1_init$bf222e09_74ef_   scene_1_init
     0009794A  GBVM$scene_1_init$e0c5f4f1_65b4_   scene_1_init
     0009794A  GBVM_END$scene_1_init$ad232404_c   scene_1_init
     0009795F  GBVM$scene_1_init$354d22f4_3890_   scene_1_init
     0009796F  GBVM$scene_1_init$1bd3f372_81e5_   scene_1_init
     0009796F  GBVM_END$scene_1_init$e0c5f4f1_6   scene_1_init
     00097984  GBVM$scene_1_init$b70c6d47_5a25_   scene_1_init
     00097994  GBVM$scene_1_init$dab775b0_151f_   scene_1_init
     00097994  GBVM_END$scene_1_init$1bd3f372_8   scene_1_init
     000979A9  GBVM$scene_1_init$1ad3ab7d_ee2f_   scene_1_init
     000979B9  GBVM$scene_1_init$2d61d474_cb14_   scene_1_init
     000979B9  GBVM_END$scene_1_init$dab775b0_1   scene_1_init
     000979CE  GBVM$scene_1_init$c63d9ae3_9fd0_   scene_1_init
     000979DE  GBVM$scene_1_init$c2cac25c_ae74_   scene_1_init
     000979DE  GBVM_END$scene_1_init$2d61d474_c   scene_1_init
     000979F3  GBVM$scene_1_init$8a5095ac_fd69_   scene_1_init
     00097A03  GBVM$scene_1_init$ab21c6dc_7426_   scene_1_init
     00097A03  GBVM_END$scene_1_init$c2cac25c_a   scene_1_init
     00097A18  GBVM$scene_1_init$b84cd692_e952_   scene_1_init
     00097A28  GBVM$scene_1_init$a287220a_4ee8_   scene_1_init
     00097A28  GBVM_END$scene_1_init$ab21c6dc_7   scene_1_init
     00097A3D  GBVM$scene_1_init$2183132b_6380_   scene_1_init
     00097A4D  GBVM$scene_1_init$6e22f4aa_8dd1_   scene_1_init
     00097A4D  GBVM_END$scene_1_init$a287220a_4   scene_1_init
     00097A62  GBVM$scene_1_init$9c062e4a_2050_   scene_1_init
     00097A72  GBVM$scene_1_init$b3771379_78f6_   scene_1_init
     00097A72  GBVM_END$scene_1_init$6e22f4aa_8   scene_1_init
     00097A87  GBVM$scene_1_init$08cb0c7e_c7ef_   scene_1_init
     00097A97  GBVM$scene_1_init$d64c14b3_7853_   scene_1_init
     00097A97  GBVM_END$scene_1_init$b3771379_7   scene_1_init
     00097AAC  GBVM$scene_1_init$9feaef55_5bab_   scene_1_init
     00097ABC  GBVM$scene_1_init$d1b1b441_c2ee_   scene_1_init
     00097ABC  GBVM_END$scene_1_init$d64c14b3_7   scene_1_init
     00097AD1  GBVM$scene_1_init$d1bfc0da_588d_   scene_1_init
     00097AE1  GBVM$scene_1_init$6520e939_cd7c_   scene_1_init
     00097AE1  GBVM_END$scene_1_init$d1b1b441_c   scene_1_init
     00097AF6  GBVM$scene_1_init$11961821_dca5_   scene_1_init
     00097B06  GBVM$scene_1_init$5d414740_e132_   scene_1_init
     00097B06  GBVM_END$scene_1_init$6520e939_c   scene_1_init
     00097B1B  GBVM$scene_1_init$b27586c9_300f_   scene_1_init
     00097B2B  GBVM$scene_1_init$f6c729d8_8189_   scene_1_init
     00097B2B  GBVM_END$scene_1_init$5d414740_e   scene_1_init
     00097B40  GBVM$scene_1_init$85770d2c_c2cc_   scene_1_init
     00097B50  GBVM$scene_1_init$eded1e05_5ae2_   scene_1_init
     00097B50  GBVM_END$scene_1_init$e9dc2aca_0   scene_1_init
     00097B50  GBVM_END$scene_1_init$f6c729d8_8   scene_1_init
     00097B5C  GBVM$scene_1_init$bc55ccc4_8bec_   scene_1_init
     00097B6C  GBVM$scene_1_init$441a1362_a5ec_   scene_1_init
     00097B7C  GBVM$scene_1_init$175331c2_0ee8_   scene_1_init
     00097B8C  GBVM$scene_1_init$92aa123d_fc11_   scene_1_init
ASxxxx Linker V03.00/V05.40 + sdld,  page 140.
Hexadecimal  [32-Bits]

Area                                    Addr        Size        Decimal Bytes (Attributes)
--------------------------------        ----        ----        ------- ----- ------------
_CODE_9                             00094000    00004000 =       16384. bytes (REL,CON)

      Value  Global                              Global Defined In Module
      -----  --------------------------------   ------------------------
     00097B9C  GBVM$scene_1_init$5dfdb4b6_5d0c_   scene_1_init
     00097BAC  GBVM$scene_1_init$075db25e_ba02_   scene_1_init
     00097BBC  GBVM$scene_1_init$d316503b_69b2_   scene_1_init
     00097BCC  GBVM$scene_1_init$17073b75_0a36_   scene_1_init
     00097BDC  GBVM$scene_1_init$2908f1c5_0725_   scene_1_init
     00097BEC  GBVM$scene_1_init$dc842a15_8e8c_   scene_1_init
     00097BFC  GBVM$scene_1_init$38e5744c_f67f_   scene_1_init
     00097C0C  GBVM$scene_1_init$6393340b_8dbb_   scene_1_init
     00097C1C  GBVM$scene_1_init$1e3e984c_d859_   scene_1_init
     00097C2C  GBVM$scene_1_init$8f9c9083_5b32_   scene_1_init
     00097C3C  GBVM$scene_1_init$5babdac3_d582_   scene_1_init
     00097C4C  GBVM$scene_1_init$d84323ff_2954_   scene_1_init
     00097C5C  GBVM$scene_1_init$97f67dd9_dd48_   scene_1_init
     00097C6C  GBVM$scene_1_init$da4f0a58_c683_   scene_1_init
     00097C7C  GBVM$scene_1_init$autofade$146c7   scene_1_init
     00097C7C  GBVM_END$scene_1_init$eded1e05_5   scene_1_init
     00097C87  GBVM$scene_1_init$d975d644_1120_   scene_1_init
     00097C93  GBVM$scene_1_init$11ea8fcd_13d3_   scene_1_init
     00097C98  GBVM$scene_1_init$81357a8d_b8c3_   scene_1_init
     00097DD6  GBVM$scene_1_init$110fe2c8_44a5_   scene_1_init
     00097DD6  GBVM_END$scene_1_init$d975d644_1   scene_1_init
     00097DE2  GBVM$scene_1_init$4e17c2d7_cf02_   scene_1_init
     00097DEC  GBVM$scene_1_init$5e2f81f1_81eb_   scene_1_init
     00097DEC  GBVM_END$scene_1_init$110fe2c8_4   scene_1_init
     00097DF8  GBVM$scene_1_init$81075ec4_e705_   scene_1_init
     00097E85  GBVM$scene_1_init$58865cee_0e5e_   scene_1_init
     00097E8A  GBVM$scene_1_init$693836ab_0af8_   scene_1_init
     00097E8A  GBVM_END$scene_1_init$5e2f81f1_8   scene_1_init
     00097E9F  GBVM$scene_1_init$6b123455_e6b1_   scene_1_init
     00097EAA  GBVM$scene_1_init$7c241bc6_7f7f_   scene_1_init
     00097F38  GBVM$scene_1_init$157196d3_e1e4_   scene_1_init
     00097F38  GBVM$scene_1_init$888db331_1f15_   scene_1_init
     00097F38  GBVM_END$scene_1_init$693836ab_0   scene_1_init
     00097F41  GBVM$scene_1_init$2a259a66_36ce_   scene_1_init
     00097F43  GBVM$scene_1_init$f713b2b1_f532_   scene_1_init
     00097F4B  GBVM$scene_1_init$e9659ef9_2a3b_   scene_1_init
     00097F4B  GBVM_END$scene_1_init$f713b2b1_f   scene_1_init
     00097F5D  GBVM$scene_1_init$f485aa08_2129_   scene_1_init
     00097F65  GBVM$scene_1_init$054f5234_4435_   scene_1_init
     00097F6D  GBVM_END$scene_1_init$054f5234_4   scene_1_init
     00097F6D  GBVM_END$scene_1_init$e9659ef9_2   scene_1_init
     00097F6E  ___func_tileset_default_frame      tileset_default_frame
     00097F6E  _tileset_default_frame             tileset_default_frame
ASxxxx Linker V03.00/V05.40 + sdld,  page 141.
Hexadecimal  [32-Bits]

Area                                    Addr        Size        Decimal Bytes (Attributes)
--------------------------------        ----        ----        ------- ----- ------------
_CODE_17                            00114000    00004000 =       16384. bytes (REL,CON)

      Value  Global                              Global Defined In Module
      -----  --------------------------------   ------------------------
     00114000  _actor_2_update                    actor_2_update
     00114002  GBVM$actor_2_update$e583594c_395   actor_2_update
     0011402A  GBVM$actor_2_update$26afb1de_6e8   actor_2_update
     0011403C  GBVM$actor_2_update$63eb3120_79b   actor_2_update
     00114042  GBVM$actor_2_update$a22b9545_61b   actor_2_update
     0011404D  GBVM$actor_2_update$f3b2df2a_5e1   actor_2_update
     00114078  GBVM$actor_2_update$89a8dfcf_759   actor_2_update
     00114080  GBVM$actor_2_update$aedba850_559   actor_2_update
     00114081  GBVM$actor_2_update$183b5e02_538   actor_2_update
     00114085  GBVM$actor_2_update$204f40d0_1af   actor_2_update
     0011408F  GBVM$actor_2_update$ed0e3c68_8d7   actor_2_update
     0011409E  GBVM$actor_2_update$279a25da_5d1   actor_2_update
     001140A7  GBVM$actor_2_update$4eb36d98_1be   actor_2_update
     001140B1  GBVM$actor_2_update$bea6dc88_fcc   actor_2_update
     001140B9  GBVM$actor_2_update$051c03ff_184   actor_2_update
     001140B9  GBVM_END$actor_2_update$bea6dc88   actor_2_update
     001140C4  GBVM$actor_2_update$6b09a603_51d   actor_2_update
     001140CC  GBVM$actor_2_update$4394763f_ef0   actor_2_update
     001140D8  GBVM$actor_2_update$2850072c_cc4   actor_2_update
     0011410A  GBVM_END$actor_2_update$26afb1de   actor_2_update
     0011410D  GBVM$actor_2_update$cf2be5c4_485   actor_2_update
     0011410D  GBVM_END$actor_2_update$e583594c   actor_2_update
     00114130  GBVM$actor_2_update$0495142c_b5a   actor_2_update
     00114158  GBVM$actor_2_update$a23952ed_196   actor_2_update
     0011416A  GBVM$actor_2_update$f1e3f97a_7fb   actor_2_update
     00114175  GBVM$actor_2_update$f9bb31d6_96e   actor_2_update
     0011417B  GBVM$actor_2_update$a97e765c_277   actor_2_update
     001141A6  GBVM$actor_2_update$b24866c8_dc0   actor_2_update
     001141CE  GBVM_END$actor_2_update$a23952ed   actor_2_update
     001141D1  GBVM$actor_2_update$46c6e20b_b12   actor_2_update
     001141D1  GBVM_END$actor_2_update$0495142c   actor_2_update
     001141E0  GBVM$actor_2_update$589a143e_98a   actor_2_update
     001141E9  GBVM$actor_2_update$48812189_748   actor_2_update
     001141F9  GBVM$actor_2_update$fb5761b4_782   actor_2_update
     00114205  GBVM$actor_2_update$da669cdf_2c8   actor_2_update
     00114215  GBVM$actor_2_update$ef7edad3_38a   actor_2_update
     00114221  GBVM$actor_2_update$bce469c1_f13   actor_2_update
     00114230  GBVM$actor_2_update$08eeecf8_35f   actor_2_update
     00114239  GBVM$actor_2_update$315cdf5a_be2   actor_2_update
     00114246  ___func_bg_final_escape_2_tilema   bg_final_escape_2_tilemap_at
     00114246  _bg_final_escape_2_tilemap_attr    bg_final_escape_2_tilemap_at
     00114782  ___func_bg_final_escape_2_tilema   bg_final_escape_2_tilemap
     00114782  _bg_final_escape_2_tilemap         bg_final_escape_2_tilemap
     00114CBE  ___func_bg_game_over_productivit   bg_game_over_productivity_ti
     00114CBE  _bg_game_over_productivity_tiles   bg_game_over_productivity_ti
     001151D0  ___func_bg_lost_n_found_tileset    bg_lost_n_found_tileset
     001151D0  _bg_lost_n_found_tileset           bg_lost_n_found_tileset
     00115712  _scene_21_init                     scene_21_init
     00115715  GBVM$scene_21_init$942a2f85_0554   scene_21_init
     0011571F  GBVM$scene_21_init$4229b41d_e60c   scene_21_init
ASxxxx Linker V03.00/V05.40 + sdld,  page 142.
Hexadecimal  [32-Bits]

Area                                    Addr        Size        Decimal Bytes (Attributes)
--------------------------------        ----        ----        ------- ----- ------------
_CODE_17                            00114000    00004000 =       16384. bytes (REL,CON)

      Value  Global                              Global Defined In Module
      -----  --------------------------------   ------------------------
     0011572E  GBVM$scene_21_init$bab2aa0f_658a   scene_21_init
     00115737  GBVM$scene_21_init$bfc1f750_415a   scene_21_init
     00115744  GBVM$scene_21_init$bd0f66ca_8e2a   scene_21_init
     0011574D  GBVM$scene_21_init$ea43809b_0219   scene_21_init
     00115755  GBVM$scene_21_init$23b60ade_0b0f   scene_21_init
     00115755  GBVM_END$scene_21_init$ea43809b_   scene_21_init
     0011576A  GBVM$scene_21_init$5b685ff8_2241   scene_21_init
     0011577A  GBVM$scene_21_init$ff8c5f16_12af   scene_21_init
     0011577A  GBVM_END$scene_21_init$23b60ade_   scene_21_init
     0011578F  GBVM$scene_21_init$e309ed41_6b3e   scene_21_init
     0011579F  GBVM$scene_21_init$0230127a_1c80   scene_21_init
     0011579F  GBVM_END$scene_21_init$ff8c5f16_   scene_21_init
     001157B4  GBVM$scene_21_init$f761d2c9_0e9d   scene_21_init
     001157C4  GBVM$scene_21_init$a934609e_e4e0   scene_21_init
     001157C4  GBVM_END$scene_21_init$0230127a_   scene_21_init
     001157D9  GBVM$scene_21_init$79bdb804_41fc   scene_21_init
     001157E9  GBVM$scene_21_init$0eeef0ed_d46b   scene_21_init
     001157E9  GBVM_END$scene_21_init$a934609e_   scene_21_init
     001157FE  GBVM$scene_21_init$17478ec6_e5b9   scene_21_init
     0011580E  GBVM$scene_21_init$1b61dfd3_a6e9   scene_21_init
     0011580E  GBVM_END$scene_21_init$0eeef0ed_   scene_21_init
     00115823  GBVM$scene_21_init$ee440aa1_ef86   scene_21_init
     00115833  GBVM$scene_21_init$e354f358_63ca   scene_21_init
     00115833  GBVM_END$scene_21_init$1b61dfd3_   scene_21_init
     00115848  GBVM$scene_21_init$e8eee08c_11af   scene_21_init
     00115858  GBVM$scene_21_init$3db67de9_d109   scene_21_init
     00115858  GBVM_END$scene_21_init$e354f358_   scene_21_init
     0011586D  GBVM$scene_21_init$18b03474_d360   scene_21_init
     0011587D  GBVM$scene_21_init$f832bde2_8dc1   scene_21_init
     0011587D  GBVM_END$scene_21_init$3db67de9_   scene_21_init
     00115892  GBVM$scene_21_init$3bbb586d_7ebd   scene_21_init
     001158A2  GBVM$scene_21_init$53343f56_32b7   scene_21_init
     001158A2  GBVM_END$scene_21_init$f832bde2_   scene_21_init
     001158B7  GBVM$scene_21_init$6173688f_1fb6   scene_21_init
     001158C7  GBVM$scene_21_init$a1576e82_f87a   scene_21_init
     001158C7  GBVM_END$scene_21_init$53343f56_   scene_21_init
     001158DC  GBVM$scene_21_init$16e26e21_a553   scene_21_init
     001158EC  GBVM$scene_21_init$ea4b22c0_7ffb   scene_21_init
     001158EC  GBVM_END$scene_21_init$a1576e82_   scene_21_init
     00115901  GBVM$scene_21_init$beafa917_a42d   scene_21_init
     00115911  GBVM$scene_21_init$55d38582_a209   scene_21_init
     00115911  GBVM_END$scene_21_init$ea4b22c0_   scene_21_init
     00115926  GBVM$scene_21_init$22ce9719_9135   scene_21_init
     00115936  GBVM$scene_21_init$8d8d3fff_e189   scene_21_init
     00115936  GBVM_END$scene_21_init$55d38582_   scene_21_init
     0011594B  GBVM$scene_21_init$25693d69_98af   scene_21_init
     0011595B  GBVM$scene_21_init$c6b0f859_622d   scene_21_init
     0011595B  GBVM_END$scene_21_init$8d8d3fff_   scene_21_init
     00115970  GBVM$scene_21_init$4c50aba5_0b0f   scene_21_init
     00115980  GBVM$scene_21_init$2223016e_0c03   scene_21_init
     00115980  GBVM_END$scene_21_init$c6b0f859_   scene_21_init
ASxxxx Linker V03.00/V05.40 + sdld,  page 143.
Hexadecimal  [32-Bits]

Area                                    Addr        Size        Decimal Bytes (Attributes)
--------------------------------        ----        ----        ------- ----- ------------
_CODE_17                            00114000    00004000 =       16384. bytes (REL,CON)

      Value  Global                              Global Defined In Module
      -----  --------------------------------   ------------------------
     00115995  GBVM$scene_21_init$ec2f0106_625e   scene_21_init
     001159A5  GBVM$scene_21_init$7cf5b748_43b1   scene_21_init
     001159A5  GBVM_END$scene_21_init$2223016e_   scene_21_init
     001159BA  GBVM$scene_21_init$ae827a7a_1188   scene_21_init
     001159CA  GBVM$scene_21_init$5a533d21_2dc9   scene_21_init
     001159CA  GBVM_END$scene_21_init$7cf5b748_   scene_21_init
     001159DF  GBVM$scene_21_init$f5f2ac60_e14e   scene_21_init
     001159EF  GBVM$scene_21_init$350156e7_608d   scene_21_init
     001159EF  GBVM_END$scene_21_init$5a533d21_   scene_21_init
     00115A04  GBVM$scene_21_init$de7b42ed_9bca   scene_21_init
     00115A14  GBVM$scene_21_init$fcbb1b4d_c67c   scene_21_init
     00115A14  GBVM_END$scene_21_init$350156e7_   scene_21_init
     00115A29  GBVM$scene_21_init$de0cdb1d_423d   scene_21_init
     00115A39  GBVM$scene_21_init$cf1f51ac_e328   scene_21_init
     00115A39  GBVM_END$scene_21_init$fcbb1b4d_   scene_21_init
     00115A4E  GBVM$scene_21_init$5c10b3cb_0309   scene_21_init
     00115A5E  GBVM$scene_21_init$744b955b_3f78   scene_21_init
     00115A5E  GBVM_END$scene_21_init$cf1f51ac_   scene_21_init
     00115A73  GBVM$scene_21_init$3c254cd7_560b   scene_21_init
     00115A83  GBVM$scene_21_init$ef9a561b_3f40   scene_21_init
     00115A83  GBVM_END$scene_21_init$744b955b_   scene_21_init
     00115A98  GBVM$scene_21_init$708c0795_577c   scene_21_init
     00115AA8  GBVM$scene_21_init$8f29116d_c40d   scene_21_init
     00115AA8  GBVM_END$scene_21_init$ef9a561b_   scene_21_init
     00115ABD  GBVM$scene_21_init$abea2d6c_a12d   scene_21_init
     00115ACD  GBVM$scene_21_init$d897cc37_b6d9   scene_21_init
     00115ACD  GBVM_END$scene_21_init$8f29116d_   scene_21_init
     00115AE2  GBVM$scene_21_init$62157f69_46e3   scene_21_init
     00115AF2  GBVM$scene_21_init$06efd5ff_f012   scene_21_init
     00115AF2  GBVM_END$scene_21_init$d897cc37_   scene_21_init
     00115B07  GBVM$scene_21_init$b4e308a2_dc95   scene_21_init
     00115B17  GBVM$scene_21_init$4b3d9051_86cb   scene_21_init
     00115B17  GBVM_END$scene_21_init$06efd5ff_   scene_21_init
     00115B2C  GBVM$scene_21_init$3404001a_ef86   scene_21_init
     00115B3C  GBVM$scene_21_init$539344c8_30ce   scene_21_init
     00115B3C  GBVM_END$scene_21_init$4b3d9051_   scene_21_init
     00115B51  GBVM$scene_21_init$c600f0a8_e91d   scene_21_init
     00115B61  GBVM$scene_21_init$2a933a4f_8574   scene_21_init
     00115B61  GBVM_END$scene_21_init$539344c8_   scene_21_init
     00115B76  GBVM$scene_21_init$902afe57_90d1   scene_21_init
     00115B86  GBVM$scene_21_init$035ab84f_91b7   scene_21_init
     00115B86  GBVM_END$scene_21_init$2a933a4f_   scene_21_init
     00115B9B  GBVM$scene_21_init$2a31ebc0_b4ca   scene_21_init
     00115BAB  GBVM$scene_21_init$b2eb3a8b_c548   scene_21_init
     00115BAB  GBVM_END$scene_21_init$035ab84f_   scene_21_init
     00115BAB  GBVM_END$scene_21_init$bab2aa0f_   scene_21_init
     00115BB7  GBVM$scene_21_init$679e4b78_1fba   scene_21_init
     00115BC1  GBVM$scene_21_init$9634892c_8145   scene_21_init
     00115BC1  GBVM$scene_21_init$b53d60ae_8e64   scene_21_init
     00115BC1  GBVM_END$scene_21_init$b2eb3a8b_   scene_21_init
     00115BCA  GBVM$scene_21_init$7fee2cd0_d5c3   scene_21_init
ASxxxx Linker V03.00/V05.40 + sdld,  page 144.
Hexadecimal  [32-Bits]

Area                                    Addr        Size        Decimal Bytes (Attributes)
--------------------------------        ----        ----        ------- ----- ------------
_CODE_17                            00114000    00004000 =       16384. bytes (REL,CON)

      Value  Global                              Global Defined In Module
      -----  --------------------------------   ------------------------
     00115BCC  GBVM$scene_21_init$aaa6fb12_b6cd   scene_21_init
     00115BD4  GBVM$scene_21_init$3db59820_b988   scene_21_init
     00115BD4  GBVM_END$scene_21_init$aaa6fb12_   scene_21_init
     00115BE6  GBVM$scene_21_init$5eb94bbf_7296   scene_21_init
     00115BEE  GBVM$scene_21_init$7e209926_65ca   scene_21_init
     00115BF6  GBVM$scene_21_init$7c765c5a_9f47   scene_21_init
     00115BF6  GBVM_END$scene_21_init$3db59820_   scene_21_init
     00115BF6  GBVM_END$scene_21_init$7e209926_   scene_21_init
     00115C01  GBVM$scene_21_init$5e966645_8212   scene_21_init
     00115C0A  ___func_scene_25_collisions        scene_25_collisions
     00115C0A  _scene_25_collisions               scene_25_collisions
     00116150  _scene_25_init                     scene_25_init
     00116153  GBVM$scene_25_init$938b8917_c6d6   scene_25_init
     00116162  GBVM$scene_25_init$01b0f4dd_0adf   scene_25_init
     0011616C  GBVM$scene_25_init$47d1b2b6_9b4f   scene_25_init
     00116176  GBVM$scene_25_init$90a1f758_e8ba   scene_25_init
     0011617F  GBVM$scene_25_init$57cc0395_52f8   scene_25_init
     0011618C  GBVM$scene_25_init$46e83d0f_29de   scene_25_init
     00116195  GBVM$scene_25_init$d417c179_efbc   scene_25_init
     0011619D  GBVM$scene_25_init$b59a0e7e_3714   scene_25_init
     0011619D  GBVM_END$scene_25_init$d417c179_   scene_25_init
     001161B2  GBVM$scene_25_init$2bfcd177_a9b5   scene_25_init
     001161C2  GBVM$scene_25_init$58366d25_a23f   scene_25_init
     001161C2  GBVM_END$scene_25_init$b59a0e7e_   scene_25_init
     001161D7  GBVM$scene_25_init$b89f1378_a906   scene_25_init
     001161E7  GBVM$scene_25_init$6ec285f9_cf11   scene_25_init
     001161E7  GBVM_END$scene_25_init$58366d25_   scene_25_init
     001161FC  GBVM$scene_25_init$b4ea91ef_2890   scene_25_init
     0011620C  GBVM$scene_25_init$84d9d446_0785   scene_25_init
     0011620C  GBVM_END$scene_25_init$6ec285f9_   scene_25_init
     00116221  GBVM$scene_25_init$4fcb7be9_0e26   scene_25_init
     00116231  GBVM$scene_25_init$f00b911d_0024   scene_25_init
     00116231  GBVM_END$scene_25_init$84d9d446_   scene_25_init
     00116246  GBVM$scene_25_init$5a3ab532_88c5   scene_25_init
     00116256  GBVM$scene_25_init$cc1c60eb_2db7   scene_25_init
     00116256  GBVM_END$scene_25_init$f00b911d_   scene_25_init
     0011626B  GBVM$scene_25_init$23a4cf85_2172   scene_25_init
     0011627B  GBVM$scene_25_init$210c151e_3955   scene_25_init
     0011627B  GBVM_END$scene_25_init$cc1c60eb_   scene_25_init
     00116290  GBVM$scene_25_init$48d10e02_bb40   scene_25_init
     001162A0  GBVM$scene_25_init$931ed470_d640   scene_25_init
     001162A0  GBVM_END$scene_25_init$210c151e_   scene_25_init
     001162B5  GBVM$scene_25_init$b6fc66c4_014f   scene_25_init
     001162C5  GBVM$scene_25_init$5fb8c310_f54b   scene_25_init
     001162C5  GBVM_END$scene_25_init$931ed470_   scene_25_init
     001162DA  GBVM$scene_25_init$347dae18_b1d6   scene_25_init
     001162EA  GBVM$scene_25_init$7ffdee91_a210   scene_25_init
     001162EA  GBVM_END$scene_25_init$5fb8c310_   scene_25_init
     001162FF  GBVM$scene_25_init$1c3a3762_e02d   scene_25_init
     0011630F  GBVM$scene_25_init$d2d7e7fb_e7b7   scene_25_init
     0011630F  GBVM_END$scene_25_init$7ffdee91_   scene_25_init
ASxxxx Linker V03.00/V05.40 + sdld,  page 145.
Hexadecimal  [32-Bits]

Area                                    Addr        Size        Decimal Bytes (Attributes)
--------------------------------        ----        ----        ------- ----- ------------
_CODE_17                            00114000    00004000 =       16384. bytes (REL,CON)

      Value  Global                              Global Defined In Module
      -----  --------------------------------   ------------------------
     00116324  GBVM$scene_25_init$66ce1227_3eb3   scene_25_init
     00116334  GBVM$scene_25_init$723a5644_4430   scene_25_init
     00116334  GBVM_END$scene_25_init$d2d7e7fb_   scene_25_init
     00116349  GBVM$scene_25_init$6b43195b_c0f3   scene_25_init
     00116359  GBVM$scene_25_init$a47f6074_fa10   scene_25_init
     00116359  GBVM_END$scene_25_init$723a5644_   scene_25_init
     0011636E  GBVM$scene_25_init$498458cf_5a31   scene_25_init
     0011637E  GBVM$scene_25_init$483e45c9_0418   scene_25_init
     0011637E  GBVM_END$scene_25_init$a47f6074_   scene_25_init
     00116393  GBVM$scene_25_init$8d6e49ad_127c   scene_25_init
     001163A3  GBVM$scene_25_init$504776cd_1930   scene_25_init
     001163A3  GBVM_END$scene_25_init$483e45c9_   scene_25_init
     001163B8  GBVM$scene_25_init$362da949_1e05   scene_25_init
     001163C8  GBVM$scene_25_init$a608c179_7505   scene_25_init
     001163C8  GBVM_END$scene_25_init$504776cd_   scene_25_init
     001163DD  GBVM$scene_25_init$949103ef_c00b   scene_25_init
     001163ED  GBVM$scene_25_init$593eba35_19dd   scene_25_init
     001163ED  GBVM_END$scene_25_init$a608c179_   scene_25_init
     00116402  GBVM$scene_25_init$0f503d73_8c2a   scene_25_init
     00116412  GBVM$scene_25_init$c01caba7_227b   scene_25_init
     00116412  GBVM_END$scene_25_init$593eba35_   scene_25_init
     00116427  GBVM$scene_25_init$e5f5a2d8_7724   scene_25_init
     00116437  GBVM$scene_25_init$d32d7300_ee9d   scene_25_init
     00116437  GBVM_END$scene_25_init$c01caba7_   scene_25_init
     0011644C  GBVM$scene_25_init$372e67e2_cf84   scene_25_init
     0011645C  GBVM$scene_25_init$74f33cbb_01cf   scene_25_init
     0011645C  GBVM_END$scene_25_init$d32d7300_   scene_25_init
     00116471  GBVM$scene_25_init$75b7311f_3d1a   scene_25_init
     00116481  GBVM$scene_25_init$85571c8d_afee   scene_25_init
     00116481  GBVM_END$scene_25_init$74f33cbb_   scene_25_init
     00116496  GBVM$scene_25_init$07450112_6d3c   scene_25_init
     001164A6  GBVM$scene_25_init$63b00ddd_0790   scene_25_init
     001164A6  GBVM_END$scene_25_init$85571c8d_   scene_25_init
     001164BB  GBVM$scene_25_init$38edea6b_f6c6   scene_25_init
     001164CB  GBVM$scene_25_init$15b387fb_c9cb   scene_25_init
     001164CB  GBVM_END$scene_25_init$63b00ddd_   scene_25_init
     001164E0  GBVM$scene_25_init$db7abb78_7bcb   scene_25_init
     001164F0  GBVM$scene_25_init$3f1a6ed9_67b2   scene_25_init
     001164F0  GBVM_END$scene_25_init$15b387fb_   scene_25_init
     00116505  GBVM$scene_25_init$eb9d750d_5176   scene_25_init
     00116515  GBVM$scene_25_init$81f34264_f8ab   scene_25_init
     00116515  GBVM_END$scene_25_init$3f1a6ed9_   scene_25_init
     0011652A  GBVM$scene_25_init$3ebece59_9e42   scene_25_init
     0011653A  GBVM$scene_25_init$3a176ea2_8e1d   scene_25_init
     0011653A  GBVM_END$scene_25_init$81f34264_   scene_25_init
     0011654F  GBVM$scene_25_init$d133ff7e_d215   scene_25_init
     0011655F  GBVM$scene_25_init$6ea3a780_fac3   scene_25_init
     0011655F  GBVM_END$scene_25_init$3a176ea2_   scene_25_init
     00116574  GBVM$scene_25_init$9366d2df_50f9   scene_25_init
     00116584  GBVM$scene_25_init$29243ac2_1dde   scene_25_init
     00116584  GBVM_END$scene_25_init$6ea3a780_   scene_25_init
ASxxxx Linker V03.00/V05.40 + sdld,  page 146.
Hexadecimal  [32-Bits]

Area                                    Addr        Size        Decimal Bytes (Attributes)
--------------------------------        ----        ----        ------- ----- ------------
_CODE_17                            00114000    00004000 =       16384. bytes (REL,CON)

      Value  Global                              Global Defined In Module
      -----  --------------------------------   ------------------------
     00116599  GBVM$scene_25_init$485f5076_278f   scene_25_init
     001165A9  GBVM$scene_25_init$d7d06d14_328e   scene_25_init
     001165A9  GBVM_END$scene_25_init$29243ac2_   scene_25_init
     001165BE  GBVM$scene_25_init$b9516aba_da75   scene_25_init
     001165CE  GBVM$scene_25_init$7af52f6a_3301   scene_25_init
     001165CE  GBVM_END$scene_25_init$d7d06d14_   scene_25_init
     001165E3  GBVM$scene_25_init$19f49694_18b5   scene_25_init
     001165F3  GBVM$scene_25_init$0aa0547c_55ca   scene_25_init
     001165F3  GBVM$scene_25_init$7b05a6fc_f461   scene_25_init
     001165F3  GBVM_END$scene_25_init$7af52f6a_   scene_25_init
     001165F3  GBVM_END$scene_25_init$90a1f758_   scene_25_init
     001165FD  GBVM$scene_25_init$586c993b_51da   scene_25_init
     00116607  GBVM$scene_25_init$4bced220_8dfc   scene_25_init
     00116609  GBVM$scene_25_init$e316923a_3f7d   scene_25_init
     00116615  GBVM$scene_25_init$f24c7a22_92b0   scene_25_init
     0011661F  GBVM$scene_25_init$f70ce7b5_903e   scene_25_init
     0011661F  GBVM_END$scene_25_init$e316923a_   scene_25_init
     00116628  GBVM$scene_25_init$5c3ec03b_2e51   scene_25_init
     00116630  GBVM$scene_25_init$daffdb9d_439b   scene_25_init
     00116630  GBVM_END$scene_25_init$5c3ec03b_   scene_25_init
     00116642  GBVM$scene_25_init$00410dd6_52a4   scene_25_init
     0011664A  GBVM$scene_25_init$cd682b05_e7f8   scene_25_init
     00116652  GBVM$scene_25_init$autofade$442a   scene_25_init
     00116652  GBVM_END$scene_25_init$cd682b05_   scene_25_init
     00116652  GBVM_END$scene_25_init$daffdb9d_   scene_25_init
     0011665E  ___func_scene_26_collisions        scene_26_collisions
     0011665E  _scene_26_collisions               scene_26_collisions
     00116B9A  ___func_scene_27_collisions        scene_27_collisions
     00116B9A  _scene_27_collisions               scene_27_collisions
     001170E0  _scene_29_init                     scene_29_init
     001170E3  GBVM$scene_29_init$f096938b_c47a   scene_29_init
     001170ED  GBVM$scene_29_init$6412a7c5_f87e   scene_29_init
     001170FC  GBVM$scene_29_init$7f5c4f29_f1f9   scene_29_init
     00117105  GBVM$scene_29_init$b925e7d5_2a78   scene_29_init
     00117112  GBVM$scene_29_init$f612165f_4b56   scene_29_init
     0011711B  GBVM$scene_29_init$c57fa95c_120d   scene_29_init
     00117123  GBVM$scene_29_init$807af181_2a81   scene_29_init
     00117123  GBVM_END$scene_29_init$c57fa95c_   scene_29_init
     00117138  GBVM$scene_29_init$b3c2c17d_a219   scene_29_init
     00117148  GBVM$scene_29_init$1531663c_fa61   scene_29_init
     00117148  GBVM_END$scene_29_init$807af181_   scene_29_init
     0011715D  GBVM$scene_29_init$f5ee1aea_6834   scene_29_init
     0011716D  GBVM$scene_29_init$b7ffb0f5_2c00   scene_29_init
     0011716D  GBVM_END$scene_29_init$1531663c_   scene_29_init
     00117182  GBVM$scene_29_init$50af1605_e18e   scene_29_init
     00117192  GBVM$scene_29_init$a14155df_7aa6   scene_29_init
     00117192  GBVM_END$scene_29_init$b7ffb0f5_   scene_29_init
     001171A7  GBVM$scene_29_init$80eab84e_1b18   scene_29_init
     001171B7  GBVM$scene_29_init$04e95e75_f9e3   scene_29_init
     001171B7  GBVM_END$scene_29_init$a14155df_   scene_29_init
     001171CC  GBVM$scene_29_init$158a59a0_a90f   scene_29_init
ASxxxx Linker V03.00/V05.40 + sdld,  page 147.
Hexadecimal  [32-Bits]

Area                                    Addr        Size        Decimal Bytes (Attributes)
--------------------------------        ----        ----        ------- ----- ------------
_CODE_17                            00114000    00004000 =       16384. bytes (REL,CON)

      Value  Global                              Global Defined In Module
      -----  --------------------------------   ------------------------
     001171DC  GBVM$scene_29_init$0b1829ff_03ff   scene_29_init
     001171DC  GBVM_END$scene_29_init$04e95e75_   scene_29_init
     001171F1  GBVM$scene_29_init$8077d075_3e2e   scene_29_init
     00117201  GBVM$scene_29_init$09f0b72b_de8f   scene_29_init
     00117201  GBVM_END$scene_29_init$0b1829ff_   scene_29_init
     00117216  GBVM$scene_29_init$73e4f851_bcc4   scene_29_init
     00117226  GBVM$scene_29_init$dfed8b6d_4e7f   scene_29_init
     00117226  GBVM_END$scene_29_init$09f0b72b_   scene_29_init
     0011723B  GBVM$scene_29_init$b3eb7c5c_cef1   scene_29_init
     0011724B  GBVM$scene_29_init$0646fb82_7738   scene_29_init
     0011724B  GBVM_END$scene_29_init$dfed8b6d_   scene_29_init
     00117260  GBVM$scene_29_init$bd88f7c6_9d58   scene_29_init
     00117270  GBVM$scene_29_init$05f73451_5d5d   scene_29_init
     00117270  GBVM_END$scene_29_init$0646fb82_   scene_29_init
     00117285  GBVM$scene_29_init$738e2b2c_edab   scene_29_init
     00117295  GBVM$scene_29_init$f25a5963_d5f3   scene_29_init
     00117295  GBVM_END$scene_29_init$05f73451_   scene_29_init
     001172AA  GBVM$scene_29_init$d0991afd_c0a5   scene_29_init
     001172BA  GBVM$scene_29_init$357a346e_9017   scene_29_init
     001172BA  GBVM_END$scene_29_init$f25a5963_   scene_29_init
     001172CF  GBVM$scene_29_init$45d494cd_d0b8   scene_29_init
     001172DF  GBVM$scene_29_init$07daaec2_0e62   scene_29_init
     001172DF  GBVM_END$scene_29_init$357a346e_   scene_29_init
     001172F4  GBVM$scene_29_init$87a43146_9e9e   scene_29_init
     00117304  GBVM$scene_29_init$6a855d0a_cde2   scene_29_init
     00117304  GBVM_END$scene_29_init$07daaec2_   scene_29_init
     00117319  GBVM$scene_29_init$8c6ba3f4_4311   scene_29_init
     00117329  GBVM$scene_29_init$5009a6ed_3adc   scene_29_init
     00117329  GBVM_END$scene_29_init$6a855d0a_   scene_29_init
     0011733E  GBVM$scene_29_init$a3896f3a_78ec   scene_29_init
     0011734E  GBVM$scene_29_init$43058f37_5bad   scene_29_init
     0011734E  GBVM_END$scene_29_init$5009a6ed_   scene_29_init
     00117363  GBVM$scene_29_init$b6584526_7daf   scene_29_init
     00117373  GBVM$scene_29_init$0ff7a7b2_3632   scene_29_init
     00117373  GBVM_END$scene_29_init$43058f37_   scene_29_init
     00117388  GBVM$scene_29_init$fea41f58_9887   scene_29_init
     00117398  GBVM$scene_29_init$77e679e9_0e37   scene_29_init
     00117398  GBVM_END$scene_29_init$0ff7a7b2_   scene_29_init
     001173AD  GBVM$scene_29_init$72e21505_26ee   scene_29_init
     001173BD  GBVM$scene_29_init$4934a7e4_609b   scene_29_init
     001173BD  GBVM_END$scene_29_init$77e679e9_   scene_29_init
     001173D2  GBVM$scene_29_init$d494d9a8_c421   scene_29_init
     001173E2  GBVM$scene_29_init$cc963aea_161d   scene_29_init
     001173E2  GBVM_END$scene_29_init$4934a7e4_   scene_29_init
     001173F7  GBVM$scene_29_init$bdea97fb_21b5   scene_29_init
     00117407  GBVM$scene_29_init$d31c55c8_da3d   scene_29_init
     00117407  GBVM_END$scene_29_init$cc963aea_   scene_29_init
     0011741C  GBVM$scene_29_init$8beb8075_ad71   scene_29_init
     0011742C  GBVM$scene_29_init$c51ef8e9_c0d8   scene_29_init
     0011742C  GBVM_END$scene_29_init$d31c55c8_   scene_29_init
     00117441  GBVM$scene_29_init$bf132753_309b   scene_29_init
ASxxxx Linker V03.00/V05.40 + sdld,  page 148.
Hexadecimal  [32-Bits]

Area                                    Addr        Size        Decimal Bytes (Attributes)
--------------------------------        ----        ----        ------- ----- ------------
_CODE_17                            00114000    00004000 =       16384. bytes (REL,CON)

      Value  Global                              Global Defined In Module
      -----  --------------------------------   ------------------------
     00117451  GBVM$scene_29_init$249f82cc_ef23   scene_29_init
     00117451  GBVM_END$scene_29_init$c51ef8e9_   scene_29_init
     00117466  GBVM$scene_29_init$f9a0f297_93ea   scene_29_init
     00117476  GBVM$scene_29_init$c8504cfa_8a43   scene_29_init
     00117476  GBVM_END$scene_29_init$249f82cc_   scene_29_init
     0011748B  GBVM$scene_29_init$9bd7ecad_58e6   scene_29_init
     0011749B  GBVM$scene_29_init$0a942cb2_bbb3   scene_29_init
     0011749B  GBVM_END$scene_29_init$c8504cfa_   scene_29_init
     001174B0  GBVM$scene_29_init$486dcb5b_8051   scene_29_init
     001174C0  GBVM$scene_29_init$ce521763_f645   scene_29_init
     001174C0  GBVM_END$scene_29_init$0a942cb2_   scene_29_init
     001174D5  GBVM$scene_29_init$78355053_97e2   scene_29_init
     001174E5  GBVM$scene_29_init$4381d761_3953   scene_29_init
     001174E5  GBVM_END$scene_29_init$ce521763_   scene_29_init
     001174FA  GBVM$scene_29_init$c8ede3ab_c768   scene_29_init
     0011750A  GBVM$scene_29_init$ec6ed770_f69e   scene_29_init
     0011750A  GBVM_END$scene_29_init$4381d761_   scene_29_init
     0011751F  GBVM$scene_29_init$d2541753_d738   scene_29_init
     0011752F  GBVM$scene_29_init$f832e35c_f35c   scene_29_init
     0011752F  GBVM_END$scene_29_init$ec6ed770_   scene_29_init
     00117544  GBVM$scene_29_init$cf7c903c_4ae7   scene_29_init
     00117554  GBVM$scene_29_init$207d6e56_af31   scene_29_init
     00117554  GBVM_END$scene_29_init$f832e35c_   scene_29_init
     00117569  GBVM$scene_29_init$3614de09_7dc5   scene_29_init
     00117579  GBVM$scene_29_init$48c01be9_45f9   scene_29_init
     00117579  GBVM$scene_29_init$f609eb50_8cb8   scene_29_init
     00117579  GBVM_END$scene_29_init$207d6e56_   scene_29_init
     00117579  GBVM_END$scene_29_init$7f5c4f29_   scene_29_init
     00117582  GBVM$scene_29_init$2b1e6d24_22a1   scene_29_init
     0011758B  GBVM$scene_29_init$255fde20_0c80   scene_29_init
     00117598  GBVM$scene_29_init$8bd6956f_250f   scene_29_init
     001175A2  GBVM$scene_29_init$f6f1ba70_483e   scene_29_init
     001175A2  GBVM_END$scene_29_init$2b1e6d24_   scene_29_init
     001175A4  GBVM$scene_29_init$123e2184_50dc   scene_29_init
     001175AC  GBVM$scene_29_init$b381dc67_f6ce   scene_29_init
     001175AC  GBVM_END$scene_29_init$123e2184_   scene_29_init
     001175BE  GBVM$scene_29_init$871ff9a8_47bc   scene_29_init
     001175C6  GBVM$scene_29_init$d16e9d85_c27e   scene_29_init
     001175CE  GBVM$scene_29_init$autofade$371e   scene_29_init
     001175CE  GBVM_END$scene_29_init$b381dc67_   scene_29_init
     001175CE  GBVM_END$scene_29_init$d16e9d85_   scene_29_init
     001175DA  _scene_37_init                     scene_37_init
     001175DD  GBVM$scene_37_init$915cac83_a107   scene_37_init
     001175E6  GBVM$scene_37_init$9315b893_1b32   scene_37_init
     001175EF  GBVM$scene_37_init$4dc90d43_032c   scene_37_init
     001175F8  GBVM$scene_37_init$0df4d74f_3ebb   scene_37_init
     00117605  GBVM$scene_37_init$6be7fccc_d77d   scene_37_init
     0011760D  GBVM$scene_37_init$a3a128db_3e25   scene_37_init
     0011760D  GBVM_END$scene_37_init$6be7fccc_   scene_37_init
     00117622  GBVM$scene_37_init$2b2d83e0_abb8   scene_37_init
     00117632  GBVM$scene_37_init$3a28c50d_9add   scene_37_init
ASxxxx Linker V03.00/V05.40 + sdld,  page 149.
Hexadecimal  [32-Bits]

Area                                    Addr        Size        Decimal Bytes (Attributes)
--------------------------------        ----        ----        ------- ----- ------------
_CODE_17                            00114000    00004000 =       16384. bytes (REL,CON)

      Value  Global                              Global Defined In Module
      -----  --------------------------------   ------------------------
     00117632  GBVM_END$scene_37_init$a3a128db_   scene_37_init
     00117647  GBVM$scene_37_init$082aceaf_a92e   scene_37_init
     00117657  GBVM$scene_37_init$711c6fb6_c1b3   scene_37_init
     00117657  GBVM_END$scene_37_init$3a28c50d_   scene_37_init
     0011766C  GBVM$scene_37_init$fec26e1f_5981   scene_37_init
     0011767C  GBVM$scene_37_init$0acdf26b_4222   scene_37_init
     0011767C  GBVM_END$scene_37_init$711c6fb6_   scene_37_init
     00117691  GBVM$scene_37_init$6492f8b7_0f63   scene_37_init
     001176A1  GBVM$scene_37_init$82554dfd_9ef0   scene_37_init
     001176A1  GBVM_END$scene_37_init$0acdf26b_   scene_37_init
     001176B6  GBVM$scene_37_init$f525e674_b7d0   scene_37_init
     001176C6  GBVM$scene_37_init$da57fe47_10cc   scene_37_init
     001176C6  GBVM_END$scene_37_init$82554dfd_   scene_37_init
     001176DB  GBVM$scene_37_init$88ea4273_7986   scene_37_init
     001176EB  GBVM$scene_37_init$595dabe0_2826   scene_37_init
     001176EB  GBVM_END$scene_37_init$da57fe47_   scene_37_init
     00117700  GBVM$scene_37_init$9114e830_38d1   scene_37_init
     00117710  GBVM$scene_37_init$f2f76da0_ef0e   scene_37_init
     00117710  GBVM_END$scene_37_init$595dabe0_   scene_37_init
     00117725  GBVM$scene_37_init$dbd40198_3666   scene_37_init
     00117735  GBVM$scene_37_init$e4a65cca_f0f6   scene_37_init
     00117735  GBVM_END$scene_37_init$f2f76da0_   scene_37_init
     0011774A  GBVM$scene_37_init$5bf5d3fd_61f7   scene_37_init
     0011775A  GBVM$scene_37_init$545237f9_e9f3   scene_37_init
     0011775A  GBVM_END$scene_37_init$e4a65cca_   scene_37_init
     0011776F  GBVM$scene_37_init$80bfaef2_fed6   scene_37_init
     0011777F  GBVM$scene_37_init$56d6f61e_6470   scene_37_init
     0011777F  GBVM_END$scene_37_init$545237f9_   scene_37_init
     00117794  GBVM$scene_37_init$aeb8d553_4fe1   scene_37_init
     001177A4  GBVM$scene_37_init$ecf0d556_b22b   scene_37_init
     001177A4  GBVM_END$scene_37_init$56d6f61e_   scene_37_init
     001177B9  GBVM$scene_37_init$9579b944_8741   scene_37_init
     001177C9  GBVM$scene_37_init$2a754473_aa22   scene_37_init
     001177C9  GBVM_END$scene_37_init$ecf0d556_   scene_37_init
     001177DE  GBVM$scene_37_init$f3c293f0_e6fb   scene_37_init
     001177EE  GBVM$scene_37_init$93c2023a_4fab   scene_37_init
     001177EE  GBVM_END$scene_37_init$2a754473_   scene_37_init
     00117803  GBVM$scene_37_init$a69d1294_c1e1   scene_37_init
     00117813  GBVM$scene_37_init$73e31779_6a53   scene_37_init
     00117813  GBVM_END$scene_37_init$93c2023a_   scene_37_init
     00117828  GBVM$scene_37_init$a83184f4_cad5   scene_37_init
     00117838  GBVM$scene_37_init$2d62a2c2_d453   scene_37_init
     00117838  GBVM_END$scene_37_init$73e31779_   scene_37_init
     0011784D  GBVM$scene_37_init$8c4f17d3_6cb2   scene_37_init
     0011785D  GBVM$scene_37_init$6f914104_8a25   scene_37_init
     0011785D  GBVM_END$scene_37_init$2d62a2c2_   scene_37_init
     00117872  GBVM$scene_37_init$087a13d5_c41e   scene_37_init
     00117882  GBVM$scene_37_init$1c065a22_056a   scene_37_init
     00117882  GBVM_END$scene_37_init$6f914104_   scene_37_init
     00117897  GBVM$scene_37_init$92393ca4_9e6c   scene_37_init
     001178A7  GBVM$scene_37_init$21d492fb_112f   scene_37_init
ASxxxx Linker V03.00/V05.40 + sdld,  page 150.
Hexadecimal  [32-Bits]

Area                                    Addr        Size        Decimal Bytes (Attributes)
--------------------------------        ----        ----        ------- ----- ------------
_CODE_17                            00114000    00004000 =       16384. bytes (REL,CON)

      Value  Global                              Global Defined In Module
      -----  --------------------------------   ------------------------
     001178A7  GBVM_END$scene_37_init$1c065a22_   scene_37_init
     001178BC  GBVM$scene_37_init$6d7cd0e8_95cb   scene_37_init
     001178CC  GBVM$scene_37_init$7370b568_e3d2   scene_37_init
     001178CC  GBVM_END$scene_37_init$21d492fb_   scene_37_init
     001178E1  GBVM$scene_37_init$99d1f601_a709   scene_37_init
     001178F1  GBVM$scene_37_init$5b2b9744_0da3   scene_37_init
     001178F1  GBVM_END$scene_37_init$7370b568_   scene_37_init
     00117906  GBVM$scene_37_init$76540840_6a5b   scene_37_init
     00117916  GBVM$scene_37_init$c6dae566_5633   scene_37_init
     00117916  GBVM_END$scene_37_init$5b2b9744_   scene_37_init
     0011792B  GBVM$scene_37_init$9d3a01df_7c98   scene_37_init
     0011793B  GBVM$scene_37_init$239c3aec_e708   scene_37_init
     0011793B  GBVM_END$scene_37_init$c6dae566_   scene_37_init
     00117950  GBVM$scene_37_init$2dd56b0e_efbd   scene_37_init
     00117960  GBVM$scene_37_init$f2a353b8_0085   scene_37_init
     00117960  GBVM_END$scene_37_init$239c3aec_   scene_37_init
     00117975  GBVM$scene_37_init$9e5b8d9d_3c82   scene_37_init
     00117985  GBVM$scene_37_init$5e26cf9e_ab68   scene_37_init
     00117985  GBVM_END$scene_37_init$f2a353b8_   scene_37_init
     0011799A  GBVM$scene_37_init$ed752982_316a   scene_37_init
     001179AA  GBVM$scene_37_init$44c3d408_66a2   scene_37_init
     001179AA  GBVM_END$scene_37_init$5e26cf9e_   scene_37_init
     001179BF  GBVM$scene_37_init$763459ad_a93a   scene_37_init
     001179CF  GBVM$scene_37_init$5350b832_8b87   scene_37_init
     001179CF  GBVM_END$scene_37_init$44c3d408_   scene_37_init
     001179E4  GBVM$scene_37_init$085ff510_8505   scene_37_init
     001179F4  GBVM$scene_37_init$24415dbd_7bf3   scene_37_init
     001179F4  GBVM_END$scene_37_init$5350b832_   scene_37_init
     00117A09  GBVM$scene_37_init$d6d44cb7_ef91   scene_37_init
     00117A19  GBVM$scene_37_init$0da0de78_57c2   scene_37_init
     00117A19  GBVM_END$scene_37_init$24415dbd_   scene_37_init
     00117A2E  GBVM$scene_37_init$3a1cbfe0_912a   scene_37_init
     00117A3E  GBVM$scene_37_init$6bbefd63_80e8   scene_37_init
     00117A3E  GBVM_END$scene_37_init$0da0de78_   scene_37_init
     00117A53  GBVM$scene_37_init$891ea839_99a6   scene_37_init
     00117A63  GBVM$scene_37_init$110fcdd3_5a7c   scene_37_init
     00117A63  GBVM_END$scene_37_init$4dc90d43_   scene_37_init
     00117A63  GBVM_END$scene_37_init$6bbefd63_   scene_37_init
     00117A6C  GBVM$scene_37_init$cce742a9_896c   scene_37_init
     00117A79  GBVM$scene_37_init$6f79a8a9_398c   scene_37_init
     00117A83  GBVM$scene_37_init$9de609e5_c41b   scene_37_init
     00117A83  GBVM_END$scene_37_init$110fcdd3_   scene_37_init
     00117A8B  GBVM$scene_37_init$a4a9fefd_12a1   scene_37_init
     00117A94  GBVM$scene_37_init$b63fc35e_11e6   scene_37_init
     00117AA0  GBVM$scene_37_init$autofade$9136   scene_37_init
     00117AA0  GBVM_END$scene_37_init$b63fc35e_   scene_37_init
     00117AAB  GBVM$scene_37_init$7617e02b_424c   scene_37_init
     00117AB7  GBVM$scene_37_init$f08d8ddd_60e2   scene_37_init
     00117ABC  GBVM$scene_37_init$1627ee4d_7bca   scene_37_init
     00117AF1  GBVM$scene_37_init$69d0c74e_33d7   scene_37_init
     00117AF1  GBVM_END$scene_37_init$7617e02b_   scene_37_init
ASxxxx Linker V03.00/V05.40 + sdld,  page 151.
Hexadecimal  [32-Bits]

Area                                    Addr        Size        Decimal Bytes (Attributes)
--------------------------------        ----        ----        ------- ----- ------------
_CODE_17                            00114000    00004000 =       16384. bytes (REL,CON)

      Value  Global                              Global Defined In Module
      -----  --------------------------------   ------------------------
     00117AF6  GBVM$scene_37_init$29371c37_0d9a   scene_37_init
     00117AF6  GBVM$scene_37_init$554d58b1_cc66   scene_37_init
     00117AF8  GBVM$scene_37_init$db911ab0_e88b   scene_37_init
     00117B00  GBVM_END$scene_37_init$db911ab0_   scene_37_init
     00117B01  _scene_4_init                      scene_4_init
     00117B04  GBVM$scene_4_init$4dfe74c7_adb8_   scene_4_init
     00117B0E  GBVM$scene_4_init$eac3f537_15c7_   scene_4_init
     00117B18  GBVM$scene_4_init$5cb09cc8_f01f_   scene_4_init
     00117B22  GBVM$scene_4_init$30a4026e_a885_   scene_4_init
     00117B2B  GBVM$scene_4_init$36d472cd_6aa6_   scene_4_init
     00117B38  GBVM$scene_4_init$563d7e26_7d60_   scene_4_init
     00117B41  GBVM$scene_4_init$7309ce4c_43d2_   scene_4_init
     00117B49  GBVM$scene_4_init$bb8f4e70_1d3d_   scene_4_init
     00117B49  GBVM_END$scene_4_init$7309ce4c_4   scene_4_init
     00117B5E  GBVM$scene_4_init$1333040b_4529_   scene_4_init
     00117B6E  GBVM$scene_4_init$2bc5a424_3718_   scene_4_init
     00117B6E  GBVM_END$scene_4_init$bb8f4e70_1   scene_4_init
     00117B83  GBVM$scene_4_init$77ac7b12_4645_   scene_4_init
     00117B93  GBVM$scene_4_init$f945e06a_29f0_   scene_4_init
     00117B93  GBVM_END$scene_4_init$2bc5a424_3   scene_4_init
     00117BA8  GBVM$scene_4_init$53405476_3fa2_   scene_4_init
     00117BB8  GBVM$scene_4_init$21975957_0eae_   scene_4_init
     00117BB8  GBVM_END$scene_4_init$f945e06a_2   scene_4_init
     00117BCD  GBVM$scene_4_init$97a8962c_2894_   scene_4_init
     00117BDD  GBVM$scene_4_init$6acb4bdd_ccf6_   scene_4_init
     00117BDD  GBVM_END$scene_4_init$21975957_0   scene_4_init
     00117BF2  GBVM$scene_4_init$e9bdbfd3_4268_   scene_4_init
     00117C02  GBVM$scene_4_init$c8fc775f_29c0_   scene_4_init
     00117C02  GBVM_END$scene_4_init$6acb4bdd_c   scene_4_init
     00117C17  GBVM$scene_4_init$8b9a8202_6112_   scene_4_init
     00117C27  GBVM$scene_4_init$deae0365_41b1_   scene_4_init
     00117C27  GBVM_END$scene_4_init$c8fc775f_2   scene_4_init
     00117C3C  GBVM$scene_4_init$90316e38_bd40_   scene_4_init
     00117C4C  GBVM$scene_4_init$1fa15b1a_8580_   scene_4_init
     00117C4C  GBVM_END$scene_4_init$deae0365_4   scene_4_init
     00117C61  GBVM$scene_4_init$40e89cdc_9276_   scene_4_init
     00117C71  GBVM$scene_4_init$1b8c355d_6c41_   scene_4_init
     00117C71  GBVM_END$scene_4_init$1fa15b1a_8   scene_4_init
     00117C86  GBVM$scene_4_init$d7098056_6240_   scene_4_init
     00117C96  GBVM$scene_4_init$458e7e7f_18f6_   scene_4_init
     00117C96  GBVM_END$scene_4_init$1b8c355d_6   scene_4_init
     00117CAB  GBVM$scene_4_init$6f829100_16d8_   scene_4_init
     00117CBB  GBVM$scene_4_init$3a1736f6_ec1d_   scene_4_init
     00117CBB  GBVM_END$scene_4_init$458e7e7f_1   scene_4_init
     00117CD0  GBVM$scene_4_init$9f3df4ac_fa6f_   scene_4_init
     00117CE0  GBVM$scene_4_init$1565b6cc_17a2_   scene_4_init
     00117CE0  GBVM_END$scene_4_init$3a1736f6_e   scene_4_init
     00117CF5  GBVM$scene_4_init$74e60f25_e916_   scene_4_init
     00117D05  GBVM$scene_4_init$384bfd1a_8c2d_   scene_4_init
     00117D05  GBVM_END$scene_4_init$1565b6cc_1   scene_4_init
     00117D1A  GBVM$scene_4_init$0d5d2d7e_6991_   scene_4_init
ASxxxx Linker V03.00/V05.40 + sdld,  page 152.
Hexadecimal  [32-Bits]

Area                                    Addr        Size        Decimal Bytes (Attributes)
--------------------------------        ----        ----        ------- ----- ------------
_CODE_17                            00114000    00004000 =       16384. bytes (REL,CON)

      Value  Global                              Global Defined In Module
      -----  --------------------------------   ------------------------
     00117D2A  GBVM$scene_4_init$555ed1b9_5317_   scene_4_init
     00117D2A  GBVM_END$scene_4_init$384bfd1a_8   scene_4_init
     00117D3F  GBVM$scene_4_init$5429c92d_b4c7_   scene_4_init
     00117D4F  GBVM$scene_4_init$fc91b573_edff_   scene_4_init
     00117D4F  GBVM_END$scene_4_init$555ed1b9_5   scene_4_init
     00117D64  GBVM$scene_4_init$737eb060_b18a_   scene_4_init
     00117D74  GBVM$scene_4_init$e1cb2155_730c_   scene_4_init
     00117D74  GBVM_END$scene_4_init$fc91b573_e   scene_4_init
     00117D89  GBVM$scene_4_init$f4170953_ccbb_   scene_4_init
     00117D99  GBVM$scene_4_init$3fa8be8c_b53c_   scene_4_init
     00117D99  GBVM_END$scene_4_init$e1cb2155_7   scene_4_init
     00117DAE  GBVM$scene_4_init$9455e46a_933a_   scene_4_init
     00117DBE  GBVM$scene_4_init$9a70f5cb_f8fc_   scene_4_init
     00117DBE  GBVM_END$scene_4_init$3fa8be8c_b   scene_4_init
     00117DD3  GBVM$scene_4_init$95d61093_c90f_   scene_4_init
     00117DE3  GBVM$scene_4_init$3f9e2f0f_645d_   scene_4_init
     00117DE3  GBVM_END$scene_4_init$9a70f5cb_f   scene_4_init
     00117DF8  GBVM$scene_4_init$b81954d7_1a4b_   scene_4_init
     00117E08  GBVM$scene_4_init$c768dd93_b27b_   scene_4_init
     00117E08  GBVM_END$scene_4_init$3f9e2f0f_6   scene_4_init
     00117E1D  GBVM$scene_4_init$4398ff70_1037_   scene_4_init
     00117E2D  GBVM$scene_4_init$230208c8_db3e_   scene_4_init
     00117E2D  GBVM_END$scene_4_init$c768dd93_b   scene_4_init
     00117E42  GBVM$scene_4_init$223e9168_0b15_   scene_4_init
     00117E52  GBVM$scene_4_init$95ccdc33_bb0e_   scene_4_init
     00117E52  GBVM_END$scene_4_init$230208c8_d   scene_4_init
     00117E67  GBVM$scene_4_init$486ddd57_50c8_   scene_4_init
     00117E77  GBVM$scene_4_init$ff739493_5db1_   scene_4_init
     00117E77  GBVM_END$scene_4_init$95ccdc33_b   scene_4_init
     00117E8C  GBVM$scene_4_init$af8506a1_8686_   scene_4_init
     00117E9C  GBVM$scene_4_init$819987b1_f81f_   scene_4_init
     00117E9C  GBVM_END$scene_4_init$ff739493_5   scene_4_init
     00117EB1  GBVM$scene_4_init$172853a5_5f9c_   scene_4_init
     00117EC1  GBVM$scene_4_init$836390b3_6a0f_   scene_4_init
     00117EC1  GBVM_END$scene_4_init$819987b1_f   scene_4_init
     00117ED6  GBVM$scene_4_init$408fd7f3_8a46_   scene_4_init
     00117EE6  GBVM$scene_4_init$2d66461a_327d_   scene_4_init
     00117EE6  GBVM_END$scene_4_init$836390b3_6   scene_4_init
     00117EFB  GBVM$scene_4_init$62f62c89_4836_   scene_4_init
     00117F0B  GBVM$scene_4_init$0b22d505_3e99_   scene_4_init
     00117F0B  GBVM_END$scene_4_init$2d66461a_3   scene_4_init
     00117F20  GBVM$scene_4_init$621275d8_e922_   scene_4_init
     00117F30  GBVM$scene_4_init$c9376829_dad7_   scene_4_init
     00117F30  GBVM_END$scene_4_init$0b22d505_3   scene_4_init
     00117F45  GBVM$scene_4_init$85592035_7a20_   scene_4_init
     00117F55  GBVM$scene_4_init$e955978d_d065_   scene_4_init
     00117F55  GBVM_END$scene_4_init$c9376829_d   scene_4_init
     00117F6A  GBVM$scene_4_init$7670bbc1_a7e0_   scene_4_init
     00117F7A  GBVM$scene_4_init$c83de35e_3e14_   scene_4_init
     00117F7A  GBVM_END$scene_4_init$e955978d_d   scene_4_init
     00117F8F  GBVM$scene_4_init$21d54591_4b3a_   scene_4_init
ASxxxx Linker V03.00/V05.40 + sdld,  page 153.
Hexadecimal  [32-Bits]

Area                                    Addr        Size        Decimal Bytes (Attributes)
--------------------------------        ----        ----        ------- ----- ------------
_CODE_17                            00114000    00004000 =       16384. bytes (REL,CON)

      Value  Global                              Global Defined In Module
      -----  --------------------------------   ------------------------
     00117F9F  GBVM$scene_4_init$0085ed97_128d_   scene_4_init
     00117F9F  GBVM$scene_4_init$18f60e16_2581_   scene_4_init
     00117F9F  GBVM_END$scene_4_init$30a4026e_a   scene_4_init
     00117F9F  GBVM_END$scene_4_init$c83de35e_3   scene_4_init
     00117FA7  GBVM$scene_4_init$dca1e2ca_3e4b_   scene_4_init
     00117FB0  GBVM$scene_4_init$009bbcf5_f8f8_   scene_4_init
     00117FBC  GBVM$scene_4_init$a882b683_3465_   scene_4_init
     00117FC1  GBVM$scene_4_init$d06e18cd_9038_   scene_4_init
     00117FC1  GBVM_END$scene_4_init$009bbcf5_f   scene_4_init
     00117FC3  GBVM$scene_4_init$9899a26b_3dde_   scene_4_init
     00117FCB  GBVM$scene_4_init$4557f6e8_56f5_   scene_4_init
     00117FCB  GBVM_END$scene_4_init$9899a26b_3   scene_4_init
     00117FDD  GBVM$scene_4_init$10a6097e_c267_   scene_4_init
     00117FE5  GBVM$scene_4_init$a1ab80b1_de60_   scene_4_init
     00117FED  GBVM$scene_4_init$autofade$b931b   scene_4_init
     00117FED  GBVM_END$scene_4_init$4557f6e8_5   scene_4_init
     00117FED  GBVM_END$scene_4_init$a1ab80b1_d   scene_4_init
     00117FF9  _trigger_81_interact               trigger_81_interact
     00117FFA  GBVM$trigger_81_interact$8f53d0b   trigger_81_interact
ASxxxx Linker V03.00/V05.40 + sdld,  page 154.
Hexadecimal  [32-Bits]

Area                                    Addr        Size        Decimal Bytes (Attributes)
--------------------------------        ----        ----        ------- ----- ------------
_CODE_3                             00034000    00003FFE =       16382. bytes (REL,CON)

      Value  Global                              Global Defined In Module
      -----  --------------------------------   ------------------------
     00034000  _actor_93_interact                 actor_93_interact
     00034013  GBVM$actor_93_interact$9ba424b7_   actor_93_interact
     0003401D  GBVM$actor_93_interact$7aa5bc1c_   actor_93_interact
     00034029  GBVM$actor_93_interact$9fe99ee4_   actor_93_interact
     0003405D  ___func_bg_bathroom_b_tileset      bg_bathroom_b_tileset
     0003405D  _bg_bathroom_b_tileset             bg_bathroom_b_tileset
     0003485F  _platform_init                     platform
     00034A86  _platform_update                   platform
     00037461  _basic_anim                        platform
     000374F4  _wall_check                        platform
     00037524  _ladder_check                      platform
     00037640  _ladder_switch                     platform
     000379CD  _dash_init_switch                  platform
     00037EB7  _drop_press                        platform
     00037F61  _assign_state_script               platform
     00037FCD  _clear_state_script                platform

ASxxxx Linker V03.00/V05.40 + sdld,  page 155.
Hexadecimal  [32-Bits]

Area                                    Addr        Size        Decimal Bytes (Attributes)
--------------------------------        ----        ----        ------- ----- ------------
_CODE_15                            000F4000    00004000 =       16384. bytes (REL,CON)

      Value  Global                              Global Defined In Module
      -----  --------------------------------   ------------------------
     000F4000  ___func_bg_bathroom_b_cgb_tilese   bg_bathroom_b_cgb_tileset
     000F4000  _bg_bathroom_b_cgb_tileset         bg_bathroom_b_cgb_tileset
     000F45E2  ___func_bg_bathroom_cgb_tileset    bg_bathroom_cgb_tileset
     000F45E2  _bg_bathroom_cgb_tileset           bg_bathroom_cgb_tileset
     000F4B84  ___func_bg_boss_office_b_cgb_til   bg_boss_office_b_cgb_tileset
     000F4B84  _bg_boss_office_b_cgb_tileset      bg_boss_office_b_cgb_tileset
     000F51E6  ___func_bg_boss_office_c_cgb_til   bg_boss_office_c_cgb_tileset
     000F51E6  _bg_boss_office_c_cgb_tileset      bg_boss_office_c_cgb_tileset
     000F5858  ___func_bg_boss_office_cgb_tiles   bg_boss_office_cgb_tileset
     000F5858  _bg_boss_office_cgb_tileset        bg_boss_office_cgb_tileset
     000F5F1A  ___func_bg_boss_warning_tileset    bg_boss_warning_tileset
     000F5F1A  _bg_boss_warning_tileset           bg_boss_warning_tileset
     000F65AC  ___func_bg_final_escape_2_cgb_ti   bg_final_escape_2_cgb_tilese
     000F65AC  _bg_final_escape_2_cgb_tileset     bg_final_escape_2_cgb_tilese
     000F6BFE  _scene_19_init                     scene_19_init
     000F6C01  GBVM$scene_19_init$523b4ad1_8d02   scene_19_init
     000F6C0B  GBVM$scene_19_init$a1ac2c24_624a   scene_19_init
     000F6C15  GBVM$scene_19_init$4199c30f_9a02   scene_19_init
     000F6C1F  GBVM$scene_19_init$autofade$f905   scene_19_init
     000F6C2B  ___func_sound_scream2_wav          sound_scream2_wav
     000F6C2B  _sound_scream2_wav                 sound_scream2_wav
     000F72C9  ___func_sprite_player_larry        sprite_player_larry
     000F72C9  _sprite_player_larry_metasprite_   sprite_player_larry
     000F72E1  _sprite_player_larry_metasprite_   sprite_player_larry
     000F72F9  _sprite_player_larry_metasprite_   sprite_player_larry
     000F7311  _sprite_player_larry_metasprite_   sprite_player_larry
     000F7329  _sprite_player_larry_metasprite_   sprite_player_larry
     000F7341  _sprite_player_larry_metasprite_   sprite_player_larry
     000F7359  _sprite_player_larry_metasprite_   sprite_player_larry
     000F7371  _sprite_player_larry_metasprite_   sprite_player_larry
     000F7389  _sprite_player_larry_metasprite_   sprite_player_larry
     000F738D  _sprite_player_larry_metasprite_   sprite_player_larry
     000F73A5  _sprite_player_larry_metasprite_   sprite_player_larry
     000F73BD  _sprite_player_larry_metasprite_   sprite_player_larry
     000F73D5  _sprite_player_larry_metasprite_   sprite_player_larry
     000F73ED  _sprite_player_larry_metasprite_   sprite_player_larry
     000F7405  _sprite_player_larry_metasprite_   sprite_player_larry
     000F741D  _sprite_player_larry_metasprite_   sprite_player_larry
     000F7435  _sprite_player_larry_metasprite_   sprite_player_larry
     000F744D  _sprite_player_larry_metasprite_   sprite_player_larry
     000F7465  _sprite_player_larry_metasprite_   sprite_player_larry
     000F747D  _sprite_player_larry_metasprite_   sprite_player_larry
     000F7495  _sprite_player_larry_metasprite_   sprite_player_larry
     000F74AD  _sprite_player_larry_metasprite_   sprite_player_larry
     000F74C5  _sprite_player_larry_metasprite_   sprite_player_larry
     000F74DD  _sprite_player_larry_metasprite_   sprite_player_larry
     000F74F5  _sprite_player_larry_metasprite_   sprite_player_larry
     000F750D  _sprite_player_larry_metasprite_   sprite_player_larry
     000F7525  _sprite_player_larry_metasprite_   sprite_player_larry
     000F753D  _sprite_player_larry_metasprite_   sprite_player_larry
ASxxxx Linker V03.00/V05.40 + sdld,  page 156.
Hexadecimal  [32-Bits]

Area                                    Addr        Size        Decimal Bytes (Attributes)
--------------------------------        ----        ----        ------- ----- ------------
_CODE_15                            000F4000    00004000 =       16384. bytes (REL,CON)

      Value  Global                              Global Defined In Module
      -----  --------------------------------   ------------------------
     000F7555  _sprite_player_larry_metasprite_   sprite_player_larry
     000F756D  _sprite_player_larry_metasprite_   sprite_player_larry
     000F7589  _sprite_player_larry_metasprite_   sprite_player_larry
     000F75A5  _sprite_player_larry_metasprite_   sprite_player_larry
     000F75C1  _sprite_player_larry_metasprite_   sprite_player_larry
     000F75DD  _sprite_player_larry_metasprite_   sprite_player_larry
     000F75F9  _sprite_player_larry_metasprite_   sprite_player_larry
     000F7615  _sprite_player_larry_metasprite_   sprite_player_larry
     000F7631  _sprite_player_larry_metasprite_   sprite_player_larry
     000F764D  _sprite_player_larry_metasprite_   sprite_player_larry
     000F7669  _sprite_player_larry_metasprite_   sprite_player_larry
     000F7685  _sprite_player_larry_metasprite_   sprite_player_larry
     000F769D  _sprite_player_larry_metasprite_   sprite_player_larry
     000F76B5  _sprite_player_larry_metasprite_   sprite_player_larry
     000F76D5  _sprite_player_larry_metasprite_   sprite_player_larry
     000F76F5  _sprite_player_larry_metasprite_   sprite_player_larry
     000F7715  _sprite_player_larry_metasprite_   sprite_player_larry
     000F7735  _sprite_player_larry_metasprite_   sprite_player_larry
     000F7755  _sprite_player_larry_metasprite_   sprite_player_larry
     000F7775  _sprite_player_larry_metasprite_   sprite_player_larry
     000F7795  _sprite_player_larry_metasprite_   sprite_player_larry
     000F77B5  _sprite_player_larry_metasprite_   sprite_player_larry
     000F77D5  _sprite_player_larry_metasprite_   sprite_player_larry
     000F77F1  _sprite_player_larry_metasprite_   sprite_player_larry
     000F7811  _sprite_player_larry_metasprite_   sprite_player_larry
     000F782D  _sprite_player_larry_metasprites   sprite_player_larry
     000F7897  _sprite_player_larry_animations    sprite_player_larry
     000F7917  _sprite_player_larry_animations_   sprite_player_larry
     000F7927  _sprite_player_larry               sprite_player_larry
     000F793A  _topdown_init                      topdown
     000F79D6  _topdown_update                    topdown
ASxxxx Linker V03.00/V05.40 + sdld,  page 157.
Hexadecimal  [32-Bits]

Area                                    Addr        Size        Decimal Bytes (Attributes)
--------------------------------        ----        ----        ------- ----- ------------
_CODE_5                             00054000    00004000 =       16384. bytes (REL,CON)

      Value  Global                              Global Defined In Module
      -----  --------------------------------   ------------------------
     00054000  ___func_bg_bathroom_b              bg_bathroom_b
     00054000  _bg_bathroom_b                     bg_bathroom_b
     0005400E  ___func_bg_tunnel_tileset          bg_tunnel_tileset
     0005400E  _bg_tunnel_tileset                 bg_tunnel_tileset
     000564E7  _song_bs_cyb_city_night_Data       song_bs_cyb_city_night_Data
     00057FEB  _song_bs_cyb_corporate_espio_Dat   song_bs_cyb_corporate_espio_
ASxxxx Linker V03.00/V05.40 + sdld,  page 158.
Hexadecimal  [32-Bits]

Area                                    Addr        Size        Decimal Bytes (Attributes)
--------------------------------        ----        ----        ------- ----- ------------
_CODE_18                            00124000    00004000 =       16384. bytes (REL,CON)

      Value  Global                              Global Defined In Module
      -----  --------------------------------   ------------------------
     00124000  ___func_bg_boss_hallway_tileset    bg_boss_hallway_tileset
     00124000  _bg_boss_hallway_tileset           bg_boss_hallway_tileset
     001244F2  ___func_bg_breakroom_b_cgb_tiles   bg_breakroom_b_cgb_tileset
     001244F2  _bg_breakroom_b_cgb_tileset        bg_breakroom_b_cgb_tileset
     00124974  ___func_bg_breakroom_cgb_tileset   bg_breakroom_cgb_tileset
     00124974  _bg_breakroom_cgb_tileset          bg_breakroom_cgb_tileset
     00124DE6  ___func_bg_game_over_stress_tile   bg_game_over_stress_tileset
     00124DE6  _bg_game_over_stress_tileset       bg_game_over_stress_tileset
     001252C8  ___func_bg_hallway_b_tilemap_att   bg_hallway_b_tilemap_attr
     001252C8  _bg_hallway_b_tilemap_attr         bg_hallway_b_tilemap_attr
     001254E4  ___func_bg_hallway_b_tileset       bg_hallway_b_tileset
     001254E4  _bg_hallway_b_tileset              bg_hallway_b_tileset
     001259D6  ___func_bg_vending_machine_tiles   bg_vending_machine_tileset
     001259D6  _bg_vending_machine_tileset        bg_vending_machine_tileset
     00125E78  _scene_14_init                     scene_14_init
     00125E7B  GBVM$scene_14_init$627edd63_d5a5   scene_14_init
     00125E8A  GBVM$scene_14_init$1706d2c0_9ee8   scene_14_init
     00125E93  GBVM$scene_14_init$357353c2_e695   scene_14_init
     00125EA0  GBVM$scene_14_init$02f2fccc_ab4e   scene_14_init
     00125EA9  GBVM$scene_14_init$f546fae1_b724   scene_14_init
     00125EB1  GBVM$scene_14_init$bb4fdcbf_5577   scene_14_init
     00125EB1  GBVM_END$scene_14_init$f546fae1_   scene_14_init
     00125EC6  GBVM$scene_14_init$94dd580a_82b0   scene_14_init
     00125ED6  GBVM$scene_14_init$d4461ac3_c143   scene_14_init
     00125ED6  GBVM_END$scene_14_init$bb4fdcbf_   scene_14_init
     00125EEB  GBVM$scene_14_init$b77de6b5_8765   scene_14_init
     00125EFB  GBVM$scene_14_init$4e964a2f_196a   scene_14_init
     00125EFB  GBVM_END$scene_14_init$d4461ac3_   scene_14_init
     00125F10  GBVM$scene_14_init$66ca3702_98ad   scene_14_init
     00125F20  GBVM$scene_14_init$b580fc76_5d2d   scene_14_init
     00125F20  GBVM_END$scene_14_init$4e964a2f_   scene_14_init
     00125F35  GBVM$scene_14_init$0af849fa_f886   scene_14_init
     00125F45  GBVM$scene_14_init$31705873_6b08   scene_14_init
     00125F45  GBVM_END$scene_14_init$b580fc76_   scene_14_init
     00125F5A  GBVM$scene_14_init$3de761db_bebf   scene_14_init
     00125F6A  GBVM$scene_14_init$de2203bc_5485   scene_14_init
     00125F6A  GBVM_END$scene_14_init$31705873_   scene_14_init
     00125F7F  GBVM$scene_14_init$74e6029a_51cd   scene_14_init
     00125F8F  GBVM$scene_14_init$63a43ef6_421a   scene_14_init
     00125F8F  GBVM_END$scene_14_init$de2203bc_   scene_14_init
     00125FA4  GBVM$scene_14_init$3c869cce_8260   scene_14_init
     00125FB4  GBVM$scene_14_init$bc0f9d28_c1fe   scene_14_init
     00125FB4  GBVM_END$scene_14_init$63a43ef6_   scene_14_init
     00125FC9  GBVM$scene_14_init$9d130a95_a6ee   scene_14_init
     00125FD9  GBVM$scene_14_init$b23e1e05_e7c4   scene_14_init
     00125FD9  GBVM_END$scene_14_init$bc0f9d28_   scene_14_init
     00125FEE  GBVM$scene_14_init$7a8b7f29_7335   scene_14_init
     00125FFE  GBVM$scene_14_init$4723505f_96b1   scene_14_init
     00125FFE  GBVM_END$scene_14_init$b23e1e05_   scene_14_init
     00126013  GBVM$scene_14_init$f8ba0f22_bc91   scene_14_init
ASxxxx Linker V03.00/V05.40 + sdld,  page 159.
Hexadecimal  [32-Bits]

Area                                    Addr        Size        Decimal Bytes (Attributes)
--------------------------------        ----        ----        ------- ----- ------------
_CODE_18                            00124000    00004000 =       16384. bytes (REL,CON)

      Value  Global                              Global Defined In Module
      -----  --------------------------------   ------------------------
     00126023  GBVM$scene_14_init$72ac0f84_298a   scene_14_init
     00126023  GBVM_END$scene_14_init$4723505f_   scene_14_init
     00126038  GBVM$scene_14_init$a0383179_9eaa   scene_14_init
     00126048  GBVM$scene_14_init$b7450b9b_865a   scene_14_init
     00126048  GBVM_END$scene_14_init$72ac0f84_   scene_14_init
     0012605D  GBVM$scene_14_init$3256954d_c251   scene_14_init
     0012606D  GBVM$scene_14_init$4de8f516_12bf   scene_14_init
     0012606D  GBVM_END$scene_14_init$b7450b9b_   scene_14_init
     00126082  GBVM$scene_14_init$bcf60d9c_e430   scene_14_init
     00126092  GBVM$scene_14_init$ad12f9dd_5c58   scene_14_init
     00126092  GBVM_END$scene_14_init$4de8f516_   scene_14_init
     001260A7  GBVM$scene_14_init$a3524e28_14e5   scene_14_init
     001260B7  GBVM$scene_14_init$4f09f03c_0150   scene_14_init
     001260B7  GBVM_END$scene_14_init$ad12f9dd_   scene_14_init
     001260CC  GBVM$scene_14_init$2b9175d3_5ecb   scene_14_init
     001260DC  GBVM$scene_14_init$de128400_8d04   scene_14_init
     001260DC  GBVM_END$scene_14_init$4f09f03c_   scene_14_init
     001260F1  GBVM$scene_14_init$a4e4fdb5_82fa   scene_14_init
     00126101  GBVM$scene_14_init$41c59f49_d68d   scene_14_init
     00126101  GBVM_END$scene_14_init$de128400_   scene_14_init
     00126116  GBVM$scene_14_init$95e71eba_1123   scene_14_init
     00126126  GBVM$scene_14_init$5f28f959_9898   scene_14_init
     00126126  GBVM_END$scene_14_init$41c59f49_   scene_14_init
     0012613B  GBVM$scene_14_init$afbd476e_daf6   scene_14_init
     0012614B  GBVM$scene_14_init$33eba6b6_41c6   scene_14_init
     0012614B  GBVM_END$scene_14_init$5f28f959_   scene_14_init
     00126160  GBVM$scene_14_init$5be6109e_8ddc   scene_14_init
     00126170  GBVM$scene_14_init$9458bc99_0425   scene_14_init
     00126170  GBVM_END$scene_14_init$33eba6b6_   scene_14_init
     00126185  GBVM$scene_14_init$1313719e_cac5   scene_14_init
     00126195  GBVM$scene_14_init$97d8f504_5493   scene_14_init
     00126195  GBVM_END$scene_14_init$9458bc99_   scene_14_init
     001261AA  GBVM$scene_14_init$2a244d34_b6fa   scene_14_init
     001261BA  GBVM$scene_14_init$b75e205a_8f1d   scene_14_init
     001261BA  GBVM_END$scene_14_init$97d8f504_   scene_14_init
     001261CF  GBVM$scene_14_init$52bb5a1b_e5a0   scene_14_init
     001261DF  GBVM$scene_14_init$49aedbe7_b2bf   scene_14_init
     001261DF  GBVM_END$scene_14_init$b75e205a_   scene_14_init
     001261F4  GBVM$scene_14_init$f1cb648f_3315   scene_14_init
     00126204  GBVM$scene_14_init$47e2bd37_c3d4   scene_14_init
     00126204  GBVM_END$scene_14_init$49aedbe7_   scene_14_init
     00126219  GBVM$scene_14_init$18b28e5e_60a7   scene_14_init
     00126229  GBVM$scene_14_init$3c6bac2f_38e0   scene_14_init
     00126229  GBVM_END$scene_14_init$47e2bd37_   scene_14_init
     0012623E  GBVM$scene_14_init$488e9990_abc0   scene_14_init
     0012624E  GBVM$scene_14_init$91628084_2704   scene_14_init
     0012624E  GBVM_END$scene_14_init$3c6bac2f_   scene_14_init
     00126263  GBVM$scene_14_init$2a81953e_4d1e   scene_14_init
     00126273  GBVM$scene_14_init$9347dd19_78be   scene_14_init
     00126273  GBVM_END$scene_14_init$91628084_   scene_14_init
     00126288  GBVM$scene_14_init$a1a70ca8_1e50   scene_14_init
ASxxxx Linker V03.00/V05.40 + sdld,  page 160.
Hexadecimal  [32-Bits]

Area                                    Addr        Size        Decimal Bytes (Attributes)
--------------------------------        ----        ----        ------- ----- ------------
_CODE_18                            00124000    00004000 =       16384. bytes (REL,CON)

      Value  Global                              Global Defined In Module
      -----  --------------------------------   ------------------------
     00126298  GBVM$scene_14_init$41b6f160_c980   scene_14_init
     00126298  GBVM_END$scene_14_init$9347dd19_   scene_14_init
     001262AD  GBVM$scene_14_init$7d8d4db7_fd33   scene_14_init
     001262BD  GBVM$scene_14_init$70ccde26_600e   scene_14_init
     001262BD  GBVM_END$scene_14_init$41b6f160_   scene_14_init
     001262D2  GBVM$scene_14_init$ce7b40ee_1bab   scene_14_init
     001262E2  GBVM$scene_14_init$a4e00d04_a07b   scene_14_init
     001262E2  GBVM_END$scene_14_init$70ccde26_   scene_14_init
     001262F7  GBVM$scene_14_init$92e9701c_301f   scene_14_init
     00126307  GBVM$scene_14_init$86bb65f3_e8e2   scene_14_init
     00126307  GBVM_END$scene_14_init$1706d2c0_   scene_14_init
     00126307  GBVM_END$scene_14_init$a4e00d04_   scene_14_init
     00126313  GBVM$scene_14_init$95666744_4f66   scene_14_init
     0012631D  GBVM$scene_14_init$5eb70ed9_7fe7   scene_14_init
     0012631D  GBVM$scene_14_init$b7614c3c_2c48   scene_14_init
     0012631D  GBVM_END$scene_14_init$86bb65f3_   scene_14_init
     00126326  GBVM$scene_14_init$2844ef07_371a   scene_14_init
     00126328  GBVM$scene_14_init$dbd79bf5_96c2   scene_14_init
     00126330  GBVM$scene_14_init$d051b8ef_842f   scene_14_init
     00126330  GBVM_END$scene_14_init$dbd79bf5_   scene_14_init
     00126342  GBVM$scene_14_init$cb8fd2f6_6e32   scene_14_init
     0012634A  GBVM$scene_14_init$36d59ef2_2bdd   scene_14_init
     00126352  GBVM$scene_14_init$autofade$2d39   scene_14_init
     00126352  GBVM_END$scene_14_init$36d59ef2_   scene_14_init
     00126352  GBVM_END$scene_14_init$d051b8ef_   scene_14_init
     0012635E  _scene_23_init                     scene_23_init
     00126361  GBVM$scene_23_init$948fe048_c51e   scene_23_init
     0012636B  GBVM$scene_23_init$d0e9d898_df59   scene_23_init
     00126375  GBVM$scene_23_init$6ba6737a_a636   scene_23_init
     0012637F  GBVM$scene_23_init$f176c123_9f51   scene_23_init
     00126388  GBVM$scene_23_init$ac9fed83_bf1c   scene_23_init
     00126395  GBVM$scene_23_init$8e2257b9_3316   scene_23_init
     0012639E  GBVM$scene_23_init$68fc298b_2b2e   scene_23_init
     001263A6  GBVM$scene_23_init$9e82ee80_c6f3   scene_23_init
     001263A6  GBVM_END$scene_23_init$68fc298b_   scene_23_init
     001263BB  GBVM$scene_23_init$51a770b8_8af7   scene_23_init
     001263CB  GBVM$scene_23_init$242ca8c4_db26   scene_23_init
     001263CB  GBVM_END$scene_23_init$9e82ee80_   scene_23_init
     001263E0  GBVM$scene_23_init$a4e827c2_1046   scene_23_init
     001263F0  GBVM$scene_23_init$d0a92ba0_f041   scene_23_init
     001263F0  GBVM_END$scene_23_init$242ca8c4_   scene_23_init
     00126405  GBVM$scene_23_init$0d4db39a_6dce   scene_23_init
     00126415  GBVM$scene_23_init$754b8492_2765   scene_23_init
     00126415  GBVM_END$scene_23_init$d0a92ba0_   scene_23_init
     0012642A  GBVM$scene_23_init$4cba43da_1bcc   scene_23_init
     0012643A  GBVM$scene_23_init$27a57461_0280   scene_23_init
     0012643A  GBVM_END$scene_23_init$754b8492_   scene_23_init
     0012644F  GBVM$scene_23_init$bd1729dc_1361   scene_23_init
     0012645F  GBVM$scene_23_init$844ad115_35ff   scene_23_init
     0012645F  GBVM_END$scene_23_init$27a57461_   scene_23_init
     00126474  GBVM$scene_23_init$b692f9f9_69f4   scene_23_init
ASxxxx Linker V03.00/V05.40 + sdld,  page 161.
Hexadecimal  [32-Bits]

Area                                    Addr        Size        Decimal Bytes (Attributes)
--------------------------------        ----        ----        ------- ----- ------------
_CODE_18                            00124000    00004000 =       16384. bytes (REL,CON)

      Value  Global                              Global Defined In Module
      -----  --------------------------------   ------------------------
     00126484  GBVM$scene_23_init$76c58150_6a92   scene_23_init
     00126484  GBVM_END$scene_23_init$844ad115_   scene_23_init
     00126499  GBVM$scene_23_init$b7dcebc6_a6b8   scene_23_init
     001264A9  GBVM$scene_23_init$508d9cfd_9233   scene_23_init
     001264A9  GBVM_END$scene_23_init$76c58150_   scene_23_init
     001264BE  GBVM$scene_23_init$3cc1bca7_3064   scene_23_init
     001264CE  GBVM$scene_23_init$2be5987c_bd04   scene_23_init
     001264CE  GBVM_END$scene_23_init$508d9cfd_   scene_23_init
     001264E3  GBVM$scene_23_init$c716035c_133a   scene_23_init
     001264F3  GBVM$scene_23_init$e5a46c02_e9a8   scene_23_init
     001264F3  GBVM_END$scene_23_init$2be5987c_   scene_23_init
     00126508  GBVM$scene_23_init$704d2b18_5d46   scene_23_init
     00126518  GBVM$scene_23_init$5d66fea8_3bcd   scene_23_init
     00126518  GBVM_END$scene_23_init$e5a46c02_   scene_23_init
     0012652D  GBVM$scene_23_init$70195fd8_032c   scene_23_init
     0012653D  GBVM$scene_23_init$59546b1d_e893   scene_23_init
     0012653D  GBVM_END$scene_23_init$5d66fea8_   scene_23_init
     00126552  GBVM$scene_23_init$158b8f9c_7a53   scene_23_init
     00126562  GBVM$scene_23_init$029e6dcb_fe5b   scene_23_init
     00126562  GBVM_END$scene_23_init$59546b1d_   scene_23_init
     00126577  GBVM$scene_23_init$0ffa1389_2316   scene_23_init
     00126587  GBVM$scene_23_init$8c5bb602_eb95   scene_23_init
     00126587  GBVM_END$scene_23_init$029e6dcb_   scene_23_init
     0012659C  GBVM$scene_23_init$61c0dbb0_f30c   scene_23_init
     001265AC  GBVM$scene_23_init$459df215_1703   scene_23_init
     001265AC  GBVM_END$scene_23_init$8c5bb602_   scene_23_init
     001265C1  GBVM$scene_23_init$2eee5911_e936   scene_23_init
     001265D1  GBVM$scene_23_init$9bdd97bf_1875   scene_23_init
     001265D1  GBVM_END$scene_23_init$459df215_   scene_23_init
     001265E6  GBVM$scene_23_init$b2c2b132_9428   scene_23_init
     001265F6  GBVM$scene_23_init$18b21c6c_7ca9   scene_23_init
     001265F6  GBVM_END$scene_23_init$9bdd97bf_   scene_23_init
     0012660B  GBVM$scene_23_init$7796813a_345f   scene_23_init
     0012661B  GBVM$scene_23_init$7e46c552_c7b4   scene_23_init
     0012661B  GBVM_END$scene_23_init$18b21c6c_   scene_23_init
     00126630  GBVM$scene_23_init$c53cb0f9_c230   scene_23_init
     00126640  GBVM$scene_23_init$618baf0b_9d55   scene_23_init
     00126640  GBVM_END$scene_23_init$7e46c552_   scene_23_init
     00126655  GBVM$scene_23_init$e5945b43_40f5   scene_23_init
     00126665  GBVM$scene_23_init$d5f9c380_d80a   scene_23_init
     00126665  GBVM_END$scene_23_init$618baf0b_   scene_23_init
     0012667A  GBVM$scene_23_init$2b0ca8da_fab8   scene_23_init
     0012668A  GBVM$scene_23_init$449fcc98_b05b   scene_23_init
     0012668A  GBVM_END$scene_23_init$d5f9c380_   scene_23_init
     0012669F  GBVM$scene_23_init$7cee6051_0361   scene_23_init
     001266AF  GBVM$scene_23_init$8faf733e_1977   scene_23_init
     001266AF  GBVM_END$scene_23_init$449fcc98_   scene_23_init
     001266C4  GBVM$scene_23_init$ee5c0cd7_8492   scene_23_init
     001266D4  GBVM$scene_23_init$36e931bd_0ce8   scene_23_init
     001266D4  GBVM_END$scene_23_init$8faf733e_   scene_23_init
     001266E9  GBVM$scene_23_init$7538f6c4_c0d6   scene_23_init
ASxxxx Linker V03.00/V05.40 + sdld,  page 162.
Hexadecimal  [32-Bits]

Area                                    Addr        Size        Decimal Bytes (Attributes)
--------------------------------        ----        ----        ------- ----- ------------
_CODE_18                            00124000    00004000 =       16384. bytes (REL,CON)

      Value  Global                              Global Defined In Module
      -----  --------------------------------   ------------------------
     001266F9  GBVM$scene_23_init$b51eb0c6_d317   scene_23_init
     001266F9  GBVM_END$scene_23_init$36e931bd_   scene_23_init
     0012670E  GBVM$scene_23_init$899b1e23_63b4   scene_23_init
     0012671E  GBVM$scene_23_init$00964292_3da4   scene_23_init
     0012671E  GBVM_END$scene_23_init$b51eb0c6_   scene_23_init
     00126733  GBVM$scene_23_init$c5f86b8c_7d07   scene_23_init
     00126743  GBVM$scene_23_init$10242f7c_275c   scene_23_init
     00126743  GBVM_END$scene_23_init$00964292_   scene_23_init
     00126758  GBVM$scene_23_init$31037d95_71cb   scene_23_init
     00126768  GBVM$scene_23_init$9cea29ce_2623   scene_23_init
     00126768  GBVM_END$scene_23_init$10242f7c_   scene_23_init
     0012677D  GBVM$scene_23_init$8c638dfc_c33a   scene_23_init
     0012678D  GBVM$scene_23_init$33398c8b_2945   scene_23_init
     0012678D  GBVM_END$scene_23_init$9cea29ce_   scene_23_init
     001267A2  GBVM$scene_23_init$d8154bdc_a53f   scene_23_init
     001267B2  GBVM$scene_23_init$60b6de9e_3144   scene_23_init
     001267B2  GBVM_END$scene_23_init$33398c8b_   scene_23_init
     001267C7  GBVM$scene_23_init$0e691ee7_ee69   scene_23_init
     001267D7  GBVM$scene_23_init$a98f8036_a19f   scene_23_init
     001267D7  GBVM_END$scene_23_init$60b6de9e_   scene_23_init
     001267EC  GBVM$scene_23_init$24ad7bbc_1021   scene_23_init
     001267FC  GBVM$scene_23_init$b7ebe7f6_29f8   scene_23_init
     001267FC  GBVM$scene_23_init$d6c61f18_ba92   scene_23_init
     001267FC  GBVM_END$scene_23_init$a98f8036_   scene_23_init
     001267FC  GBVM_END$scene_23_init$f176c123_   scene_23_init
     00126805  GBVM$scene_23_init$de9f8848_bf23   scene_23_init
     00126807  GBVM$scene_23_init$b3bc39d6_923f   scene_23_init
     0012680F  GBVM$scene_23_init$d250dd72_1615   scene_23_init
     0012680F  GBVM_END$scene_23_init$b3bc39d6_   scene_23_init
     00126821  GBVM$scene_23_init$7d91260f_e73d   scene_23_init
     00126829  GBVM$scene_23_init$c51e7c8a_84a3   scene_23_init
     00126831  GBVM$scene_23_init$autofade$2dd1   scene_23_init
     00126831  GBVM_END$scene_23_init$c51e7c8a_   scene_23_init
     00126831  GBVM_END$scene_23_init$d250dd72_   scene_23_init
     0012683D  _scene_24_init                     scene_24_init
     00126840  GBVM$scene_24_init$970d3fd6_218c   scene_24_init
     0012684A  GBVM$scene_24_init$daaea672_cb76   scene_24_init
     00126854  GBVM$scene_24_init$492d3f38_0d7d   scene_24_init
     0012685D  GBVM$scene_24_init$3b49d1d8_fa6f   scene_24_init
     0012686A  GBVM$scene_24_init$f64341b2_73cb   scene_24_init
     00126873  GBVM$scene_24_init$7f45d980_6c87   scene_24_init
     0012687B  GBVM$scene_24_init$b32372a4_ef51   scene_24_init
     0012687B  GBVM_END$scene_24_init$7f45d980_   scene_24_init
     00126890  GBVM$scene_24_init$91e525b1_1460   scene_24_init
     001268A0  GBVM$scene_24_init$aa0bab4e_4feb   scene_24_init
     001268A0  GBVM_END$scene_24_init$b32372a4_   scene_24_init
     001268B5  GBVM$scene_24_init$7bc56c9f_473a   scene_24_init
     001268C5  GBVM$scene_24_init$3d9d871c_0615   scene_24_init
     001268C5  GBVM_END$scene_24_init$aa0bab4e_   scene_24_init
     001268DA  GBVM$scene_24_init$4d90fe29_2766   scene_24_init
     001268EA  GBVM$scene_24_init$8fd9d6e7_4fa8   scene_24_init
ASxxxx Linker V03.00/V05.40 + sdld,  page 163.
Hexadecimal  [32-Bits]

Area                                    Addr        Size        Decimal Bytes (Attributes)
--------------------------------        ----        ----        ------- ----- ------------
_CODE_18                            00124000    00004000 =       16384. bytes (REL,CON)

      Value  Global                              Global Defined In Module
      -----  --------------------------------   ------------------------
     001268EA  GBVM_END$scene_24_init$3d9d871c_   scene_24_init
     001268FF  GBVM$scene_24_init$0a5a22fb_0896   scene_24_init
     0012690F  GBVM$scene_24_init$9bc3ec97_431b   scene_24_init
     0012690F  GBVM_END$scene_24_init$8fd9d6e7_   scene_24_init
     00126924  GBVM$scene_24_init$805aedae_1d87   scene_24_init
     00126934  GBVM$scene_24_init$a4040da6_a61f   scene_24_init
     00126934  GBVM_END$scene_24_init$9bc3ec97_   scene_24_init
     00126949  GBVM$scene_24_init$b7119a96_98e4   scene_24_init
     00126959  GBVM$scene_24_init$d6810700_8a86   scene_24_init
     00126959  GBVM_END$scene_24_init$a4040da6_   scene_24_init
     0012696E  GBVM$scene_24_init$93a328c5_2ce4   scene_24_init
     0012697E  GBVM$scene_24_init$78b18326_6403   scene_24_init
     0012697E  GBVM_END$scene_24_init$d6810700_   scene_24_init
     00126993  GBVM$scene_24_init$cb04c299_a8cb   scene_24_init
     001269A3  GBVM$scene_24_init$ad9cb557_a67d   scene_24_init
     001269A3  GBVM_END$scene_24_init$78b18326_   scene_24_init
     001269B8  GBVM$scene_24_init$ccc3cc66_449d   scene_24_init
     001269C8  GBVM$scene_24_init$247fc7c8_c25a   scene_24_init
     001269C8  GBVM_END$scene_24_init$ad9cb557_   scene_24_init
     001269DD  GBVM$scene_24_init$c20d39bb_e026   scene_24_init
     001269ED  GBVM$scene_24_init$a7896d20_87ff   scene_24_init
     001269ED  GBVM_END$scene_24_init$247fc7c8_   scene_24_init
     00126A02  GBVM$scene_24_init$c1f08e5f_6f55   scene_24_init
     00126A12  GBVM$scene_24_init$919ae447_440a   scene_24_init
     00126A12  GBVM_END$scene_24_init$a7896d20_   scene_24_init
     00126A27  GBVM$scene_24_init$f9e122b6_f37b   scene_24_init
     00126A37  GBVM$scene_24_init$6ed0e29d_a25a   scene_24_init
     00126A37  GBVM_END$scene_24_init$919ae447_   scene_24_init
     00126A4C  GBVM$scene_24_init$d3ca4be0_cf9a   scene_24_init
     00126A5C  GBVM$scene_24_init$e72431e2_3921   scene_24_init
     00126A5C  GBVM_END$scene_24_init$6ed0e29d_   scene_24_init
     00126A71  GBVM$scene_24_init$12a33719_a685   scene_24_init
     00126A81  GBVM$scene_24_init$9aa78b91_16f7   scene_24_init
     00126A81  GBVM_END$scene_24_init$e72431e2_   scene_24_init
     00126A96  GBVM$scene_24_init$57aa3e65_7da5   scene_24_init
     00126AA6  GBVM$scene_24_init$76f6172b_71ef   scene_24_init
     00126AA6  GBVM_END$scene_24_init$9aa78b91_   scene_24_init
     00126ABB  GBVM$scene_24_init$235b9539_dcfe   scene_24_init
     00126ACB  GBVM$scene_24_init$49934717_ceaf   scene_24_init
     00126ACB  GBVM_END$scene_24_init$76f6172b_   scene_24_init
     00126AE0  GBVM$scene_24_init$6ce0803c_4540   scene_24_init
     00126AF0  GBVM$scene_24_init$0fca377e_a2f1   scene_24_init
     00126AF0  GBVM_END$scene_24_init$49934717_   scene_24_init
     00126B05  GBVM$scene_24_init$756c0d31_72af   scene_24_init
     00126B15  GBVM$scene_24_init$ba963225_6b00   scene_24_init
     00126B15  GBVM_END$scene_24_init$0fca377e_   scene_24_init
     00126B2A  GBVM$scene_24_init$e1e5580c_2de6   scene_24_init
     00126B3A  GBVM$scene_24_init$f447b5ac_a11f   scene_24_init
     00126B3A  GBVM_END$scene_24_init$ba963225_   scene_24_init
     00126B4F  GBVM$scene_24_init$eed86034_428d   scene_24_init
     00126B5F  GBVM$scene_24_init$cbb825a4_b100   scene_24_init
ASxxxx Linker V03.00/V05.40 + sdld,  page 164.
Hexadecimal  [32-Bits]

Area                                    Addr        Size        Decimal Bytes (Attributes)
--------------------------------        ----        ----        ------- ----- ------------
_CODE_18                            00124000    00004000 =       16384. bytes (REL,CON)

      Value  Global                              Global Defined In Module
      -----  --------------------------------   ------------------------
     00126B5F  GBVM_END$scene_24_init$f447b5ac_   scene_24_init
     00126B74  GBVM$scene_24_init$c4e54de7_ab67   scene_24_init
     00126B84  GBVM$scene_24_init$e93dd6b5_8952   scene_24_init
     00126B84  GBVM_END$scene_24_init$cbb825a4_   scene_24_init
     00126B99  GBVM$scene_24_init$0f1fdf11_b17f   scene_24_init
     00126BA9  GBVM$scene_24_init$8e780c43_d756   scene_24_init
     00126BA9  GBVM_END$scene_24_init$e93dd6b5_   scene_24_init
     00126BBE  GBVM$scene_24_init$d24ed12b_e907   scene_24_init
     00126BCE  GBVM$scene_24_init$6108e5d7_d65a   scene_24_init
     00126BCE  GBVM_END$scene_24_init$8e780c43_   scene_24_init
     00126BE3  GBVM$scene_24_init$0895c7d3_5fac   scene_24_init
     00126BF3  GBVM$scene_24_init$794975b7_036a   scene_24_init
     00126BF3  GBVM_END$scene_24_init$6108e5d7_   scene_24_init
     00126C08  GBVM$scene_24_init$dfc8aace_7c76   scene_24_init
     00126C18  GBVM$scene_24_init$4b0d70cb_d6ac   scene_24_init
     00126C18  GBVM_END$scene_24_init$794975b7_   scene_24_init
     00126C2D  GBVM$scene_24_init$e4ac70c1_a3b0   scene_24_init
     00126C3D  GBVM$scene_24_init$3632ea98_94da   scene_24_init
     00126C3D  GBVM_END$scene_24_init$4b0d70cb_   scene_24_init
     00126C52  GBVM$scene_24_init$fe244b3b_6092   scene_24_init
     00126C62  GBVM$scene_24_init$a76956ad_3fc4   scene_24_init
     00126C62  GBVM_END$scene_24_init$3632ea98_   scene_24_init
     00126C77  GBVM$scene_24_init$26e19dc4_88e7   scene_24_init
     00126C87  GBVM$scene_24_init$8d0abb19_9104   scene_24_init
     00126C87  GBVM_END$scene_24_init$a76956ad_   scene_24_init
     00126C9C  GBVM$scene_24_init$86fb4533_0d4d   scene_24_init
     00126CAC  GBVM$scene_24_init$8495e8f1_c5fd   scene_24_init
     00126CAC  GBVM_END$scene_24_init$8d0abb19_   scene_24_init
     00126CC1  GBVM$scene_24_init$1a49b0f8_34da   scene_24_init
     00126CD1  GBVM$scene_24_init$389d3edf_0d8f   scene_24_init
     00126CD1  GBVM$scene_24_init$b4e1f1ab_7b0d   scene_24_init
     00126CD1  GBVM_END$scene_24_init$492d3f38_   scene_24_init
     00126CD1  GBVM_END$scene_24_init$8495e8f1_   scene_24_init
     00126CDA  GBVM$scene_24_init$794e9e24_1c20   scene_24_init
     00126CDC  GBVM$scene_24_init$90391c41_a385   scene_24_init
     00126CE4  GBVM$scene_24_init$9b79af80_3544   scene_24_init
     00126CE4  GBVM_END$scene_24_init$90391c41_   scene_24_init
     00126CF6  GBVM$scene_24_init$40440307_8394   scene_24_init
     00126CFE  GBVM$scene_24_init$47cee9b1_7daf   scene_24_init
     00126D06  GBVM$scene_24_init$autofade$a5f1   scene_24_init
     00126D06  GBVM_END$scene_24_init$47cee9b1_   scene_24_init
     00126D06  GBVM_END$scene_24_init$9b79af80_   scene_24_init
     00126D12  _scene_26_init                     scene_26_init
     00126D15  GBVM$scene_26_init$3bd9692e_e0fe   scene_26_init
     00126D1E  GBVM$scene_26_init$0445c148_8864   scene_26_init
     00126D26  GBVM$scene_26_init$ae8406f0_fdcc   scene_26_init
     00126D26  GBVM_END$scene_26_init$0445c148_   scene_26_init
     00126D3B  GBVM$scene_26_init$c33fe6f9_1068   scene_26_init
     00126D4B  GBVM$scene_26_init$1ed5f74d_8832   scene_26_init
     00126D4B  GBVM_END$scene_26_init$ae8406f0_   scene_26_init
     00126D60  GBVM$scene_26_init$16be7ccc_ee18   scene_26_init
ASxxxx Linker V03.00/V05.40 + sdld,  page 165.
Hexadecimal  [32-Bits]

Area                                    Addr        Size        Decimal Bytes (Attributes)
--------------------------------        ----        ----        ------- ----- ------------
_CODE_18                            00124000    00004000 =       16384. bytes (REL,CON)

      Value  Global                              Global Defined In Module
      -----  --------------------------------   ------------------------
     00126D70  GBVM$scene_26_init$fd5dfd92_98cd   scene_26_init
     00126D70  GBVM_END$scene_26_init$1ed5f74d_   scene_26_init
     00126D85  GBVM$scene_26_init$5e670497_9418   scene_26_init
     00126D95  GBVM$scene_26_init$b630fe60_af8e   scene_26_init
     00126D95  GBVM_END$scene_26_init$fd5dfd92_   scene_26_init
     00126DAA  GBVM$scene_26_init$48300f2d_3f3a   scene_26_init
     00126DBA  GBVM$scene_26_init$68959385_eb2d   scene_26_init
     00126DBA  GBVM_END$scene_26_init$b630fe60_   scene_26_init
     00126DCF  GBVM$scene_26_init$6acb83b5_cba3   scene_26_init
     00126DDF  GBVM$scene_26_init$0a6d0865_03fd   scene_26_init
     00126DDF  GBVM_END$scene_26_init$68959385_   scene_26_init
     00126DF4  GBVM$scene_26_init$703c4664_756f   scene_26_init
     00126E04  GBVM$scene_26_init$adc5c0b8_8c96   scene_26_init
     00126E04  GBVM_END$scene_26_init$0a6d0865_   scene_26_init
     00126E19  GBVM$scene_26_init$3799c40d_0e70   scene_26_init
     00126E29  GBVM$scene_26_init$af1926c5_5724   scene_26_init
     00126E29  GBVM_END$scene_26_init$adc5c0b8_   scene_26_init
     00126E3E  GBVM$scene_26_init$5a0cbb08_e037   scene_26_init
     00126E4E  GBVM$scene_26_init$746d014b_50ab   scene_26_init
     00126E4E  GBVM_END$scene_26_init$af1926c5_   scene_26_init
     00126E63  GBVM$scene_26_init$fec4484e_279d   scene_26_init
     00126E73  GBVM$scene_26_init$e8431009_7afc   scene_26_init
     00126E73  GBVM_END$scene_26_init$746d014b_   scene_26_init
     00126E88  GBVM$scene_26_init$f2c4f0ec_421d   scene_26_init
     00126E98  GBVM$scene_26_init$5ac8b929_7b69   scene_26_init
     00126E98  GBVM_END$scene_26_init$e8431009_   scene_26_init
     00126EAD  GBVM$scene_26_init$12fa8594_bef6   scene_26_init
     00126EBD  GBVM$scene_26_init$90e30222_fbaa   scene_26_init
     00126EBD  GBVM_END$scene_26_init$5ac8b929_   scene_26_init
     00126ED2  GBVM$scene_26_init$990c4291_4591   scene_26_init
     00126EE2  GBVM$scene_26_init$5b80a978_0f59   scene_26_init
     00126EE2  GBVM_END$scene_26_init$90e30222_   scene_26_init
     00126EF7  GBVM$scene_26_init$57b1f321_577c   scene_26_init
     00126F07  GBVM$scene_26_init$119c5e85_f4f2   scene_26_init
     00126F07  GBVM_END$scene_26_init$5b80a978_   scene_26_init
     00126F1C  GBVM$scene_26_init$2a371e8a_c875   scene_26_init
     00126F2C  GBVM$scene_26_init$085c45ce_37cb   scene_26_init
     00126F2C  GBVM_END$scene_26_init$119c5e85_   scene_26_init
     00126F41  GBVM$scene_26_init$01eca31b_5383   scene_26_init
     00126F51  GBVM$scene_26_init$a0ad8a8a_6983   scene_26_init
     00126F51  GBVM_END$scene_26_init$085c45ce_   scene_26_init
     00126F66  GBVM$scene_26_init$064c6c40_2a98   scene_26_init
     00126F76  GBVM$scene_26_init$3a7b580c_133c   scene_26_init
     00126F76  GBVM_END$scene_26_init$a0ad8a8a_   scene_26_init
     00126F8B  GBVM$scene_26_init$d546f64d_6056   scene_26_init
     00126F9B  GBVM$scene_26_init$962a0e21_21cf   scene_26_init
     00126F9B  GBVM_END$scene_26_init$3a7b580c_   scene_26_init
     00126FB0  GBVM$scene_26_init$6f96e9e5_d1e8   scene_26_init
     00126FC0  GBVM$scene_26_init$f96858f2_61a1   scene_26_init
     00126FC0  GBVM_END$scene_26_init$962a0e21_   scene_26_init
     00126FD5  GBVM$scene_26_init$5f83d05b_e510   scene_26_init
ASxxxx Linker V03.00/V05.40 + sdld,  page 166.
Hexadecimal  [32-Bits]

Area                                    Addr        Size        Decimal Bytes (Attributes)
--------------------------------        ----        ----        ------- ----- ------------
_CODE_18                            00124000    00004000 =       16384. bytes (REL,CON)

      Value  Global                              Global Defined In Module
      -----  --------------------------------   ------------------------
     00126FE5  GBVM$scene_26_init$07836724_af2c   scene_26_init
     00126FE5  GBVM_END$scene_26_init$f96858f2_   scene_26_init
     00126FFA  GBVM$scene_26_init$8981d83a_272e   scene_26_init
     0012700A  GBVM$scene_26_init$82bb7b92_0eb1   scene_26_init
     0012700A  GBVM_END$scene_26_init$07836724_   scene_26_init
     0012701F  GBVM$scene_26_init$dce68998_04c7   scene_26_init
     0012702F  GBVM$scene_26_init$d77b51ab_629b   scene_26_init
     0012702F  GBVM_END$scene_26_init$82bb7b92_   scene_26_init
     00127044  GBVM$scene_26_init$590f7352_426f   scene_26_init
     00127054  GBVM$scene_26_init$29f1a15b_f87d   scene_26_init
     00127054  GBVM_END$scene_26_init$d77b51ab_   scene_26_init
     00127069  GBVM$scene_26_init$1df05aec_9d51   scene_26_init
     00127079  GBVM$scene_26_init$4ac2a2eb_2d23   scene_26_init
     00127079  GBVM_END$scene_26_init$29f1a15b_   scene_26_init
     0012708E  GBVM$scene_26_init$38b6a5a8_9e8d   scene_26_init
     0012709E  GBVM$scene_26_init$ae5a4d35_e65c   scene_26_init
     0012709E  GBVM_END$scene_26_init$4ac2a2eb_   scene_26_init
     001270B3  GBVM$scene_26_init$a994bc6b_472e   scene_26_init
     001270C3  GBVM$scene_26_init$2f7aada7_f4fb   scene_26_init
     001270C3  GBVM_END$scene_26_init$ae5a4d35_   scene_26_init
     001270D8  GBVM$scene_26_init$561ef800_111a   scene_26_init
     001270E8  GBVM$scene_26_init$b8127e71_3bd6   scene_26_init
     001270E8  GBVM_END$scene_26_init$2f7aada7_   scene_26_init
     001270FD  GBVM$scene_26_init$d88338d3_f391   scene_26_init
     0012710D  GBVM$scene_26_init$121ea478_123d   scene_26_init
     0012710D  GBVM_END$scene_26_init$b8127e71_   scene_26_init
     00127122  GBVM$scene_26_init$7623bb3a_3776   scene_26_init
     00127132  GBVM$scene_26_init$1c878e21_727b   scene_26_init
     00127132  GBVM_END$scene_26_init$121ea478_   scene_26_init
     00127147  GBVM$scene_26_init$f64a1bd7_d6fc   scene_26_init
     00127157  GBVM$scene_26_init$75f726a6_1f8f   scene_26_init
     00127157  GBVM_END$scene_26_init$1c878e21_   scene_26_init
     0012716C  GBVM$scene_26_init$3bb24c3b_99fe   scene_26_init
     0012717C  GBVM$scene_26_init$21f70419_0ea8   scene_26_init
     0012717C  GBVM$scene_26_init$c40cb403_bcf1   scene_26_init
     0012717C  GBVM_END$scene_26_init$75f726a6_   scene_26_init
     00127184  GBVM$scene_26_init$f2565025_6225   scene_26_init
     0012718C  GBVM$scene_26_init$3b38fd59_06bc   scene_26_init
     00127195  GBVM$scene_26_init$285cd4a8_25ed   scene_26_init
     00127197  GBVM$scene_26_init$b68f55ca_0134   scene_26_init
     0012719F  GBVM$scene_26_init$autofade$790c   scene_26_init
     0012719F  GBVM_END$scene_26_init$b68f55ca_   scene_26_init
     001271AB  _scene_27_init                     scene_27_init
     001271AE  GBVM$scene_27_init$cf6a14f1_7e01   scene_27_init
     001271BD  GBVM$scene_27_init$1bda323c_48ac   scene_27_init
     001271C6  GBVM$scene_27_init$b35a237d_5a76   scene_27_init
     001271D3  GBVM$scene_27_init$a2023ba6_a094   scene_27_init
     001271DC  GBVM$scene_27_init$da18455b_7cfb   scene_27_init
     001271E4  GBVM$scene_27_init$5d1248be_d8c3   scene_27_init
     001271E4  GBVM_END$scene_27_init$da18455b_   scene_27_init
     001271F9  GBVM$scene_27_init$1c1434a9_a644   scene_27_init
ASxxxx Linker V03.00/V05.40 + sdld,  page 167.
Hexadecimal  [32-Bits]

Area                                    Addr        Size        Decimal Bytes (Attributes)
--------------------------------        ----        ----        ------- ----- ------------
_CODE_18                            00124000    00004000 =       16384. bytes (REL,CON)

      Value  Global                              Global Defined In Module
      -----  --------------------------------   ------------------------
     00127209  GBVM$scene_27_init$2a07006b_e7d9   scene_27_init
     00127209  GBVM_END$scene_27_init$5d1248be_   scene_27_init
     0012721E  GBVM$scene_27_init$1715f72a_29b7   scene_27_init
     0012722E  GBVM$scene_27_init$5fab6a50_515b   scene_27_init
     0012722E  GBVM_END$scene_27_init$2a07006b_   scene_27_init
     00127243  GBVM$scene_27_init$ca57c23c_8784   scene_27_init
     00127253  GBVM$scene_27_init$83fb68d7_3ab2   scene_27_init
     00127253  GBVM_END$scene_27_init$5fab6a50_   scene_27_init
     00127268  GBVM$scene_27_init$eb14384c_50d8   scene_27_init
     00127278  GBVM$scene_27_init$fd40e002_1e7a   scene_27_init
     00127278  GBVM_END$scene_27_init$83fb68d7_   scene_27_init
     0012728D  GBVM$scene_27_init$9cb861b8_3230   scene_27_init
     0012729D  GBVM$scene_27_init$ab028bd3_a144   scene_27_init
     0012729D  GBVM_END$scene_27_init$fd40e002_   scene_27_init
     001272B2  GBVM$scene_27_init$596b5850_1019   scene_27_init
     001272C2  GBVM$scene_27_init$00b4352a_975d   scene_27_init
     001272C2  GBVM_END$scene_27_init$ab028bd3_   scene_27_init
     001272D7  GBVM$scene_27_init$f55cc07a_cbf6   scene_27_init
     001272E7  GBVM$scene_27_init$195c8598_b060   scene_27_init
     001272E7  GBVM_END$scene_27_init$00b4352a_   scene_27_init
     001272FC  GBVM$scene_27_init$019cbb5a_7e48   scene_27_init
     0012730C  GBVM$scene_27_init$d014e29d_04f1   scene_27_init
     0012730C  GBVM_END$scene_27_init$195c8598_   scene_27_init
     00127321  GBVM$scene_27_init$98e7d05d_ee6d   scene_27_init
     00127331  GBVM$scene_27_init$78f97d82_2af0   scene_27_init
     00127331  GBVM_END$scene_27_init$d014e29d_   scene_27_init
     00127346  GBVM$scene_27_init$e20deb45_6ca6   scene_27_init
     00127356  GBVM$scene_27_init$265bbcff_feea   scene_27_init
     00127356  GBVM_END$scene_27_init$78f97d82_   scene_27_init
     0012736B  GBVM$scene_27_init$e758d9a1_7153   scene_27_init
     0012737B  GBVM$scene_27_init$d7516e61_47d5   scene_27_init
     0012737B  GBVM_END$scene_27_init$265bbcff_   scene_27_init
     00127390  GBVM$scene_27_init$cbca37d7_fdea   scene_27_init
     001273A0  GBVM$scene_27_init$4977e868_2850   scene_27_init
     001273A0  GBVM_END$scene_27_init$d7516e61_   scene_27_init
     001273B5  GBVM$scene_27_init$5a9df69d_a974   scene_27_init
     001273C5  GBVM$scene_27_init$f40e6a5c_77c8   scene_27_init
     001273C5  GBVM_END$scene_27_init$4977e868_   scene_27_init
     001273DA  GBVM$scene_27_init$2408107c_d9af   scene_27_init
     001273EA  GBVM$scene_27_init$86d4b2a7_12dd   scene_27_init
     001273EA  GBVM_END$scene_27_init$f40e6a5c_   scene_27_init
     001273FF  GBVM$scene_27_init$59c25a54_43a2   scene_27_init
     0012740F  GBVM$scene_27_init$4fc18c8f_97de   scene_27_init
     0012740F  GBVM_END$scene_27_init$86d4b2a7_   scene_27_init
     00127424  GBVM$scene_27_init$2e110fe0_7740   scene_27_init
     00127434  GBVM$scene_27_init$3528868b_7922   scene_27_init
     00127434  GBVM_END$scene_27_init$4fc18c8f_   scene_27_init
     00127449  GBVM$scene_27_init$54d5434f_ed4d   scene_27_init
     00127459  GBVM$scene_27_init$e36c73f6_f876   scene_27_init
     00127459  GBVM_END$scene_27_init$3528868b_   scene_27_init
     0012746E  GBVM$scene_27_init$52ea6e7a_7b6b   scene_27_init
ASxxxx Linker V03.00/V05.40 + sdld,  page 168.
Hexadecimal  [32-Bits]

Area                                    Addr        Size        Decimal Bytes (Attributes)
--------------------------------        ----        ----        ------- ----- ------------
_CODE_18                            00124000    00004000 =       16384. bytes (REL,CON)

      Value  Global                              Global Defined In Module
      -----  --------------------------------   ------------------------
     0012747E  GBVM$scene_27_init$18637b8f_98d1   scene_27_init
     0012747E  GBVM_END$scene_27_init$e36c73f6_   scene_27_init
     00127493  GBVM$scene_27_init$9de30edf_207e   scene_27_init
     001274A3  GBVM$scene_27_init$3d84eea2_d124   scene_27_init
     001274A3  GBVM_END$scene_27_init$18637b8f_   scene_27_init
     001274B8  GBVM$scene_27_init$17a4077b_26ee   scene_27_init
     001274C8  GBVM$scene_27_init$6a198442_853b   scene_27_init
     001274C8  GBVM_END$scene_27_init$3d84eea2_   scene_27_init
     001274DD  GBVM$scene_27_init$76e4e6c8_6364   scene_27_init
     001274ED  GBVM$scene_27_init$a6f9030e_96e9   scene_27_init
     001274ED  GBVM_END$scene_27_init$6a198442_   scene_27_init
     00127502  GBVM$scene_27_init$d874d9d7_2b9b   scene_27_init
     00127512  GBVM$scene_27_init$5043ba3d_dd8e   scene_27_init
     00127512  GBVM_END$scene_27_init$a6f9030e_   scene_27_init
     00127527  GBVM$scene_27_init$a49d62aa_e014   scene_27_init
     00127537  GBVM$scene_27_init$58db54fe_fe70   scene_27_init
     00127537  GBVM_END$scene_27_init$5043ba3d_   scene_27_init
     0012754C  GBVM$scene_27_init$4077f4d9_5dcf   scene_27_init
     0012755C  GBVM$scene_27_init$3553e89a_0cb6   scene_27_init
     0012755C  GBVM_END$scene_27_init$58db54fe_   scene_27_init
     00127571  GBVM$scene_27_init$c489604b_8fe1   scene_27_init
     00127581  GBVM$scene_27_init$210cfae1_c5e0   scene_27_init
     00127581  GBVM_END$scene_27_init$3553e89a_   scene_27_init
     00127596  GBVM$scene_27_init$f696a16d_deff   scene_27_init
     001275A6  GBVM$scene_27_init$698bdb38_bdaf   scene_27_init
     001275A6  GBVM_END$scene_27_init$210cfae1_   scene_27_init
     001275BB  GBVM$scene_27_init$bbd09070_53f8   scene_27_init
     001275CB  GBVM$scene_27_init$2cfef03a_047f   scene_27_init
     001275CB  GBVM_END$scene_27_init$698bdb38_   scene_27_init
     001275E0  GBVM$scene_27_init$2268a357_fcfd   scene_27_init
     001275F0  GBVM$scene_27_init$a540e414_70a2   scene_27_init
     001275F0  GBVM_END$scene_27_init$2cfef03a_   scene_27_init
     00127605  GBVM$scene_27_init$06507988_7c24   scene_27_init
     00127615  GBVM$scene_27_init$ce028391_50b2   scene_27_init
     00127615  GBVM_END$scene_27_init$a540e414_   scene_27_init
     0012762A  GBVM$scene_27_init$1ad008d8_97f7   scene_27_init
     0012763A  GBVM$scene_27_init$2c93d2cf_c277   scene_27_init
     0012763A  GBVM$scene_27_init$650253e2_b836   scene_27_init
     0012763A  GBVM_END$scene_27_init$1bda323c_   scene_27_init
     0012763A  GBVM_END$scene_27_init$ce028391_   scene_27_init
     00127643  GBVM$scene_27_init$65943919_0241   scene_27_init
     0012764F  GBVM$scene_27_init$26409113_66c2   scene_27_init
     00127659  GBVM$scene_27_init$7740141c_f1d2   scene_27_init
     00127659  GBVM_END$scene_27_init$65943919_   scene_27_init
     0012765B  GBVM$scene_27_init$567d50a1_6cee   scene_27_init
     00127663  GBVM$scene_27_init$7847f25a_52b8   scene_27_init
     00127663  GBVM_END$scene_27_init$567d50a1_   scene_27_init
     00127675  GBVM$scene_27_init$b4b8f453_de71   scene_27_init
     0012767D  GBVM$scene_27_init$8dee6059_169f   scene_27_init
     00127685  GBVM$scene_27_init$autofade$6f45   scene_27_init
     00127685  GBVM_END$scene_27_init$7847f25a_   scene_27_init
ASxxxx Linker V03.00/V05.40 + sdld,  page 169.
Hexadecimal  [32-Bits]

Area                                    Addr        Size        Decimal Bytes (Attributes)
--------------------------------        ----        ----        ------- ----- ------------
_CODE_18                            00124000    00004000 =       16384. bytes (REL,CON)

      Value  Global                              Global Defined In Module
      -----  --------------------------------   ------------------------
     00127685  GBVM_END$scene_27_init$8dee6059_   scene_27_init
     00127691  _scene_28_init                     scene_28_init
     00127694  GBVM$scene_28_init$568a4ea6_3327   scene_28_init
     001276A3  GBVM$scene_28_init$9f5aada6_2131   scene_28_init
     001276AC  GBVM$scene_28_init$623c7ecd_d8d4   scene_28_init
     001276B9  GBVM$scene_28_init$99a6b668_4ee3   scene_28_init
     001276C2  GBVM$scene_28_init$c6510b65_34db   scene_28_init
     001276CA  GBVM$scene_28_init$1dabe023_bc51   scene_28_init
     001276CA  GBVM_END$scene_28_init$c6510b65_   scene_28_init
     001276DF  GBVM$scene_28_init$39894767_c798   scene_28_init
     001276EF  GBVM$scene_28_init$82ddce68_ee30   scene_28_init
     001276EF  GBVM_END$scene_28_init$1dabe023_   scene_28_init
     00127704  GBVM$scene_28_init$5e293766_60b8   scene_28_init
     00127714  GBVM$scene_28_init$953c8d2a_906a   scene_28_init
     00127714  GBVM_END$scene_28_init$82ddce68_   scene_28_init
     00127729  GBVM$scene_28_init$13a1e0b7_3a4f   scene_28_init
     00127739  GBVM$scene_28_init$564bb0c9_28b3   scene_28_init
     00127739  GBVM_END$scene_28_init$953c8d2a_   scene_28_init
     0012774E  GBVM$scene_28_init$13e19d74_9b6a   scene_28_init
     0012775E  GBVM$scene_28_init$938a9669_12e8   scene_28_init
     0012775E  GBVM_END$scene_28_init$564bb0c9_   scene_28_init
     00127773  GBVM$scene_28_init$2203bdd5_65e8   scene_28_init
     00127783  GBVM$scene_28_init$fb0598d8_db13   scene_28_init
     00127783  GBVM_END$scene_28_init$938a9669_   scene_28_init
     00127798  GBVM$scene_28_init$98d4afc5_3113   scene_28_init
     001277A8  GBVM$scene_28_init$a2aeb926_b5e2   scene_28_init
     001277A8  GBVM_END$scene_28_init$fb0598d8_   scene_28_init
     001277BD  GBVM$scene_28_init$ee1eb546_7a2f   scene_28_init
     001277CD  GBVM$scene_28_init$921ff5ea_beaa   scene_28_init
     001277CD  GBVM_END$scene_28_init$a2aeb926_   scene_28_init
     001277E2  GBVM$scene_28_init$3d49f89d_8ddc   scene_28_init
     001277F2  GBVM$scene_28_init$9da9b395_59dd   scene_28_init
     001277F2  GBVM_END$scene_28_init$921ff5ea_   scene_28_init
     00127807  GBVM$scene_28_init$a29075e8_f31a   scene_28_init
     00127817  GBVM$scene_28_init$9e063628_fe8f   scene_28_init
     00127817  GBVM_END$scene_28_init$9da9b395_   scene_28_init
     0012782C  GBVM$scene_28_init$5290fd66_437c   scene_28_init
     0012783C  GBVM$scene_28_init$32c44387_9d49   scene_28_init
     0012783C  GBVM_END$scene_28_init$9e063628_   scene_28_init
     00127851  GBVM$scene_28_init$ade5d35c_e36d   scene_28_init
     00127861  GBVM$scene_28_init$8d75a2d8_d876   scene_28_init
     00127861  GBVM_END$scene_28_init$32c44387_   scene_28_init
     00127876  GBVM$scene_28_init$013cdcb0_415c   scene_28_init
     00127886  GBVM$scene_28_init$877204b2_5fea   scene_28_init
     00127886  GBVM_END$scene_28_init$8d75a2d8_   scene_28_init
     0012789B  GBVM$scene_28_init$0368559f_76ae   scene_28_init
     001278AB  GBVM$scene_28_init$7bedd929_fc98   scene_28_init
     001278AB  GBVM_END$scene_28_init$877204b2_   scene_28_init
     001278C0  GBVM$scene_28_init$c0ad2fcb_a50e   scene_28_init
     001278D0  GBVM$scene_28_init$7e1a5afa_af72   scene_28_init
     001278D0  GBVM_END$scene_28_init$7bedd929_   scene_28_init
ASxxxx Linker V03.00/V05.40 + sdld,  page 170.
Hexadecimal  [32-Bits]

Area                                    Addr        Size        Decimal Bytes (Attributes)
--------------------------------        ----        ----        ------- ----- ------------
_CODE_18                            00124000    00004000 =       16384. bytes (REL,CON)

      Value  Global                              Global Defined In Module
      -----  --------------------------------   ------------------------
     001278E5  GBVM$scene_28_init$3f28c29c_6289   scene_28_init
     001278F5  GBVM$scene_28_init$ceea1b55_40c5   scene_28_init
     001278F5  GBVM_END$scene_28_init$7e1a5afa_   scene_28_init
     0012790A  GBVM$scene_28_init$eecf5d5b_9afa   scene_28_init
     0012791A  GBVM$scene_28_init$056cc824_8c7e   scene_28_init
     0012791A  GBVM_END$scene_28_init$ceea1b55_   scene_28_init
     0012792F  GBVM$scene_28_init$77ceb17b_d796   scene_28_init
     0012793F  GBVM$scene_28_init$aa1f75cd_00a4   scene_28_init
     0012793F  GBVM_END$scene_28_init$056cc824_   scene_28_init
     00127954  GBVM$scene_28_init$5292d864_7cae   scene_28_init
     00127964  GBVM$scene_28_init$cef1c498_7403   scene_28_init
     00127964  GBVM_END$scene_28_init$aa1f75cd_   scene_28_init
     00127979  GBVM$scene_28_init$e15d8d24_93f4   scene_28_init
     00127989  GBVM$scene_28_init$7d025320_8037   scene_28_init
     00127989  GBVM_END$scene_28_init$cef1c498_   scene_28_init
     0012799E  GBVM$scene_28_init$a649dbb6_bcee   scene_28_init
     001279AE  GBVM$scene_28_init$cf7d9e93_b5f6   scene_28_init
     001279AE  GBVM_END$scene_28_init$7d025320_   scene_28_init
     001279C3  GBVM$scene_28_init$bb418466_52f6   scene_28_init
     001279D3  GBVM$scene_28_init$8939f491_350a   scene_28_init
     001279D3  GBVM_END$scene_28_init$cf7d9e93_   scene_28_init
     001279E8  GBVM$scene_28_init$36eac421_6bff   scene_28_init
     001279F8  GBVM$scene_28_init$5dbec656_8886   scene_28_init
     001279F8  GBVM_END$scene_28_init$8939f491_   scene_28_init
     00127A0D  GBVM$scene_28_init$c46ce0fc_38ee   scene_28_init
     00127A1D  GBVM$scene_28_init$3be7d451_27fd   scene_28_init
     00127A1D  GBVM_END$scene_28_init$5dbec656_   scene_28_init
     00127A32  GBVM$scene_28_init$5835db80_1b7d   scene_28_init
     00127A42  GBVM$scene_28_init$3c2a6e46_4198   scene_28_init
     00127A42  GBVM_END$scene_28_init$3be7d451_   scene_28_init
     00127A57  GBVM$scene_28_init$640361ac_df36   scene_28_init
     00127A67  GBVM$scene_28_init$e3d582a2_e170   scene_28_init
     00127A67  GBVM_END$scene_28_init$3c2a6e46_   scene_28_init
     00127A7C  GBVM$scene_28_init$3a06f94d_0310   scene_28_init
     00127A8C  GBVM$scene_28_init$241e02d3_d06d   scene_28_init
     00127A8C  GBVM_END$scene_28_init$e3d582a2_   scene_28_init
     00127AA1  GBVM$scene_28_init$5bd48794_f7d6   scene_28_init
     00127AB1  GBVM$scene_28_init$0759db4b_d622   scene_28_init
     00127AB1  GBVM_END$scene_28_init$241e02d3_   scene_28_init
     00127AC6  GBVM$scene_28_init$8dec4fc0_6e85   scene_28_init
     00127AD6  GBVM$scene_28_init$ed0373b4_c341   scene_28_init
     00127AD6  GBVM_END$scene_28_init$0759db4b_   scene_28_init
     00127AEB  GBVM$scene_28_init$ced2b6da_ccd9   scene_28_init
     00127AFB  GBVM$scene_28_init$10c86bf3_6fd4   scene_28_init
     00127AFB  GBVM_END$scene_28_init$ed0373b4_   scene_28_init
     00127B10  GBVM$scene_28_init$fb3d7b47_5b81   scene_28_init
     00127B20  GBVM$scene_28_init$8c5480bd_de90   scene_28_init
     00127B20  GBVM$scene_28_init$b41d74a9_ec40   scene_28_init
     00127B20  GBVM_END$scene_28_init$10c86bf3_   scene_28_init
     00127B20  GBVM_END$scene_28_init$9f5aada6_   scene_28_init
     00127B2C  GBVM$scene_28_init$9058ccd7_9b5d   scene_28_init
ASxxxx Linker V03.00/V05.40 + sdld,  page 171.
Hexadecimal  [32-Bits]

Area                                    Addr        Size        Decimal Bytes (Attributes)
--------------------------------        ----        ----        ------- ----- ------------
_CODE_18                            00124000    00004000 =       16384. bytes (REL,CON)

      Value  Global                              Global Defined In Module
      -----  --------------------------------   ------------------------
     00127B36  GBVM$scene_28_init$def880cc_6d9f   scene_28_init
     00127B36  GBVM_END$scene_28_init$b41d74a9_   scene_28_init
     00127B3F  GBVM$scene_28_init$195e17d0_f1cd   scene_28_init
     00127B41  GBVM$scene_28_init$87616318_43b4   scene_28_init
     00127B49  GBVM$scene_28_init$01bf9573_d5d3   scene_28_init
     00127B49  GBVM_END$scene_28_init$87616318_   scene_28_init
     00127B5B  GBVM$scene_28_init$c0ee5402_de80   scene_28_init
     00127B63  GBVM$scene_28_init$13be66d7_8e33   scene_28_init
     00127B6B  GBVM$scene_28_init$autofade$34da   scene_28_init
     00127B6B  GBVM_END$scene_28_init$01bf9573_   scene_28_init
     00127B6B  GBVM_END$scene_28_init$13be66d7_   scene_28_init
     00127B77  _scene_46_init                     scene_46_init
     00127B7A  GBVM$scene_46_init$c000056f_7b70   scene_46_init
     00127B83  GBVM$scene_46_init$9e68d11d_c300   scene_46_init
     00127B8B  GBVM$scene_46_init$d4fb060b_fdb6   scene_46_init
     00127B8B  GBVM_END$scene_46_init$9e68d11d_   scene_46_init
     00127BA0  GBVM$scene_46_init$b54b27fd_de1c   scene_46_init
     00127BB0  GBVM$scene_46_init$3c2fc299_b64c   scene_46_init
     00127BB0  GBVM_END$scene_46_init$d4fb060b_   scene_46_init
     00127BC5  GBVM$scene_46_init$841103f1_22ee   scene_46_init
     00127BD5  GBVM$scene_46_init$a0e5da0f_8a10   scene_46_init
     00127BD5  GBVM_END$scene_46_init$3c2fc299_   scene_46_init
     00127BEA  GBVM$scene_46_init$d5943dc5_5aff   scene_46_init
     00127BFA  GBVM$scene_46_init$fd98dd92_8350   scene_46_init
     00127BFA  GBVM_END$scene_46_init$a0e5da0f_   scene_46_init
     00127C0F  GBVM$scene_46_init$ef850e45_9322   scene_46_init
     00127C1F  GBVM$scene_46_init$133d22c9_ae4d   scene_46_init
     00127C1F  GBVM_END$scene_46_init$fd98dd92_   scene_46_init
     00127C34  GBVM$scene_46_init$025b1623_b913   scene_46_init
     00127C44  GBVM$scene_46_init$f8d500ab_e576   scene_46_init
     00127C44  GBVM_END$scene_46_init$133d22c9_   scene_46_init
     00127C59  GBVM$scene_46_init$b155268f_49c0   scene_46_init
     00127C69  GBVM$scene_46_init$5b642a1f_8527   scene_46_init
     00127C69  GBVM_END$scene_46_init$f8d500ab_   scene_46_init
     00127C7E  GBVM$scene_46_init$e5e9a89d_4354   scene_46_init
     00127C8E  GBVM$scene_46_init$4c59a735_792f   scene_46_init
     00127C8E  GBVM_END$scene_46_init$5b642a1f_   scene_46_init
     00127CA3  GBVM$scene_46_init$08039f83_90a3   scene_46_init
     00127CB3  GBVM$scene_46_init$bc0b4d18_caa8   scene_46_init
     00127CB3  GBVM_END$scene_46_init$4c59a735_   scene_46_init
     00127CC8  GBVM$scene_46_init$7d30c07c_f81a   scene_46_init
     00127CD8  GBVM$scene_46_init$e6a8644c_1946   scene_46_init
     00127CD8  GBVM_END$scene_46_init$bc0b4d18_   scene_46_init
     00127CED  GBVM$scene_46_init$8c5e32d5_78cb   scene_46_init
     00127CFD  GBVM$scene_46_init$f9ed3c3f_5ed7   scene_46_init
     00127CFD  GBVM_END$scene_46_init$e6a8644c_   scene_46_init
     00127D12  GBVM$scene_46_init$e2f4cc01_9c06   scene_46_init
     00127D22  GBVM$scene_46_init$3a12f565_5fab   scene_46_init
     00127D22  GBVM_END$scene_46_init$f9ed3c3f_   scene_46_init
     00127D37  GBVM$scene_46_init$2886ec0b_3219   scene_46_init
     00127D47  GBVM$scene_46_init$5fbc3d56_c647   scene_46_init
ASxxxx Linker V03.00/V05.40 + sdld,  page 172.
Hexadecimal  [32-Bits]

Area                                    Addr        Size        Decimal Bytes (Attributes)
--------------------------------        ----        ----        ------- ----- ------------
_CODE_18                            00124000    00004000 =       16384. bytes (REL,CON)

      Value  Global                              Global Defined In Module
      -----  --------------------------------   ------------------------
     00127D47  GBVM_END$scene_46_init$3a12f565_   scene_46_init
     00127D5C  GBVM$scene_46_init$89ff5f60_1518   scene_46_init
     00127D6C  GBVM$scene_46_init$115695ce_f15a   scene_46_init
     00127D6C  GBVM_END$scene_46_init$5fbc3d56_   scene_46_init
     00127D81  GBVM$scene_46_init$1fdb78a5_b532   scene_46_init
     00127D91  GBVM$scene_46_init$ce8dd593_ac5f   scene_46_init
     00127D91  GBVM_END$scene_46_init$115695ce_   scene_46_init
     00127DA6  GBVM$scene_46_init$2330e707_064f   scene_46_init
     00127DB6  GBVM$scene_46_init$30b8bc99_12db   scene_46_init
     00127DB6  GBVM_END$scene_46_init$ce8dd593_   scene_46_init
     00127DCB  GBVM$scene_46_init$9fc73f84_43af   scene_46_init
     00127DDB  GBVM$scene_46_init$d16d3681_3b5c   scene_46_init
     00127DDB  GBVM_END$scene_46_init$30b8bc99_   scene_46_init
     00127DF0  GBVM$scene_46_init$fbf6012e_ee75   scene_46_init
     00127E00  GBVM$scene_46_init$3a05ab3d_5c1f   scene_46_init
     00127E00  GBVM_END$scene_46_init$d16d3681_   scene_46_init
     00127E15  GBVM$scene_46_init$dbc71ba5_d3df   scene_46_init
     00127E25  GBVM$scene_46_init$900d8681_345d   scene_46_init
     00127E25  GBVM_END$scene_46_init$3a05ab3d_   scene_46_init
     00127E3A  GBVM$scene_46_init$c7774196_a65a   scene_46_init
     00127E4A  GBVM$scene_46_init$320ebbca_0983   scene_46_init
     00127E4A  GBVM_END$scene_46_init$900d8681_   scene_46_init
     00127E5F  GBVM$scene_46_init$bf5c68f9_6697   scene_46_init
     00127E6F  GBVM$scene_46_init$c5f7c421_26fa   scene_46_init
     00127E6F  GBVM_END$scene_46_init$320ebbca_   scene_46_init
     00127E84  GBVM$scene_46_init$f3b5df9e_50c8   scene_46_init
     00127E94  GBVM$scene_46_init$db6a42dd_069b   scene_46_init
     00127E94  GBVM_END$scene_46_init$c5f7c421_   scene_46_init
     00127EA9  GBVM$scene_46_init$7c1f93a0_d355   scene_46_init
     00127EB9  GBVM$scene_46_init$9fce4053_2e0b   scene_46_init
     00127EB9  GBVM_END$scene_46_init$db6a42dd_   scene_46_init
     00127ECE  GBVM$scene_46_init$efa3e1a9_f7dd   scene_46_init
     00127EDE  GBVM$scene_46_init$2d2394b4_421e   scene_46_init
     00127EDE  GBVM_END$scene_46_init$9fce4053_   scene_46_init
     00127EF3  GBVM$scene_46_init$18de544a_9197   scene_46_init
     00127F03  GBVM$scene_46_init$ff4b441e_1eb9   scene_46_init
     00127F03  GBVM_END$scene_46_init$2d2394b4_   scene_46_init
     00127F18  GBVM$scene_46_init$19860c83_1bc7   scene_46_init
     00127F28  GBVM$scene_46_init$54c795a5_6265   scene_46_init
     00127F28  GBVM_END$scene_46_init$ff4b441e_   scene_46_init
     00127F3D  GBVM$scene_46_init$70220bb1_01b6   scene_46_init
     00127F4D  GBVM$scene_46_init$bd65024e_9afe   scene_46_init
     00127F4D  GBVM_END$scene_46_init$54c795a5_   scene_46_init
     00127F62  GBVM$scene_46_init$74b0d162_46ec   scene_46_init
     00127F72  GBVM$scene_46_init$8362cebc_5c4c   scene_46_init
     00127F72  GBVM_END$scene_46_init$bd65024e_   scene_46_init
     00127F87  GBVM$scene_46_init$a9a0689b_df37   scene_46_init
     00127F97  GBVM$scene_46_init$16b23fa9_4e17   scene_46_init
     00127F97  GBVM_END$scene_46_init$8362cebc_   scene_46_init
     00127FAC  GBVM$scene_46_init$96f9db6a_0e61   scene_46_init
     00127FBC  GBVM$scene_46_init$d1a7ba97_4f9f   scene_46_init
ASxxxx Linker V03.00/V05.40 + sdld,  page 173.
Hexadecimal  [32-Bits]

Area                                    Addr        Size        Decimal Bytes (Attributes)
--------------------------------        ----        ----        ------- ----- ------------
_CODE_18                            00124000    00004000 =       16384. bytes (REL,CON)

      Value  Global                              Global Defined In Module
      -----  --------------------------------   ------------------------
     00127FBC  GBVM_END$scene_46_init$16b23fa9_   scene_46_init
     00127FD1  GBVM$scene_46_init$f41ff85b_b678   scene_46_init
     00127FE1  GBVM$scene_46_init$06194e8d_40d6   scene_46_init
     00127FE1  GBVM$scene_46_init$18b27666_bb40   scene_46_init
     00127FE1  GBVM$scene_46_init$1f662a74_ccff   scene_46_init
     00127FE1  GBVM_END$scene_46_init$d1a7ba97_   scene_46_init
     00127FEA  GBVM$scene_46_init$f5e3f841_2182   scene_46_init
     00127FEC  GBVM$scene_46_init$6dab4d8e_0602   scene_46_init
     00127FF4  GBVM$scene_46_init$autofade$cbf6   scene_46_init
     00127FF4  GBVM_END$scene_46_init$6dab4d8e_   scene_46_init
ASxxxx Linker V03.00/V05.40 + sdld,  page 174.
Hexadecimal  [32-Bits]

Area                                    Addr        Size        Decimal Bytes (Attributes)
--------------------------------        ----        ----        ------- ----- ------------
_CODE_23                            00174000    00003FFF =       16383. bytes (REL,CON)

      Value  Global                              Global Defined In Module
      -----  --------------------------------   ------------------------
     00174000  ___func_bg_boss_warning_tilemap_   bg_boss_warning_tilemap_attr
     00174000  _bg_boss_warning_tilemap_attr      bg_boss_warning_tilemap_attr
     00174168  ___func_bg_boss_warning_tilemap    bg_boss_warning_tilemap
     00174168  _bg_boss_warning_tilemap           bg_boss_warning_tilemap
     001742D0  ___func_bg_caught_tilemap_attr     bg_caught_tilemap_attr
     001742D0  _bg_caught_tilemap_attr            bg_caught_tilemap_attr
     00174438  ___func_bg_caught_tilemap          bg_caught_tilemap
     00174438  _bg_caught_tilemap                 bg_caught_tilemap
     001745A0  ___func_bg_final_escape_1_tilema   bg_final_escape_1_tilemap_at
     001745A0  _bg_final_escape_1_tilemap_attr    bg_final_escape_1_tilemap_at
     00174708  ___func_bg_final_escape_1_tilema   bg_final_escape_1_tilemap
     00174708  _bg_final_escape_1_tilemap         bg_final_escape_1_tilemap
     00174870  ___func_bg_game_over_productivit   bg_game_over_productivity_ti
     00174870  _bg_game_over_productivity_tilem   bg_game_over_productivity_ti
     001749D8  ___func_bg_game_over_productivit   bg_game_over_productivity_ti
     001749D8  _bg_game_over_productivity_tilem   bg_game_over_productivity_ti
     00174B40  ___func_bg_game_over_stress_tile   bg_game_over_stress_tilemap_
     00174B40  _bg_game_over_stress_tilemap_att   bg_game_over_stress_tilemap_
     00174CA8  ___func_bg_game_over_stress_tile   bg_game_over_stress_tilemap
     00174CA8  _bg_game_over_stress_tilemap       bg_game_over_stress_tilemap
     00174E10  ___func_bg_intro_tilemap_attr      bg_intro_tilemap_attr
     00174E10  _bg_intro_tilemap_attr             bg_intro_tilemap_attr
     00174F78  ___func_bg_intro_tilemap           bg_intro_tilemap
     00174F78  _bg_intro_tilemap                  bg_intro_tilemap
     001750E0  ___func_bg_locker_inside_tilemap   bg_locker_inside_tilemap_att
     001750E0  _bg_locker_inside_tilemap_attr     bg_locker_inside_tilemap_att
     00175248  ___func_bg_locker_inside_tilemap   bg_locker_inside_tilemap
     00175248  _bg_locker_inside_tilemap          bg_locker_inside_tilemap
     001753B0  ___func_bg_locker_tilemap_attr     bg_locker_tilemap_attr
     001753B0  _bg_locker_tilemap_attr            bg_locker_tilemap_attr
     00175518  ___func_bg_locker_tilemap          bg_locker_tilemap
     00175518  _bg_locker_tilemap                 bg_locker_tilemap
     00175680  ___func_bg_lost_n_found_tilemap_   bg_lost_n_found_tilemap_attr
     00175680  _bg_lost_n_found_tilemap_attr      bg_lost_n_found_tilemap_attr
     001757E8  ___func_bg_lost_n_found_tilemap    bg_lost_n_found_tilemap
     001757E8  _bg_lost_n_found_tilemap           bg_lost_n_found_tilemap
     00175950  ___func_bg_productivity_too_low_   bg_productivity_too_low_tile
     00175950  _bg_productivity_too_low_tilemap   bg_productivity_too_low_tile
     00175AB8  ___func_bg_productivity_too_low_   bg_productivity_too_low_tile
     00175AB8  _bg_productivity_too_low_tilemap   bg_productivity_too_low_tile
     00175C20  ___func_bg_storage_room_tilemap_   bg_storage_room_tilemap_attr
     00175C20  _bg_storage_room_tilemap_attr      bg_storage_room_tilemap_attr
     00175D88  ___func_bg_storage_room_tilemap    bg_storage_room_tilemap
     00175D88  _bg_storage_room_tilemap           bg_storage_room_tilemap
     00175EF0  ___func_bg_stress_too_high_tilem   bg_stress_too_high_tilemap_a
     00175EF0  _bg_stress_too_high_tilemap_attr   bg_stress_too_high_tilemap_a
     00176058  ___func_bg_stress_too_high_tilem   bg_stress_too_high_tilemap
     00176058  _bg_stress_too_high_tilemap        bg_stress_too_high_tilemap
     001761C0  ___func_bg_title_screen_tilemap_   bg_title_screen_tilemap_attr
     001761C0  _bg_title_screen_tilemap_attr      bg_title_screen_tilemap_attr
ASxxxx Linker V03.00/V05.40 + sdld,  page 175.
Hexadecimal  [32-Bits]

Area                                    Addr        Size        Decimal Bytes (Attributes)
--------------------------------        ----        ----        ------- ----- ------------
_CODE_23                            00174000    00003FFF =       16383. bytes (REL,CON)

      Value  Global                              Global Defined In Module
      -----  --------------------------------   ------------------------
     00176328  ___func_bg_title_screen_tilemap    bg_title_screen_tilemap
     00176328  _bg_title_screen_tilemap           bg_title_screen_tilemap
     00176490  ___func_bg_vending_machine_tilem   bg_vending_machine_tilemap_a
     00176490  _bg_vending_machine_tilemap_attr   bg_vending_machine_tilemap_a
     001765F8  ___func_bg_vending_machine_tilem   bg_vending_machine_tilemap
     001765F8  _bg_vending_machine_tilemap        bg_vending_machine_tilemap
     00176760  ___func_scene_12_collisions        scene_12_collisions
     00176760  _scene_12_collisions               scene_12_collisions
     001768C8  ___func_scene_13_collisions        scene_13_collisions
     001768C8  _scene_13_collisions               scene_13_collisions
     00176A30  ___func_scene_16_collisions        scene_16_collisions
     00176A30  _scene_16_collisions               scene_16_collisions
     00176B98  ___func_scene_17_collisions        scene_17_collisions
     00176B98  _scene_17_collisions               scene_17_collisions
     00176D00  ___func_scene_18_collisions        scene_18_collisions
     00176D00  _scene_18_collisions               scene_18_collisions
     00176E68  ___func_scene_19_collisions        scene_19_collisions
     00176E68  _scene_19_collisions               scene_19_collisions
     00176FD0  ___func_scene_2_actors             scene_2_actors
     00176FD0  _scene_2_actors                    scene_2_actors
     0017713C  ___func_scene_20_collisions        scene_20_collisions
     0017713C  _scene_20_collisions               scene_20_collisions
     001772A4  ___func_scene_28_collisions        scene_28_collisions
     001772A4  _scene_28_collisions               scene_28_collisions
     0017740C  ___func_scene_3_actors             scene_3_actors
     0017740C  _scene_3_actors                    scene_3_actors
     00177578  ___func_scene_30_collisions        scene_30_collisions
     00177578  _scene_30_collisions               scene_30_collisions
     001776E0  ___func_scene_31_collisions        scene_31_collisions
     001776E0  _scene_31_collisions               scene_31_collisions
     00177848  ___func_scene_35_collisions        scene_35_collisions
     00177848  _scene_35_collisions               scene_35_collisions
     001779B0  ___func_scene_40_collisions        scene_40_collisions
     001779B0  _scene_40_collisions               scene_40_collisions
     00177B18  _scene_41_init                     scene_41_init
     00177B1B  GBVM$scene_41_init$eeb4648e_9919   scene_41_init
     00177B2A  GBVM$scene_41_init$79601d22_3b1f   scene_41_init
     00177B33  GBVM$scene_41_init$2936c336_2c48   scene_41_init
     00177B43  GBVM$scene_41_init$cdf35681_674f   scene_41_init
     00177B4C  GBVM$scene_41_init$f483f38e_cf53   scene_41_init
     00177B55  GBVM$scene_41_init$1e731144_d48c   scene_41_init
     00177B5E  GBVM$scene_41_init$a6ea55e8_cc77   scene_41_init
     00177B67  GBVM$scene_41_init$aa7b8f50_dd3b   scene_41_init
     00177B70  GBVM$scene_41_init$22251f07_cdd7   scene_41_init
     00177B79  GBVM$scene_41_init$41152069_4696   scene_41_init
     00177B7D  GBVM$scene_41_init$41bed100_d658   scene_41_init
     00177B86  GBVM$scene_41_init$a12b22ba_96b0   scene_41_init
     00177B97  GBVM$scene_41_init$4df9ce33_e0d4   scene_41_init
     00177B9F  GBVM$scene_41_init$05995370_e9cb   scene_41_init
     00177BA7  GBVM$scene_41_init$5b523936_edc6   scene_41_init
     00177BA7  GBVM$scene_41_init$76e9d388_150a   scene_41_init
ASxxxx Linker V03.00/V05.40 + sdld,  page 176.
Hexadecimal  [32-Bits]

Area                                    Addr        Size        Decimal Bytes (Attributes)
--------------------------------        ----        ----        ------- ----- ------------
_CODE_23                            00174000    00003FFF =       16383. bytes (REL,CON)

      Value  Global                              Global Defined In Module
      -----  --------------------------------   ------------------------
     00177BA9  GBVM$scene_41_init$9c02e60c_4330   scene_41_init
     00177BB1  GBVM$scene_41_init$autofade$2b51   scene_41_init
     00177BB1  GBVM_END$scene_41_init$9c02e60c_   scene_41_init
     00177BBD  ___func_scene_44_collisions        scene_44_collisions
     00177BBD  _scene_44_collisions               scene_44_collisions
     00177D25  _script_input_20                   script_input_20
     00177D27  GBVM$script_input_20$16608028_ff   script_input_20
     00177D30  GBVM$script_input_20$5961edc5_ec   script_input_20
     00177D39  GBVM$script_input_20$ce17228f_8a   script_input_20
     00177D6E  GBVM$script_input_20$b32d501a_94   script_input_20
     00177DA0  GBVM_END$script_input_20$5961edc   script_input_20
     00177DA3  GBVM$script_input_20$b9923a6b_2b   script_input_20
     00177DAC  GBVM$script_input_20$ec0ad612_85   script_input_20
     00177DB8  GBVM$script_input_20$70d7beed_fc   script_input_20
     00177DEA  GBVM_END$script_input_20$ec0ad61   script_input_20
     00177DED  GBVM$script_input_20$5dcafca0_75   script_input_20
     00177E1F  GBVM$script_input_20$4d158226_ea   script_input_20
     00177E1F  GBVM_END$script_input_20$b9923a6   script_input_20
     00177E28  GBVM$script_input_20$b0cbbbde_1c   script_input_20
     00177E5D  GBVM$script_input_20$325b39cc_68   script_input_20
     00177E8F  GBVM_END$script_input_20$1660802   script_input_20
     00177E8F  GBVM_END$script_input_20$4d15822   script_input_20
     00177E90  ___func_sprite_items               sprite_items
     00177E90  _sprite_items_metasprite_0         sprite_items
     00177E94  _sprite_items_metasprite_1         sprite_items
     00177EA0  _sprite_items_metasprite_2         sprite_items
     00177EAC  _sprite_items_metasprite_3         sprite_items
     00177EB8  _sprite_items_metasprite_4         sprite_items
     00177EC4  _sprite_items_metasprite_5         sprite_items
     00177ED0  _sprite_items_metasprite_6         sprite_items
     00177EDC  _sprite_items_metasprite_7         sprite_items
     00177EEC  _sprite_items_metasprite_8         sprite_items
     00177EF8  _sprite_items_metasprite_9         sprite_items
     00177F04  _sprite_items_metasprites          sprite_items
     00177F18  _sprite_items_animations           sprite_items
     00177FB8  _sprite_items_animations_lookup    sprite_items
     00177FEC  _sprite_items                      sprite_items
ASxxxx Linker V03.00/V05.40 + sdld,  page 177.
Hexadecimal  [32-Bits]

Area                                    Addr        Size        Decimal Bytes (Attributes)
--------------------------------        ----        ----        ------- ----- ------------
_CODE_13                            000D4000    00004000 =       16384. bytes (REL,CON)

      Value  Global                              Global Defined In Module
      -----  --------------------------------   ------------------------
     000D4000  ___func_bg_break_start_tileset     bg_break_start_tileset
     000D4000  _bg_break_start_tileset            bg_break_start_tileset
     000D4802  ___func_bg_breakroom_b_tileset     bg_breakroom_b_tileset
     000D4802  _bg_breakroom_b_tileset            bg_breakroom_b_tileset
     000D5004  ___func_bg_breakroom_tileset       bg_breakroom_tileset
     000D5004  _bg_breakroom_tileset              bg_breakroom_tileset
     000D5806  ___func_bg_choice_b_tileset        bg_choice_b_tileset
     000D5806  _bg_choice_b_tileset               bg_choice_b_tileset
     000D6008  ___func_bg_choice_tileset          bg_choice_tileset
     000D6008  _bg_choice_tileset                 bg_choice_tileset
     000D680A  ___func_bg_cubicle_tileset         bg_cubicle_tileset
     000D680A  _bg_cubicle_tileset                bg_cubicle_tileset
     000D700C  ___func_bg_final_boss_tileset      bg_final_boss_tileset
     000D700C  _bg_final_boss_tileset             bg_final_boss_tileset
     000D780E  ___func_bg_locker_inside_tileset   bg_locker_inside_tileset
     000D780E  _bg_locker_inside_tileset          bg_locker_inside_tileset

ASxxxx Linker V03.00/V05.40 + sdld,  page 178.
Hexadecimal  [32-Bits]

Area                                    Addr        Size        Decimal Bytes (Attributes)
--------------------------------        ----        ----        ------- ----- ------------
_CODE_4                             00044000    00003FFF =       16383. bytes (REL,CON)

      Value  Global                              Global Defined In Module
      -----  --------------------------------   ------------------------
     00044000  ___func_bg_choice_b_tilemap_attr   bg_choice_b_tilemap_attr
     00044000  _bg_choice_b_tilemap_attr          bg_choice_b_tilemap_attr
     00044ACD  ___func_sound_game_over_wav        sound_game_over_wav
     00044ACD  _sound_game_over_wav               sound_game_over_wav
     00047F8B  _trigger_3_interact                trigger_3_interact
     00047F8E  GBVM$trigger_3_interact$eb705062   trigger_3_interact
     00047F97  GBVM$trigger_3_interact$b6ef5e3c   trigger_3_interact
     00047FCC  GBVM$trigger_3_interact$36cbacf7   trigger_3_interact
     00047FFE  GBVM_END$trigger_3_interact$eb70   trigger_3_interact
ASxxxx Linker V03.00/V05.40 + sdld,  page 179.
Hexadecimal  [32-Bits]

Area                                    Addr        Size        Decimal Bytes (Attributes)
--------------------------------        ----        ----        ------- ----- ------------
_CODE_11                            000B4000    00004000 =       16384. bytes (REL,CON)

      Value  Global                              Global Defined In Module
      -----  --------------------------------   ------------------------
     000B4000  ___func_bg_cubicle_b_cgb_tileset   bg_cubicle_b_cgb_tileset
     000B4000  _bg_cubicle_b_cgb_tileset          bg_cubicle_b_cgb_tileset
     000B4872  ___func_bg_final_boss_tilemap_at   bg_final_boss_tilemap_attr
     000B4872  _bg_final_boss_tilemap_attr        bg_final_boss_tilemap_attr
     000B5252  ___func_bg_final_boss_tilemap      bg_final_boss_tilemap
     000B5252  _bg_final_boss_tilemap             bg_final_boss_tilemap
     000B5C32  ___func_bg_storage_room_tileset    bg_storage_room_tileset
     000B5C32  _bg_storage_room_tileset           bg_storage_room_tileset
     000B6264  ___func_bg_tunnel_cgb_tileset      bg_tunnel_cgb_tileset
     000B6264  _bg_tunnel_cgb_tileset             bg_tunnel_cgb_tileset
     000B6C36  ___func_scene_41_collisions        scene_41_collisions
     000B6C36  _scene_41_collisions               scene_41_collisions
     000B7616  ___func_scene_42_collisions        scene_42_collisions
     000B7616  _scene_42_collisions               scene_42_collisions
     000B7FF6  _trigger_11_interact               trigger_11_interact
     000B7FF7  GBVM$trigger_11_interact$a250f36   trigger_11_interact
     000B7FFF  GBVM_END$trigger_11_interact$a25   trigger_11_interact

ASxxxx Linker V03.00/V05.40 + sdld,  page 180.
Hexadecimal  [32-Bits]

Area                                    Addr        Size        Decimal Bytes (Attributes)
--------------------------------        ----        ----        ------- ----- ------------
_CODE_6                             00064000    00003FFF =       16383. bytes (REL,CON)

      Value  Global                              Global Defined In Module
      -----  --------------------------------   ------------------------
     00064000  ___func_bg_locker_inside_tiles     bg_locker_inside_tiles
     00064000  _bg_locker_inside_tiles            bg_locker_inside_tiles
     00066E71  _song_bs_cyb_new_hero_faster_Dat   song_bs_cyb_new_hero_faster_
     00067FA5  _song_bz_cozy_midnight_study_Dat   song_bz_cozy_midnight_study_
     00067FBA  _script_input_39                   script_input_39
     00067FBC  GBVM$script_input_39$e8566ba4_56   script_input_39
     00067FC7  GBVM$script_input_39$235fe0a0_a5   script_input_39
     00067FD9  GBVM$script_input_39$000ec091_61   script_input_39
     00067FEB  GBVM$script_input_39$ec490a7d_49   script_input_39
     00067FF3  GBVM$script_input_39$d8d1f5cb_3a   script_input_39
     00067FFE  GBVM_END$script_input_39$000ec09   script_input_39

ASxxxx Linker V03.00/V05.40 + sdld,  page 181.
Hexadecimal  [32-Bits]

Area                                    Addr        Size        Decimal Bytes (Attributes)
--------------------------------        ----        ----        ------- ----- ------------
_HEADER_LCD0                        00000000    00000003 =           3. bytes (ABS,CON)

      Value  Global                              Global Defined In Module
      -----  --------------------------------   ------------------------
ASxxxx Linker V03.00/V05.40 + sdld,  page 182.

Files Linked                              [ module(s) ]

C:\Users\Shawn\AppData\Local\Temp/_gbstools/gbdk/lib/gb/crt0.o
                                          [ Runtime ]
C:/Users/Shawn/AppData/Local/Temp/_gbsbuild/obj/absolute.rel
                                          [ absolute ]
C:/Users/Shawn/AppData/Local/Temp/_gbsbuild/obj/actor.rel
                                          [ actor ]
C:/Users/Shawn/AppData/Local/Temp/_gbsbuild/obj/bankdata.rel
                                          [ bankdata ]
C:/Users/Shawn/AppData/Local/Temp/_gbsbuild/obj/bootstrap.rel
                                          [  ]
C:/Users/Shawn/AppData/Local/Temp/_gbsbuild/obj/camera.rel
                                          [ camera ]
C:/Users/Shawn/AppData/Local/Temp/_gbsbuild/obj/core.rel
                                          [ core ]
C:/Users/Shawn/AppData/Local/Temp/_gbsbuild/obj/crash_handler.rel
                                          [  ]
C:/Users/Shawn/AppData/Local/Temp/_gbsbuild/obj/data_manager.rel
                                          [ data_manager ]
C:/Users/Shawn/AppData/Local/Temp/_gbsbuild/obj/events.rel
                                          [ events ]
C:/Users/Shawn/AppData/Local/Temp/_gbsbuild/obj/fade_manager.rel
                                          [ fade_manager ]
C:/Users/Shawn/AppData/Local/Temp/_gbsbuild/obj/flasher_s.rel
                                          [  ]
C:/Users/Shawn/AppData/Local/Temp/_gbsbuild/obj/flasher.rel
                                          [ flasher ]
C:/Users/Shawn/AppData/Local/Temp/_gbsbuild/obj/game_time.rel
                                          [ game_time ]
C:/Users/Shawn/AppData/Local/Temp/_gbsbuild/obj/gbprinter.rel
                                          [ gbprinter ]
C:/Users/Shawn/AppData/Local/Temp/_gbsbuild/obj/input.rel
                                          [ input ]
C:/Users/Shawn/AppData/Local/Temp/_gbsbuild/obj/interrupt_sio.rel
                                          [  ]
C:/Users/Shawn/AppData/Local/Temp/_gbsbuild/obj/interrupt_timer.rel
                                          [  ]
C:/Users/Shawn/AppData/Local/Temp/_gbsbuild/obj/interrupts.rel
                                          [ interrupts ]
C:/Users/Shawn/AppData/Local/Temp/_gbsbuild/obj/load_save.rel
                                          [ load_save ]
C:/Users/Shawn/AppData/Local/Temp/_gbsbuild/obj/math_atan2.rel
                                          [ math_atan2 ]
C:/Users/Shawn/AppData/Local/Temp/_gbsbuild/obj/math.rel
                                          [ math ]
C:/Users/Shawn/AppData/Local/Temp/_gbsbuild/obj/music_manager.rel
                                          [ music_manager ]
C:/Users/Shawn/AppData/Local/Temp/_gbsbuild/obj/palette.rel
                                          [ palette ]
C:/Users/Shawn/AppData/Local/Temp/_gbsbuild/obj/parallax.rel
                                          [ parallax ]
C:/Users/Shawn/AppData/Local/Temp/_gbsbuild/obj/projectiles.rel
                                          [ projectiles ]
C:/Users/Shawn/AppData/Local/Temp/_gbsbuild/obj/scroll_a.rel
                                          [  ]
C:/Users/Shawn/AppData/Local/Temp/_gbsbuild/obj/scroll.rel
                                          [ scroll ]
C:/Users/Shawn/AppData/Local/Temp/_gbsbuild/obj/set_tile_submap.rel
                                          [  ]
C:/Users/Shawn/AppData/Local/Temp/_gbsbuild/obj/sfx_player.rel
                                          [ sfx_player ]
C:/Users/Shawn/AppData/Local/Temp/_gbsbuild/obj/sgb_border.rel
                                          [ sgb_border ]
C:/Users/Shawn/AppData/Local/Temp/_gbsbuild/obj/sio.rel
                                          [ sio ]
C:/Users/Shawn/AppData/Local/Temp/_gbsbuild/obj/states_caller.rel
                                          [  ]
C:/Users/Shawn/AppData/Local/Temp/_gbsbuild/obj/system.rel
                                          [ system ]
C:/Users/Shawn/AppData/Local/Temp/_gbsbuild/obj/trigger.rel
                                          [ trigger ]
C:/Users/Shawn/AppData/Local/Temp/_gbsbuild/obj/ui_a.rel
                                          [  ]
C:/Users/Shawn/AppData/Local/Temp/_gbsbuild/obj/ui.rel
                                          [ ui ]
C:/Users/Shawn/AppData/Local/Temp/_gbsbuild/obj/vm_actor.rel
                                          [ vm_actor ]
C:/Users/Shawn/AppData/Local/Temp/_gbsbuild/obj/vm_camera.rel
                                          [ vm_camera ]
C:/Users/Shawn/AppData/Local/Temp/_gbsbuild/obj/vm_gameboy.rel
                                          [ vm_gameboy ]
C:/Users/Shawn/AppData/Local/Temp/_gbsbuild/obj/vm_gbprinter.rel
                                          [ vm_gbprinter ]
C:/Users/Shawn/AppData/Local/Temp/_gbsbuild/obj/vm_instructions.rel
                                          [ vm_instructions ]
C:/Users/Shawn/AppData/Local/Temp/_gbsbuild/obj/vm_load_save.rel
                                          [ vm_load_save ]
C:/Users/Shawn/AppData/Local/Temp/_gbsbuild/obj/vm_math.rel
                                          [ vm_math ]
C:/Users/Shawn/AppData/Local/Temp/_gbsbuild/obj/vm_music.rel
                                          [ vm_music ]
C:/Users/Shawn/AppData/Local/Temp/_gbsbuild/obj/vm_palette.rel
                                          [ vm_palette ]
C:/Users/Shawn/AppData/Local/Temp/_gbsbuild/obj/vm_projectiles.rel
                                          [ vm_projectiles ]
C:/Users/Shawn/AppData/Local/Temp/_gbsbuild/obj/vm_rtc.rel
                                          [ vm_rtc ]
C:/Users/Shawn/AppData/Local/Temp/_gbsbuild/obj/vm_scene.rel
                                          [ vm_scene ]
C:/Users/Shawn/AppData/Local/Temp/_gbsbuild/obj/vm_sgb.rel
                                          [ vm_sgb ]
C:/Users/Shawn/AppData/Local/Temp/_gbsbuild/obj/vm_sio.rel
                                          [ vm_sio ]
C:/Users/Shawn/AppData/Local/Temp/_gbsbuild/obj/vm_ui_a.rel
                                          [ vm_ui_a ]
C:/Users/Shawn/AppData/Local/Temp/_gbsbuild/obj/vm_ui.rel
                                          [ vm_ui ]
C:/Users/Shawn/AppData/Local/Temp/_gbsbuild/obj/vm.rel
                                          [ vm ]
C:/Users/Shawn/AppData/Local/Temp/_gbsbuild/obj/actor_0_update.rel
                                          [ actor_0_update ]
C:/Users/Shawn/AppData/Local/Temp/_gbsbuild/obj/actor_10_update.rel
                                          [ actor_10_update ]
C:/Users/Shawn/AppData/Local/Temp/_gbsbuild/obj/actor_106_update.rel
                                          [ actor_106_update ]
C:/Users/Shawn/AppData/Local/Temp/_gbsbuild/obj/actor_107_update.rel
                                          [ actor_107_update ]
C:/Users/Shawn/AppData/Local/Temp/_gbsbuild/obj/actor_11_update.rel
                                          [ actor_11_update ]
C:/Users/Shawn/AppData/Local/Temp/_gbsbuild/obj/actor_117_interact.rel
                                          [ actor_117_interact ]
C:/Users/Shawn/AppData/Local/Temp/_gbsbuild/obj/actor_17_update.rel
                                          [ actor_17_update ]
C:/Users/Shawn/AppData/Local/Temp/_gbsbuild/obj/actor_19_update.rel
                                          [ actor_19_update ]
C:/Users/Shawn/AppData/Local/Temp/_gbsbuild/obj/actor_2_update.rel
                                          [ actor_2_update ]
C:/Users/Shawn/AppData/Local/Temp/_gbsbuild/obj/actor_3_interact.rel
                                          [ actor_3_interact ]
C:/Users/Shawn/AppData/Local/Temp/_gbsbuild/obj/actor_3_update.rel
                                          [ actor_3_update ]
C:/Users/Shawn/AppData/Local/Temp/_gbsbuild/obj/actor_35_update.rel
                                          [ actor_35_update ]
C:/Users/Shawn/AppData/Local/Temp/_gbsbuild/obj/actor_36_update.rel
                                          [ actor_36_update ]
C:/Users/Shawn/AppData/Local/Temp/_gbsbuild/obj/actor_37_update.rel
                                          [ actor_37_update ]
C:/Users/Shawn/AppData/Local/Temp/_gbsbuild/obj/actor_4_update.rel
                                          [ actor_4_update ]
C:/Users/Shawn/AppData/Local/Temp/_gbsbuild/obj/actor_5_update.rel
                                          [ actor_5_update ]
C:/Users/Shawn/AppData/Local/Temp/_gbsbuild/obj/actor_56_update.rel
                                          [ actor_56_update ]
C:/Users/Shawn/AppData/Local/Temp/_gbsbuild/obj/actor_6_update.rel
                                          [ actor_6_update ]
C:/Users/Shawn/AppData/Local/Temp/_gbsbuild/obj/actor_68_update.rel
                                          [ actor_68_update ]
C:/Users/Shawn/AppData/Local/Temp/_gbsbuild/obj/actor_69_update.rel
                                          [ actor_69_update ]
C:/Users/Shawn/AppData/Local/Temp/_gbsbuild/obj/actor_70_update.rel
                                          [ actor_70_update ]
C:/Users/Shawn/AppData/Local/Temp/_gbsbuild/obj/actor_71_update.rel
                                          [ actor_71_update ]
C:/Users/Shawn/AppData/Local/Temp/_gbsbuild/obj/actor_72_update.rel
                                          [ actor_72_update ]
C:/Users/Shawn/AppData/Local/Temp/_gbsbuild/obj/actor_73_update.rel
                                          [ actor_73_update ]
C:/Users/Shawn/AppData/Local/Temp/_gbsbuild/obj/actor_74_update.rel
                                          [ actor_74_update ]
C:/Users/Shawn/AppData/Local/Temp/_gbsbuild/obj/actor_75_update.rel
                                          [ actor_75_update ]
C:/Users/Shawn/AppData/Local/Temp/_gbsbuild/obj/actor_76_update.rel
                                          [ actor_76_update ]
C:/Users/Shawn/AppData/Local/Temp/_gbsbuild/obj/actor_77_update.rel
                                          [ actor_77_update ]
C:/Users/Shawn/AppData/Local/Temp/_gbsbuild/obj/actor_78_update.rel
                                          [ actor_78_update ]
C:/Users/Shawn/AppData/Local/Temp/_gbsbuild/obj/actor_79_update.rel
                                          [ actor_79_update ]
C:/Users/Shawn/AppData/Local/Temp/_gbsbuild/obj/actor_82_update.rel
                                          [ actor_82_update ]
C:/Users/Shawn/AppData/Local/Temp/_gbsbuild/obj/actor_83_update.rel
                                          [ actor_83_update ]
C:/Users/Shawn/AppData/Local/Temp/_gbsbuild/obj/actor_84_update.rel
                                          [ actor_84_update ]
C:/Users/Shawn/AppData/Local/Temp/_gbsbuild/obj/actor_85_update.rel
                                          [ actor_85_update ]
C:/Users/Shawn/AppData/Local/Temp/_gbsbuild/obj/actor_86_update.rel
                                          [ actor_86_update ]
C:/Users/Shawn/AppData/Local/Temp/_gbsbuild/obj/actor_87_update.rel
                                          [ actor_87_update ]
C:/Users/Shawn/AppData/Local/Temp/_gbsbuild/obj/actor_88_update.rel
                                          [ actor_88_update ]
C:/Users/Shawn/AppData/Local/Temp/_gbsbuild/obj/actor_92_interact.rel
                                          [ actor_92_interact ]
C:/Users/Shawn/AppData/Local/Temp/_gbsbuild/obj/actor_93_interact.rel
                                          [ actor_93_interact ]
C:/Users/Shawn/AppData/Local/Temp/_gbsbuild/obj/actor_99_update.rel
                                          [ actor_99_update ]
C:/Users/Shawn/AppData/Local/Temp/_gbsbuild/obj/avatar_font_0.rel
                                          [ avatar_font_0 ]
C:/Users/Shawn/AppData/Local/Temp/_gbsbuild/obj/bg_bathroom_b_cgb_tileset.rel
                                          [ bg_bathroom_b_cgb_tileset ]
C:/Users/Shawn/AppData/Local/Temp/_gbsbuild/obj/bg_bathroom_b_tilemap_attr.rel
                                          [ bg_bathroom_b_tilemap_attr ]
C:/Users/Shawn/AppData/Local/Temp/_gbsbuild/obj/bg_bathroom_b_tilemap.rel
                                          [ bg_bathroom_b_tilemap ]
C:/Users/Shawn/AppData/Local/Temp/_gbsbuild/obj/bg_bathroom_b_tileset.rel
                                          [ bg_bathroom_b_tileset ]
C:/Users/Shawn/AppData/Local/Temp/_gbsbuild/obj/bg_bathroom_b.rel
                                          [ bg_bathroom_b ]
C:/Users/Shawn/AppData/Local/Temp/_gbsbuild/obj/bg_bathroom_cgb_tileset.rel
                                          [ bg_bathroom_cgb_tileset ]
C:/Users/Shawn/AppData/Local/Temp/_gbsbuild/obj/bg_bathroom_tilemap_attr.rel
                                          [ bg_bathroom_tilemap_attr ]
C:/Users/Shawn/AppData/Local/Temp/_gbsbuild/obj/bg_bathroom_tilemap.rel
                                          [ bg_bathroom_tilemap ]
C:/Users/Shawn/AppData/Local/Temp/_gbsbuild/obj/bg_bathroom_tileset.rel
                                          [ bg_bathroom_tileset ]
C:/Users/Shawn/AppData/Local/Temp/_gbsbuild/obj/bg_bathroom.rel
                                          [ bg_bathroom ]
C:/Users/Shawn/AppData/Local/Temp/_gbsbuild/obj/bg_boss_hallway_tilemap_attr.rel
                                          [ bg_boss_hallway_tilemap_attr ]
C:/Users/Shawn/AppData/Local/Temp/_gbsbuild/obj/bg_boss_hallway_tilemap.rel
                                          [ bg_boss_hallway_tilemap ]
C:/Users/Shawn/AppData/Local/Temp/_gbsbuild/obj/bg_boss_hallway_tileset.rel
                                          [ bg_boss_hallway_tileset ]
C:/Users/Shawn/AppData/Local/Temp/_gbsbuild/obj/bg_boss_hallway.rel
                                          [ bg_boss_hallway ]
C:/Users/Shawn/AppData/Local/Temp/_gbsbuild/obj/bg_boss_office_b_cgb_tileset.rel
                                          [ bg_boss_office_b_cgb_tileset ]
C:/Users/Shawn/AppData/Local/Temp/_gbsbuild/obj/bg_boss_office_b_tilemap_attr.rel
                                          [ bg_boss_office_b_tilemap_attr ]
C:/Users/Shawn/AppData/Local/Temp/_gbsbuild/obj/bg_boss_office_b_tilemap.rel
                                          [ bg_boss_office_b_tilemap ]
C:/Users/Shawn/AppData/Local/Temp/_gbsbuild/obj/bg_boss_office_b_tileset.rel
                                          [ bg_boss_office_b_tileset ]
C:/Users/Shawn/AppData/Local/Temp/_gbsbuild/obj/bg_boss_office_b.rel
                                          [ bg_boss_office_b ]
C:/Users/Shawn/AppData/Local/Temp/_gbsbuild/obj/bg_boss_office_c_cgb_tileset.rel
                                          [ bg_boss_office_c_cgb_tileset ]
C:/Users/Shawn/AppData/Local/Temp/_gbsbuild/obj/bg_boss_office_c_tilemap_attr.rel
                                          [ bg_boss_office_c_tilemap_attr ]
C:/Users/Shawn/AppData/Local/Temp/_gbsbuild/obj/bg_boss_office_c_tilemap.rel
                                          [ bg_boss_office_c_tilemap ]
C:/Users/Shawn/AppData/Local/Temp/_gbsbuild/obj/bg_boss_office_c_tileset.rel
                                          [ bg_boss_office_c_tileset ]
C:/Users/Shawn/AppData/Local/Temp/_gbsbuild/obj/bg_boss_office_c.rel
                                          [ bg_boss_office_c ]
C:/Users/Shawn/AppData/Local/Temp/_gbsbuild/obj/bg_boss_office_cgb_tileset.rel
                                          [ bg_boss_office_cgb_tileset ]
C:/Users/Shawn/AppData/Local/Temp/_gbsbuild/obj/bg_boss_office_tilemap_attr.rel
                                          [ bg_boss_office_tilemap_attr ]
C:/Users/Shawn/AppData/Local/Temp/_gbsbuild/obj/bg_boss_office_tilemap.rel
                                          [ bg_boss_office_tilemap ]
C:/Users/Shawn/AppData/Local/Temp/_gbsbuild/obj/bg_boss_office_tileset.rel
                                          [ bg_boss_office_tileset ]
C:/Users/Shawn/AppData/Local/Temp/_gbsbuild/obj/bg_boss_office.rel
                                          [ bg_boss_office ]
C:/Users/Shawn/AppData/Local/Temp/_gbsbuild/obj/bg_boss_warning_tilemap_attr.rel
                                          [ bg_boss_warning_tilemap_attr ]
C:/Users/Shawn/AppData/Local/Temp/_gbsbuild/obj/bg_boss_warning_tilemap.rel
                                          [ bg_boss_warning_tilemap ]
C:/Users/Shawn/AppData/Local/Temp/_gbsbuild/obj/bg_boss_warning_tileset.rel
                                          [ bg_boss_warning_tileset ]
C:/Users/Shawn/AppData/Local/Temp/_gbsbuild/obj/bg_boss_warning.rel
                                          [ bg_boss_warning ]
C:/Users/Shawn/AppData/Local/Temp/_gbsbuild/obj/bg_break_start_cgb_tileset.rel
                                          [ bg_break_start_cgb_tileset ]
C:/Users/Shawn/AppData/Local/Temp/_gbsbuild/obj/bg_break_start_tilemap_attr.rel
                                          [ bg_break_start_tilemap_attr ]
C:/Users/Shawn/AppData/Local/Temp/_gbsbuild/obj/bg_break_start_tilemap.rel
                                          [ bg_break_start_tilemap ]
C:/Users/Shawn/AppData/Local/Temp/_gbsbuild/obj/bg_break_start_tileset.rel
                                          [ bg_break_start_tileset ]
C:/Users/Shawn/AppData/Local/Temp/_gbsbuild/obj/bg_break_start.rel
                                          [ bg_break_start ]
C:/Users/Shawn/AppData/Local/Temp/_gbsbuild/obj/bg_breakroom_b_cgb_tileset.rel
                                          [ bg_breakroom_b_cgb_tileset ]
C:/Users/Shawn/AppData/Local/Temp/_gbsbuild/obj/bg_breakroom_b_tilemap_attr.rel
                                          [ bg_breakroom_b_tilemap_attr ]
C:/Users/Shawn/AppData/Local/Temp/_gbsbuild/obj/bg_breakroom_b_tilemap.rel
                                          [ bg_breakroom_b_tilemap ]
C:/Users/Shawn/AppData/Local/Temp/_gbsbuild/obj/bg_breakroom_b_tileset.rel
                                          [ bg_breakroom_b_tileset ]
C:/Users/Shawn/AppData/Local/Temp/_gbsbuild/obj/bg_breakroom_b.rel
                                          [ bg_breakroom_b ]
C:/Users/Shawn/AppData/Local/Temp/_gbsbuild/obj/bg_breakroom_cgb_tileset.rel
                                          [ bg_breakroom_cgb_tileset ]
C:/Users/Shawn/AppData/Local/Temp/_gbsbuild/obj/bg_breakroom_tilemap_attr.rel
                                          [ bg_breakroom_tilemap_attr ]
C:/Users/Shawn/AppData/Local/Temp/_gbsbuild/obj/bg_breakroom_tilemap.rel
                                          [ bg_breakroom_tilemap ]
C:/Users/Shawn/AppData/Local/Temp/_gbsbuild/obj/bg_breakroom_tileset.rel
                                          [ bg_breakroom_tileset ]
C:/Users/Shawn/AppData/Local/Temp/_gbsbuild/obj/bg_breakroom.rel
                                          [ bg_breakroom ]
C:/Users/Shawn/AppData/Local/Temp/_gbsbuild/obj/bg_caught_tilemap_attr.rel
                                          [ bg_caught_tilemap_attr ]
C:/Users/Shawn/AppData/Local/Temp/_gbsbuild/obj/bg_caught_tilemap.rel
                                          [ bg_caught_tilemap ]
C:/Users/Shawn/AppData/Local/Temp/_gbsbuild/obj/bg_caught_tileset.rel
                                          [ bg_caught_tileset ]
C:/Users/Shawn/AppData/Local/Temp/_gbsbuild/obj/bg_caught.rel
                                          [ bg_caught ]
C:/Users/Shawn/AppData/Local/Temp/_gbsbuild/obj/bg_choice_b_cgb_tileset.rel
                                          [ bg_choice_b_cgb_tileset ]
C:/Users/Shawn/AppData/Local/Temp/_gbsbuild/obj/bg_choice_b_tilemap_attr.rel
                                          [ bg_choice_b_tilemap_attr ]
C:/Users/Shawn/AppData/Local/Temp/_gbsbuild/obj/bg_choice_b_tilemap.rel
                                          [ bg_choice_b_tilemap ]
C:/Users/Shawn/AppData/Local/Temp/_gbsbuild/obj/bg_choice_b_tileset.rel
                                          [ bg_choice_b_tileset ]
C:/Users/Shawn/AppData/Local/Temp/_gbsbuild/obj/bg_choice_b.rel
                                          [ bg_choice_b ]
C:/Users/Shawn/AppData/Local/Temp/_gbsbuild/obj/bg_choice_cgb_tileset.rel
                                          [ bg_choice_cgb_tileset ]
C:/Users/Shawn/AppData/Local/Temp/_gbsbuild/obj/bg_choice_tilemap_attr.rel
                                          [ bg_choice_tilemap_attr ]
C:/Users/Shawn/AppData/Local/Temp/_gbsbuild/obj/bg_choice_tilemap.rel
                                          [ bg_choice_tilemap ]
C:/Users/Shawn/AppData/Local/Temp/_gbsbuild/obj/bg_choice_tileset.rel
                                          [ bg_choice_tileset ]
C:/Users/Shawn/AppData/Local/Temp/_gbsbuild/obj/bg_choice.rel
                                          [ bg_choice ]
C:/Users/Shawn/AppData/Local/Temp/_gbsbuild/obj/bg_cubicle_b_cgb_tileset.rel
                                          [ bg_cubicle_b_cgb_tileset ]
C:/Users/Shawn/AppData/Local/Temp/_gbsbuild/obj/bg_cubicle_b_tilemap_attr.rel
                                          [ bg_cubicle_b_tilemap_attr ]
C:/Users/Shawn/AppData/Local/Temp/_gbsbuild/obj/bg_cubicle_b_tilemap.rel
                                          [ bg_cubicle_b_tilemap ]
C:/Users/Shawn/AppData/Local/Temp/_gbsbuild/obj/bg_cubicle_b_tileset.rel
                                          [ bg_cubicle_b_tileset ]
C:/Users/Shawn/AppData/Local/Temp/_gbsbuild/obj/bg_cubicle_b.rel
                                          [ bg_cubicle_b ]
C:/Users/Shawn/AppData/Local/Temp/_gbsbuild/obj/bg_cubicle_c_cgb_tileset.rel
                                          [ bg_cubicle_c_cgb_tileset ]
C:/Users/Shawn/AppData/Local/Temp/_gbsbuild/obj/bg_cubicle_c_tilemap_attr.rel
                                          [ bg_cubicle_c_tilemap_attr ]
C:/Users/Shawn/AppData/Local/Temp/_gbsbuild/obj/bg_cubicle_c_tilemap.rel
                                          [ bg_cubicle_c_tilemap ]
C:/Users/Shawn/AppData/Local/Temp/_gbsbuild/obj/bg_cubicle_c_tileset.rel
                                          [ bg_cubicle_c_tileset ]
C:/Users/Shawn/AppData/Local/Temp/_gbsbuild/obj/bg_cubicle_c.rel
                                          [ bg_cubicle_c ]
C:/Users/Shawn/AppData/Local/Temp/_gbsbuild/obj/bg_cubicle_cgb_tileset.rel
                                          [ bg_cubicle_cgb_tileset ]
C:/Users/Shawn/AppData/Local/Temp/_gbsbuild/obj/bg_cubicle_tilemap_attr.rel
                                          [ bg_cubicle_tilemap_attr ]
C:/Users/Shawn/AppData/Local/Temp/_gbsbuild/obj/bg_cubicle_tilemap.rel
                                          [ bg_cubicle_tilemap ]
C:/Users/Shawn/AppData/Local/Temp/_gbsbuild/obj/bg_cubicle_tileset.rel
                                          [ bg_cubicle_tileset ]
C:/Users/Shawn/AppData/Local/Temp/_gbsbuild/obj/bg_cubicle.rel
                                          [ bg_cubicle ]
C:/Users/Shawn/AppData/Local/Temp/_gbsbuild/obj/bg_final_boss_b_tilemap_attr.rel
                                          [ bg_final_boss_b_tilemap_attr ]
C:/Users/Shawn/AppData/Local/Temp/_gbsbuild/obj/bg_final_boss_b_tilemap.rel
                                          [ bg_final_boss_b_tilemap ]
C:/Users/Shawn/AppData/Local/Temp/_gbsbuild/obj/bg_final_boss_b_tileset.rel
                                          [ bg_final_boss_b_tileset ]
C:/Users/Shawn/AppData/Local/Temp/_gbsbuild/obj/bg_final_boss_b.rel
                                          [ bg_final_boss_b ]
C:/Users/Shawn/AppData/Local/Temp/_gbsbuild/obj/bg_final_boss_cgb_tileset.rel
                                          [ bg_final_boss_cgb_tileset ]
C:/Users/Shawn/AppData/Local/Temp/_gbsbuild/obj/bg_final_boss_tilemap_attr.rel
                                          [ bg_final_boss_tilemap_attr ]
C:/Users/Shawn/AppData/Local/Temp/_gbsbuild/obj/bg_final_boss_tilemap.rel
                                          [ bg_final_boss_tilemap ]
C:/Users/Shawn/AppData/Local/Temp/_gbsbuild/obj/bg_final_boss_tileset.rel
                                          [ bg_final_boss_tileset ]
C:/Users/Shawn/AppData/Local/Temp/_gbsbuild/obj/bg_final_boss.rel
                                          [ bg_final_boss ]
C:/Users/Shawn/AppData/Local/Temp/_gbsbuild/obj/bg_final_escape_1_tilemap_attr.rel
                                          [ bg_final_escape_1_tilemap_attr ]
C:/Users/Shawn/AppData/Local/Temp/_gbsbuild/obj/bg_final_escape_1_tilemap.rel
                                          [ bg_final_escape_1_tilemap ]
C:/Users/Shawn/AppData/Local/Temp/_gbsbuild/obj/bg_final_escape_1_tileset.rel
                                          [ bg_final_escape_1_tileset ]
C:/Users/Shawn/AppData/Local/Temp/_gbsbuild/obj/bg_final_escape_1.rel
                                          [ bg_final_escape_1 ]
C:/Users/Shawn/AppData/Local/Temp/_gbsbuild/obj/bg_final_escape_2_cgb_tileset.rel
                                          [ bg_final_escape_2_cgb_tileset ]
C:/Users/Shawn/AppData/Local/Temp/_gbsbuild/obj/bg_final_escape_2_tilemap_attr.rel
                                          [ bg_final_escape_2_tilemap_attr ]
C:/Users/Shawn/AppData/Local/Temp/_gbsbuild/obj/bg_final_escape_2_tilemap.rel
                                          [ bg_final_escape_2_tilemap ]
C:/Users/Shawn/AppData/Local/Temp/_gbsbuild/obj/bg_final_escape_2_tileset.rel
                                          [ bg_final_escape_2_tileset ]
C:/Users/Shawn/AppData/Local/Temp/_gbsbuild/obj/bg_final_escape_2.rel
                                          [ bg_final_escape_2 ]
C:/Users/Shawn/AppData/Local/Temp/_gbsbuild/obj/bg_game_over_productivity_tilemap_attr.rel
                                          [ bg_game_over_productivity_tilema ]
C:/Users/Shawn/AppData/Local/Temp/_gbsbuild/obj/bg_game_over_productivity_tilemap.rel
                                          [ bg_game_over_productivity_tilema ]
C:/Users/Shawn/AppData/Local/Temp/_gbsbuild/obj/bg_game_over_productivity_tileset.rel
                                          [ bg_game_over_productivity_tilese ]
C:/Users/Shawn/AppData/Local/Temp/_gbsbuild/obj/bg_game_over_productivity.rel
                                          [ bg_game_over_productivity ]
C:/Users/Shawn/AppData/Local/Temp/_gbsbuild/obj/bg_game_over_stress_tilemap_attr.rel
                                          [ bg_game_over_stress_tilemap_attr ]
C:/Users/Shawn/AppData/Local/Temp/_gbsbuild/obj/bg_game_over_stress_tilemap.rel
                                          [ bg_game_over_stress_tilemap ]
C:/Users/Shawn/AppData/Local/Temp/_gbsbuild/obj/bg_game_over_stress_tileset.rel
                                          [ bg_game_over_stress_tileset ]
C:/Users/Shawn/AppData/Local/Temp/_gbsbuild/obj/bg_game_over_stress.rel
                                          [ bg_game_over_stress ]
C:/Users/Shawn/AppData/Local/Temp/_gbsbuild/obj/bg_hallway_b_tilemap_attr.rel
                                          [ bg_hallway_b_tilemap_attr ]
C:/Users/Shawn/AppData/Local/Temp/_gbsbuild/obj/bg_hallway_b_tilemap.rel
                                          [ bg_hallway_b_tilemap ]
C:/Users/Shawn/AppData/Local/Temp/_gbsbuild/obj/bg_hallway_b_tileset.rel
                                          [ bg_hallway_b_tileset ]
C:/Users/Shawn/AppData/Local/Temp/_gbsbuild/obj/bg_hallway_b.rel
                                          [ bg_hallway_b ]
C:/Users/Shawn/AppData/Local/Temp/_gbsbuild/obj/bg_hallway_tilemap_attr.rel
                                          [ bg_hallway_tilemap_attr ]
C:/Users/Shawn/AppData/Local/Temp/_gbsbuild/obj/bg_hallway_tilemap.rel
                                          [ bg_hallway_tilemap ]
C:/Users/Shawn/AppData/Local/Temp/_gbsbuild/obj/bg_hallway_tileset.rel
                                          [ bg_hallway_tileset ]
C:/Users/Shawn/AppData/Local/Temp/_gbsbuild/obj/bg_hallway.rel
                                          [ bg_hallway ]
C:/Users/Shawn/AppData/Local/Temp/_gbsbuild/obj/bg_intro_tilemap_attr.rel
                                          [ bg_intro_tilemap_attr ]
C:/Users/Shawn/AppData/Local/Temp/_gbsbuild/obj/bg_intro_tilemap.rel
                                          [ bg_intro_tilemap ]
C:/Users/Shawn/AppData/Local/Temp/_gbsbuild/obj/bg_intro_tileset.rel
                                          [ bg_intro_tileset ]
C:/Users/Shawn/AppData/Local/Temp/_gbsbuild/obj/bg_intro.rel
                                          [ bg_intro ]
C:/Users/Shawn/AppData/Local/Temp/_gbsbuild/obj/bg_jumpscare_cgb_tileset.rel
                                          [ bg_jumpscare_cgb_tileset ]
C:/Users/Shawn/AppData/Local/Temp/_gbsbuild/obj/bg_jumpscare_tilemap_attr.rel
                                          [ bg_jumpscare_tilemap_attr ]
C:/Users/Shawn/AppData/Local/Temp/_gbsbuild/obj/bg_jumpscare_tilemap.rel
                                          [ bg_jumpscare_tilemap ]
C:/Users/Shawn/AppData/Local/Temp/_gbsbuild/obj/bg_jumpscare_tileset.rel
                                          [ bg_jumpscare_tileset ]
C:/Users/Shawn/AppData/Local/Temp/_gbsbuild/obj/bg_jumpscare.rel
                                          [ bg_jumpscare ]
C:/Users/Shawn/AppData/Local/Temp/_gbsbuild/obj/bg_locker_inside_tilemap_attr.rel
                                          [ bg_locker_inside_tilemap_attr ]
C:/Users/Shawn/AppData/Local/Temp/_gbsbuild/obj/bg_locker_inside_tilemap.rel
                                          [ bg_locker_inside_tilemap ]
C:/Users/Shawn/AppData/Local/Temp/_gbsbuild/obj/bg_locker_inside_tiles.rel
                                          [ bg_locker_inside_tiles ]
C:/Users/Shawn/AppData/Local/Temp/_gbsbuild/obj/bg_locker_inside_tileset.rel
                                          [ bg_locker_inside_tileset ]
C:/Users/Shawn/AppData/Local/Temp/_gbsbuild/obj/bg_locker_inside.rel
                                          [ bg_locker_inside ]
C:/Users/Shawn/AppData/Local/Temp/_gbsbuild/obj/bg_locker_tilemap_attr.rel
                                          [ bg_locker_tilemap_attr ]
C:/Users/Shawn/AppData/Local/Temp/_gbsbuild/obj/bg_locker_tilemap.rel
                                          [ bg_locker_tilemap ]
C:/Users/Shawn/AppData/Local/Temp/_gbsbuild/obj/bg_locker_tileset.rel
                                          [ bg_locker_tileset ]
C:/Users/Shawn/AppData/Local/Temp/_gbsbuild/obj/bg_locker.rel
                                          [ bg_locker ]
C:/Users/Shawn/AppData/Local/Temp/_gbsbuild/obj/bg_lost_n_found_tilemap_attr.rel
                                          [ bg_lost_n_found_tilemap_attr ]
C:/Users/Shawn/AppData/Local/Temp/_gbsbuild/obj/bg_lost_n_found_tilemap.rel
                                          [ bg_lost_n_found_tilemap ]
C:/Users/Shawn/AppData/Local/Temp/_gbsbuild/obj/bg_lost_n_found_tileset.rel
                                          [ bg_lost_n_found_tileset ]
C:/Users/Shawn/AppData/Local/Temp/_gbsbuild/obj/bg_lost_n_found.rel
                                          [ bg_lost_n_found ]
C:/Users/Shawn/AppData/Local/Temp/_gbsbuild/obj/bg_outside_cgb_tileset.rel
                                          [ bg_outside_cgb_tileset ]
C:/Users/Shawn/AppData/Local/Temp/_gbsbuild/obj/bg_outside_tilemap_attr.rel
                                          [ bg_outside_tilemap_attr ]
C:/Users/Shawn/AppData/Local/Temp/_gbsbuild/obj/bg_outside_tilemap.rel
                                          [ bg_outside_tilemap ]
C:/Users/Shawn/AppData/Local/Temp/_gbsbuild/obj/bg_outside_tileset.rel
                                          [ bg_outside_tileset ]
C:/Users/Shawn/AppData/Local/Temp/_gbsbuild/obj/bg_outside.rel
                                          [ bg_outside ]
C:/Users/Shawn/AppData/Local/Temp/_gbsbuild/obj/bg_productivity_too_low_tilemap_attr.rel
                                          [ bg_productivity_too_low_tilemap_ ]
C:/Users/Shawn/AppData/Local/Temp/_gbsbuild/obj/bg_productivity_too_low_tilemap.rel
                                          [ bg_productivity_too_low_tilemap ]
C:/Users/Shawn/AppData/Local/Temp/_gbsbuild/obj/bg_productivity_too_low_tileset.rel
                                          [ bg_productivity_too_low_tileset ]
C:/Users/Shawn/AppData/Local/Temp/_gbsbuild/obj/bg_productivity_too_low.rel
                                          [ bg_productivity_too_low ]
C:/Users/Shawn/AppData/Local/Temp/_gbsbuild/obj/bg_secret_zone_1_cgb_tileset.rel
                                          [ bg_secret_zone_1_cgb_tileset ]
C:/Users/Shawn/AppData/Local/Temp/_gbsbuild/obj/bg_secret_zone_1_tilemap_attr.rel
                                          [ bg_secret_zone_1_tilemap_attr ]
C:/Users/Shawn/AppData/Local/Temp/_gbsbuild/obj/bg_secret_zone_1_tilemap.rel
                                          [ bg_secret_zone_1_tilemap ]
C:/Users/Shawn/AppData/Local/Temp/_gbsbuild/obj/bg_secret_zone_1_tileset.rel
                                          [ bg_secret_zone_1_tileset ]
C:/Users/Shawn/AppData/Local/Temp/_gbsbuild/obj/bg_secret_zone_1.rel
                                          [ bg_secret_zone_1 ]
C:/Users/Shawn/AppData/Local/Temp/_gbsbuild/obj/bg_storage_room_tilemap_attr.rel
                                          [ bg_storage_room_tilemap_attr ]
C:/Users/Shawn/AppData/Local/Temp/_gbsbuild/obj/bg_storage_room_tilemap.rel
                                          [ bg_storage_room_tilemap ]
C:/Users/Shawn/AppData/Local/Temp/_gbsbuild/obj/bg_storage_room_tileset.rel
                                          [ bg_storage_room_tileset ]
C:/Users/Shawn/AppData/Local/Temp/_gbsbuild/obj/bg_storage_room.rel
                                          [ bg_storage_room ]
C:/Users/Shawn/AppData/Local/Temp/_gbsbuild/obj/bg_stress_too_high_tilemap_attr.rel
                                          [ bg_stress_too_high_tilemap_attr ]
C:/Users/Shawn/AppData/Local/Temp/_gbsbuild/obj/bg_stress_too_high_tilemap.rel
                                          [ bg_stress_too_high_tilemap ]
C:/Users/Shawn/AppData/Local/Temp/_gbsbuild/obj/bg_stress_too_high_tileset.rel
                                          [ bg_stress_too_high_tileset ]
C:/Users/Shawn/AppData/Local/Temp/_gbsbuild/obj/bg_stress_too_high.rel
                                          [ bg_stress_too_high ]
C:/Users/Shawn/AppData/Local/Temp/_gbsbuild/obj/bg_title_screen_tilemap_attr.rel
                                          [ bg_title_screen_tilemap_attr ]
C:/Users/Shawn/AppData/Local/Temp/_gbsbuild/obj/bg_title_screen_tilemap.rel
                                          [ bg_title_screen_tilemap ]
C:/Users/Shawn/AppData/Local/Temp/_gbsbuild/obj/bg_title_screen_tileset.rel
                                          [ bg_title_screen_tileset ]
C:/Users/Shawn/AppData/Local/Temp/_gbsbuild/obj/bg_title_screen.rel
                                          [ bg_title_screen ]
C:/Users/Shawn/AppData/Local/Temp/_gbsbuild/obj/bg_tunnel_cgb_tileset.rel
                                          [ bg_tunnel_cgb_tileset ]
C:/Users/Shawn/AppData/Local/Temp/_gbsbuild/obj/bg_tunnel_tilemap_attr.rel
                                          [ bg_tunnel_tilemap_attr ]
C:/Users/Shawn/AppData/Local/Temp/_gbsbuild/obj/bg_tunnel_tilemap.rel
                                          [ bg_tunnel_tilemap ]
C:/Users/Shawn/AppData/Local/Temp/_gbsbuild/obj/bg_tunnel_tileset.rel
                                          [ bg_tunnel_tileset ]
C:/Users/Shawn/AppData/Local/Temp/_gbsbuild/obj/bg_tunnel.rel
                                          [ bg_tunnel ]
C:/Users/Shawn/AppData/Local/Temp/_gbsbuild/obj/bg_vending_machine_tilemap_attr.rel
                                          [ bg_vending_machine_tilemap_attr ]
C:/Users/Shawn/AppData/Local/Temp/_gbsbuild/obj/bg_vending_machine_tilemap.rel
                                          [ bg_vending_machine_tilemap ]
C:/Users/Shawn/AppData/Local/Temp/_gbsbuild/obj/bg_vending_machine_tileset.rel
                                          [ bg_vending_machine_tileset ]
C:/Users/Shawn/AppData/Local/Temp/_gbsbuild/obj/bg_vending_machine.rel
                                          [ bg_vending_machine ]
C:/Users/Shawn/AppData/Local/Temp/_gbsbuild/obj/bg_vents_2_tilemap_attr.rel
                                          [ bg_vents_2_tilemap_attr ]
C:/Users/Shawn/AppData/Local/Temp/_gbsbuild/obj/bg_vents_2_tilemap.rel
                                          [ bg_vents_2_tilemap ]
C:/Users/Shawn/AppData/Local/Temp/_gbsbuild/obj/bg_vents_2_tileset.rel
                                          [ bg_vents_2_tileset ]
C:/Users/Shawn/AppData/Local/Temp/_gbsbuild/obj/bg_vents_2.rel
                                          [ bg_vents_2 ]
C:/Users/Shawn/AppData/Local/Temp/_gbsbuild/obj/bg_vents_tilemap_attr.rel
                                          [ bg_vents_tilemap_attr ]
C:/Users/Shawn/AppData/Local/Temp/_gbsbuild/obj/bg_vents_tilemap.rel
                                          [ bg_vents_tilemap ]
C:/Users/Shawn/AppData/Local/Temp/_gbsbuild/obj/bg_vents_tileset.rel
                                          [ bg_vents_tileset ]
C:/Users/Shawn/AppData/Local/Temp/_gbsbuild/obj/bg_vents.rel
                                          [ bg_vents ]
C:/Users/Shawn/AppData/Local/Temp/_gbsbuild/obj/bg_work_start_cgb_tileset.rel
                                          [ bg_work_start_cgb_tileset ]
C:/Users/Shawn/AppData/Local/Temp/_gbsbuild/obj/bg_work_start_tilemap_attr.rel
                                          [ bg_work_start_tilemap_attr ]
C:/Users/Shawn/AppData/Local/Temp/_gbsbuild/obj/bg_work_start_tilemap.rel
                                          [ bg_work_start_tilemap ]
C:/Users/Shawn/AppData/Local/Temp/_gbsbuild/obj/bg_work_start_tileset.rel
                                          [ bg_work_start_tileset ]
C:/Users/Shawn/AppData/Local/Temp/_gbsbuild/obj/bg_work_start.rel
                                          [ bg_work_start ]
C:/Users/Shawn/AppData/Local/Temp/_gbsbuild/obj/cursor_image.rel
                                          [ cursor_image ]
C:/Users/Shawn/AppData/Local/Temp/_gbsbuild/obj/font_condensed.rel
                                          [ font_condensed ]
C:/Users/Shawn/AppData/Local/Temp/_gbsbuild/obj/frame_image.rel
                                          [ frame_image ]
C:/Users/Shawn/AppData/Local/Temp/_gbsbuild/obj/game_signature.rel
                                          [ game_signature ]
C:/Users/Shawn/AppData/Local/Temp/_gbsbuild/obj/song_big_explosion_Data.rel
                                          [ song_big_explosion_Data ]
C:/Users/Shawn/AppData/Local/Temp/_gbsbuild/obj/song_bs_cyb_back_alley_Data.rel
                                          [ song_bs_cyb_back_alley_Data ]
C:/Users/Shawn/AppData/Local/Temp/_gbsbuild/obj/song_bs_cyb_city_night_Data.rel
                                          [ song_bs_cyb_city_night_Data ]
C:/Users/Shawn/AppData/Local/Temp/_gbsbuild/obj/song_bs_cyb_corporate_espio_Data.rel
                                          [ song_bs_cyb_corporate_espio_Data ]
C:/Users/Shawn/AppData/Local/Temp/_gbsbuild/obj/song_bs_cyb_new_hero_faster_Data.rel
                                          [ song_bs_cyb_new_hero_faster_Data ]
C:/Users/Shawn/AppData/Local/Temp/_gbsbuild/obj/song_bs_cyb_server_room_Data.rel
                                          [ song_bs_cyb_server_room_Data ]
C:/Users/Shawn/AppData/Local/Temp/_gbsbuild/obj/song_bs_cyb_surfing_the_net_Data.rel
                                          [ song_bs_cyb_surfing_the_net_Data ]
C:/Users/Shawn/AppData/Local/Temp/_gbsbuild/obj/song_bz_cozy_midnight_study_0_Data.rel
                                          [ song_bz_cozy_midnight_study_0_Da ]
C:/Users/Shawn/AppData/Local/Temp/_gbsbuild/obj/song_bz_cozy_midnight_study_Data.rel
                                          [ song_bz_cozy_midnight_study_Data ]
C:/Users/Shawn/AppData/Local/Temp/_gbsbuild/obj/song_sr388_quake_Data.rel
                                          [ song_sr388_quake_Data ]
C:/Users/Shawn/AppData/Local/Temp/_gbsbuild/obj/palette_0.rel
                                          [ palette_0 ]
C:/Users/Shawn/AppData/Local/Temp/_gbsbuild/obj/palette_1.rel
                                          [ palette_1 ]
C:/Users/Shawn/AppData/Local/Temp/_gbsbuild/obj/palette_2.rel
                                          [ palette_2 ]
C:/Users/Shawn/AppData/Local/Temp/_gbsbuild/obj/palette_3.rel
                                          [ palette_3 ]
C:/Users/Shawn/AppData/Local/Temp/_gbsbuild/obj/palette_4.rel
                                          [ palette_4 ]
C:/Users/Shawn/AppData/Local/Temp/_gbsbuild/obj/palette_5.rel
                                          [ palette_5 ]
C:/Users/Shawn/AppData/Local/Temp/_gbsbuild/obj/palette_6.rel
                                          [ palette_6 ]
C:/Users/Shawn/AppData/Local/Temp/_gbsbuild/obj/palette_7.rel
                                          [ palette_7 ]
C:/Users/Shawn/AppData/Local/Temp/_gbsbuild/obj/scene_0_actors.rel
                                          [ scene_0_actors ]
C:/Users/Shawn/AppData/Local/Temp/_gbsbuild/obj/scene_0_collisions.rel
                                          [ scene_0_collisions ]
C:/Users/Shawn/AppData/Local/Temp/_gbsbuild/obj/scene_0_init.rel
                                          [ scene_0_init ]
C:/Users/Shawn/AppData/Local/Temp/_gbsbuild/obj/scene_0_sprites.rel
                                          [ scene_0_sprites ]
C:/Users/Shawn/AppData/Local/Temp/_gbsbuild/obj/scene_0.rel
                                          [ scene_0 ]
C:/Users/Shawn/AppData/Local/Temp/_gbsbuild/obj/scene_1_actors.rel
                                          [ scene_1_actors ]
C:/Users/Shawn/AppData/Local/Temp/_gbsbuild/obj/scene_1_collisions.rel
                                          [ scene_1_collisions ]
C:/Users/Shawn/AppData/Local/Temp/_gbsbuild/obj/scene_1_init.rel
                                          [ scene_1_init ]
C:/Users/Shawn/AppData/Local/Temp/_gbsbuild/obj/scene_1_sprites.rel
                                          [ scene_1_sprites ]
C:/Users/Shawn/AppData/Local/Temp/_gbsbuild/obj/scene_1_triggers.rel
                                          [ scene_1_triggers ]
C:/Users/Shawn/AppData/Local/Temp/_gbsbuild/obj/scene_1.rel
                                          [ scene_1 ]
C:/Users/Shawn/AppData/Local/Temp/_gbsbuild/obj/scene_10_actors.rel
                                          [ scene_10_actors ]
C:/Users/Shawn/AppData/Local/Temp/_gbsbuild/obj/scene_10_collisions.rel
                                          [ scene_10_collisions ]
C:/Users/Shawn/AppData/Local/Temp/_gbsbuild/obj/scene_10_init.rel
                                          [ scene_10_init ]
C:/Users/Shawn/AppData/Local/Temp/_gbsbuild/obj/scene_10_sprites.rel
                                          [ scene_10_sprites ]
C:/Users/Shawn/AppData/Local/Temp/_gbsbuild/obj/scene_10.rel
                                          [ scene_10 ]
C:/Users/Shawn/AppData/Local/Temp/_gbsbuild/obj/scene_11_collisions.rel
                                          [ scene_11_collisions ]
C:/Users/Shawn/AppData/Local/Temp/_gbsbuild/obj/scene_11_init.rel
                                          [ scene_11_init ]
C:/Users/Shawn/AppData/Local/Temp/_gbsbuild/obj/scene_11.rel
                                          [ scene_11 ]
C:/Users/Shawn/AppData/Local/Temp/_gbsbuild/obj/scene_12_collisions.rel
                                          [ scene_12_collisions ]
C:/Users/Shawn/AppData/Local/Temp/_gbsbuild/obj/scene_12_init.rel
                                          [ scene_12_init ]
C:/Users/Shawn/AppData/Local/Temp/_gbsbuild/obj/scene_12.rel
                                          [ scene_12 ]
C:/Users/Shawn/AppData/Local/Temp/_gbsbuild/obj/scene_13_collisions.rel
                                          [ scene_13_collisions ]
C:/Users/Shawn/AppData/Local/Temp/_gbsbuild/obj/scene_13_init.rel
                                          [ scene_13_init ]
C:/Users/Shawn/AppData/Local/Temp/_gbsbuild/obj/scene_13.rel
                                          [ scene_13 ]
C:/Users/Shawn/AppData/Local/Temp/_gbsbuild/obj/scene_14_actors.rel
                                          [ scene_14_actors ]
C:/Users/Shawn/AppData/Local/Temp/_gbsbuild/obj/scene_14_collisions.rel
                                          [ scene_14_collisions ]
C:/Users/Shawn/AppData/Local/Temp/_gbsbuild/obj/scene_14_init.rel
                                          [ scene_14_init ]
C:/Users/Shawn/AppData/Local/Temp/_gbsbuild/obj/scene_14_sprites.rel
                                          [ scene_14_sprites ]
C:/Users/Shawn/AppData/Local/Temp/_gbsbuild/obj/scene_14_triggers.rel
                                          [ scene_14_triggers ]
C:/Users/Shawn/AppData/Local/Temp/_gbsbuild/obj/scene_14.rel
                                          [ scene_14 ]
C:/Users/Shawn/AppData/Local/Temp/_gbsbuild/obj/scene_15_actors.rel
                                          [ scene_15_actors ]
C:/Users/Shawn/AppData/Local/Temp/_gbsbuild/obj/scene_15_collisions.rel
                                          [ scene_15_collisions ]
C:/Users/Shawn/AppData/Local/Temp/_gbsbuild/obj/scene_15_init.rel
                                          [ scene_15_init ]
C:/Users/Shawn/AppData/Local/Temp/_gbsbuild/obj/scene_15_sprites.rel
                                          [ scene_15_sprites ]
C:/Users/Shawn/AppData/Local/Temp/_gbsbuild/obj/scene_15_triggers.rel
                                          [ scene_15_triggers ]
C:/Users/Shawn/AppData/Local/Temp/_gbsbuild/obj/scene_15.rel
                                          [ scene_15 ]
C:/Users/Shawn/AppData/Local/Temp/_gbsbuild/obj/scene_16_actors.rel
                                          [ scene_16_actors ]
C:/Users/Shawn/AppData/Local/Temp/_gbsbuild/obj/scene_16_collisions.rel
                                          [ scene_16_collisions ]
C:/Users/Shawn/AppData/Local/Temp/_gbsbuild/obj/scene_16_init.rel
                                          [ scene_16_init ]
C:/Users/Shawn/AppData/Local/Temp/_gbsbuild/obj/scene_16_sprites.rel
                                          [ scene_16_sprites ]
C:/Users/Shawn/AppData/Local/Temp/_gbsbuild/obj/scene_16.rel
                                          [ scene_16 ]
C:/Users/Shawn/AppData/Local/Temp/_gbsbuild/obj/scene_17_collisions.rel
                                          [ scene_17_collisions ]
C:/Users/Shawn/AppData/Local/Temp/_gbsbuild/obj/scene_17_init.rel
                                          [ scene_17_init ]
C:/Users/Shawn/AppData/Local/Temp/_gbsbuild/obj/scene_17.rel
                                          [ scene_17 ]
C:/Users/Shawn/AppData/Local/Temp/_gbsbuild/obj/scene_18_collisions.rel
                                          [ scene_18_collisions ]
C:/Users/Shawn/AppData/Local/Temp/_gbsbuild/obj/scene_18_init.rel
                                          [ scene_18_init ]
C:/Users/Shawn/AppData/Local/Temp/_gbsbuild/obj/scene_18.rel
                                          [ scene_18 ]
C:/Users/Shawn/AppData/Local/Temp/_gbsbuild/obj/scene_19_actors.rel
                                          [ scene_19_actors ]
C:/Users/Shawn/AppData/Local/Temp/_gbsbuild/obj/scene_19_collisions.rel
                                          [ scene_19_collisions ]
C:/Users/Shawn/AppData/Local/Temp/_gbsbuild/obj/scene_19_init.rel
                                          [ scene_19_init ]
C:/Users/Shawn/AppData/Local/Temp/_gbsbuild/obj/scene_19_sprites.rel
                                          [ scene_19_sprites ]
C:/Users/Shawn/AppData/Local/Temp/_gbsbuild/obj/scene_19_triggers.rel
                                          [ scene_19_triggers ]
C:/Users/Shawn/AppData/Local/Temp/_gbsbuild/obj/scene_19.rel
                                          [ scene_19 ]
C:/Users/Shawn/AppData/Local/Temp/_gbsbuild/obj/scene_2_actors.rel
                                          [ scene_2_actors ]
C:/Users/Shawn/AppData/Local/Temp/_gbsbuild/obj/scene_2_collisions.rel
                                          [ scene_2_collisions ]
C:/Users/Shawn/AppData/Local/Temp/_gbsbuild/obj/scene_2_init.rel
                                          [ scene_2_init ]
C:/Users/Shawn/AppData/Local/Temp/_gbsbuild/obj/scene_2_sprites.rel
                                          [ scene_2_sprites ]
C:/Users/Shawn/AppData/Local/Temp/_gbsbuild/obj/scene_2.rel
                                          [ scene_2 ]
C:/Users/Shawn/AppData/Local/Temp/_gbsbuild/obj/scene_20_collisions.rel
                                          [ scene_20_collisions ]
C:/Users/Shawn/AppData/Local/Temp/_gbsbuild/obj/scene_20_init.rel
                                          [ scene_20_init ]
C:/Users/Shawn/AppData/Local/Temp/_gbsbuild/obj/scene_20_triggers.rel
                                          [ scene_20_triggers ]
C:/Users/Shawn/AppData/Local/Temp/_gbsbuild/obj/scene_20.rel
                                          [ scene_20 ]
C:/Users/Shawn/AppData/Local/Temp/_gbsbuild/obj/scene_21_actors.rel
                                          [ scene_21_actors ]
C:/Users/Shawn/AppData/Local/Temp/_gbsbuild/obj/scene_21_collisions.rel
                                          [ scene_21_collisions ]
C:/Users/Shawn/AppData/Local/Temp/_gbsbuild/obj/scene_21_init.rel
                                          [ scene_21_init ]
C:/Users/Shawn/AppData/Local/Temp/_gbsbuild/obj/scene_21_sprites.rel
                                          [ scene_21_sprites ]
C:/Users/Shawn/AppData/Local/Temp/_gbsbuild/obj/scene_21_triggers.rel
                                          [ scene_21_triggers ]
C:/Users/Shawn/AppData/Local/Temp/_gbsbuild/obj/scene_21.rel
                                          [ scene_21 ]
C:/Users/Shawn/AppData/Local/Temp/_gbsbuild/obj/scene_22_actors.rel
                                          [ scene_22_actors ]
C:/Users/Shawn/AppData/Local/Temp/_gbsbuild/obj/scene_22_collisions.rel
                                          [ scene_22_collisions ]
C:/Users/Shawn/AppData/Local/Temp/_gbsbuild/obj/scene_22_init.rel
                                          [ scene_22_init ]
C:/Users/Shawn/AppData/Local/Temp/_gbsbuild/obj/scene_22_sprites.rel
                                          [ scene_22_sprites ]
C:/Users/Shawn/AppData/Local/Temp/_gbsbuild/obj/scene_22_triggers.rel
                                          [ scene_22_triggers ]
C:/Users/Shawn/AppData/Local/Temp/_gbsbuild/obj/scene_22.rel
                                          [ scene_22 ]
C:/Users/Shawn/AppData/Local/Temp/_gbsbuild/obj/scene_23_actors.rel
                                          [ scene_23_actors ]
C:/Users/Shawn/AppData/Local/Temp/_gbsbuild/obj/scene_23_collisions.rel
                                          [ scene_23_collisions ]
C:/Users/Shawn/AppData/Local/Temp/_gbsbuild/obj/scene_23_init.rel
                                          [ scene_23_init ]
C:/Users/Shawn/AppData/Local/Temp/_gbsbuild/obj/scene_23_sprites.rel
                                          [ scene_23_sprites ]
C:/Users/Shawn/AppData/Local/Temp/_gbsbuild/obj/scene_23_triggers.rel
                                          [ scene_23_triggers ]
C:/Users/Shawn/AppData/Local/Temp/_gbsbuild/obj/scene_23.rel
                                          [ scene_23 ]
C:/Users/Shawn/AppData/Local/Temp/_gbsbuild/obj/scene_24_actors.rel
                                          [ scene_24_actors ]
C:/Users/Shawn/AppData/Local/Temp/_gbsbuild/obj/scene_24_collisions.rel
                                          [ scene_24_collisions ]
C:/Users/Shawn/AppData/Local/Temp/_gbsbuild/obj/scene_24_init.rel
                                          [ scene_24_init ]
C:/Users/Shawn/AppData/Local/Temp/_gbsbuild/obj/scene_24_sprites.rel
                                          [ scene_24_sprites ]
C:/Users/Shawn/AppData/Local/Temp/_gbsbuild/obj/scene_24_triggers.rel
                                          [ scene_24_triggers ]
C:/Users/Shawn/AppData/Local/Temp/_gbsbuild/obj/scene_24.rel
                                          [ scene_24 ]
C:/Users/Shawn/AppData/Local/Temp/_gbsbuild/obj/scene_25_actors.rel
                                          [ scene_25_actors ]
C:/Users/Shawn/AppData/Local/Temp/_gbsbuild/obj/scene_25_collisions.rel
                                          [ scene_25_collisions ]
C:/Users/Shawn/AppData/Local/Temp/_gbsbuild/obj/scene_25_init.rel
                                          [ scene_25_init ]
C:/Users/Shawn/AppData/Local/Temp/_gbsbuild/obj/scene_25_sprites.rel
                                          [ scene_25_sprites ]
C:/Users/Shawn/AppData/Local/Temp/_gbsbuild/obj/scene_25_triggers.rel
                                          [ scene_25_triggers ]
C:/Users/Shawn/AppData/Local/Temp/_gbsbuild/obj/scene_25.rel
                                          [ scene_25 ]
C:/Users/Shawn/AppData/Local/Temp/_gbsbuild/obj/scene_26_actors.rel
                                          [ scene_26_actors ]
C:/Users/Shawn/AppData/Local/Temp/_gbsbuild/obj/scene_26_collisions.rel
                                          [ scene_26_collisions ]
C:/Users/Shawn/AppData/Local/Temp/_gbsbuild/obj/scene_26_init.rel
                                          [ scene_26_init ]
C:/Users/Shawn/AppData/Local/Temp/_gbsbuild/obj/scene_26_sprites.rel
                                          [ scene_26_sprites ]
C:/Users/Shawn/AppData/Local/Temp/_gbsbuild/obj/scene_26_triggers.rel
                                          [ scene_26_triggers ]
C:/Users/Shawn/AppData/Local/Temp/_gbsbuild/obj/scene_26.rel
                                          [ scene_26 ]
C:/Users/Shawn/AppData/Local/Temp/_gbsbuild/obj/scene_27_actors.rel
                                          [ scene_27_actors ]
C:/Users/Shawn/AppData/Local/Temp/_gbsbuild/obj/scene_27_collisions.rel
                                          [ scene_27_collisions ]
C:/Users/Shawn/AppData/Local/Temp/_gbsbuild/obj/scene_27_init.rel
                                          [ scene_27_init ]
C:/Users/Shawn/AppData/Local/Temp/_gbsbuild/obj/scene_27_sprites.rel
                                          [ scene_27_sprites ]
C:/Users/Shawn/AppData/Local/Temp/_gbsbuild/obj/scene_27_triggers.rel
                                          [ scene_27_triggers ]
C:/Users/Shawn/AppData/Local/Temp/_gbsbuild/obj/scene_27.rel
                                          [ scene_27 ]
C:/Users/Shawn/AppData/Local/Temp/_gbsbuild/obj/scene_28_actors.rel
                                          [ scene_28_actors ]
C:/Users/Shawn/AppData/Local/Temp/_gbsbuild/obj/scene_28_collisions.rel
                                          [ scene_28_collisions ]
C:/Users/Shawn/AppData/Local/Temp/_gbsbuild/obj/scene_28_init.rel
                                          [ scene_28_init ]
C:/Users/Shawn/AppData/Local/Temp/_gbsbuild/obj/scene_28_sprites.rel
                                          [ scene_28_sprites ]
C:/Users/Shawn/AppData/Local/Temp/_gbsbuild/obj/scene_28_triggers.rel
                                          [ scene_28_triggers ]
C:/Users/Shawn/AppData/Local/Temp/_gbsbuild/obj/scene_28.rel
                                          [ scene_28 ]
C:/Users/Shawn/AppData/Local/Temp/_gbsbuild/obj/scene_29_actors.rel
                                          [ scene_29_actors ]
C:/Users/Shawn/AppData/Local/Temp/_gbsbuild/obj/scene_29_collisions.rel
                                          [ scene_29_collisions ]
C:/Users/Shawn/AppData/Local/Temp/_gbsbuild/obj/scene_29_init.rel
                                          [ scene_29_init ]
C:/Users/Shawn/AppData/Local/Temp/_gbsbuild/obj/scene_29_sprites.rel
                                          [ scene_29_sprites ]
C:/Users/Shawn/AppData/Local/Temp/_gbsbuild/obj/scene_29_triggers.rel
                                          [ scene_29_triggers ]
C:/Users/Shawn/AppData/Local/Temp/_gbsbuild/obj/scene_29.rel
                                          [ scene_29 ]
C:/Users/Shawn/AppData/Local/Temp/_gbsbuild/obj/scene_3_actors.rel
                                          [ scene_3_actors ]
C:/Users/Shawn/AppData/Local/Temp/_gbsbuild/obj/scene_3_collisions.rel
                                          [ scene_3_collisions ]
C:/Users/Shawn/AppData/Local/Temp/_gbsbuild/obj/scene_3_init.rel
                                          [ scene_3_init ]
C:/Users/Shawn/AppData/Local/Temp/_gbsbuild/obj/scene_3_sprites.rel
                                          [ scene_3_sprites ]
C:/Users/Shawn/AppData/Local/Temp/_gbsbuild/obj/scene_3_triggers.rel
                                          [ scene_3_triggers ]
C:/Users/Shawn/AppData/Local/Temp/_gbsbuild/obj/scene_3.rel
                                          [ scene_3 ]
C:/Users/Shawn/AppData/Local/Temp/_gbsbuild/obj/scene_30_actors.rel
                                          [ scene_30_actors ]
C:/Users/Shawn/AppData/Local/Temp/_gbsbuild/obj/scene_30_collisions.rel
                                          [ scene_30_collisions ]
C:/Users/Shawn/AppData/Local/Temp/_gbsbuild/obj/scene_30_init.rel
                                          [ scene_30_init ]
C:/Users/Shawn/AppData/Local/Temp/_gbsbuild/obj/scene_30_sprites.rel
                                          [ scene_30_sprites ]
C:/Users/Shawn/AppData/Local/Temp/_gbsbuild/obj/scene_30_triggers.rel
                                          [ scene_30_triggers ]
C:/Users/Shawn/AppData/Local/Temp/_gbsbuild/obj/scene_30.rel
                                          [ scene_30 ]
C:/Users/Shawn/AppData/Local/Temp/_gbsbuild/obj/scene_31_collisions.rel
                                          [ scene_31_collisions ]
C:/Users/Shawn/AppData/Local/Temp/_gbsbuild/obj/scene_31_init.rel
                                          [ scene_31_init ]
C:/Users/Shawn/AppData/Local/Temp/_gbsbuild/obj/scene_31.rel
                                          [ scene_31 ]
C:/Users/Shawn/AppData/Local/Temp/_gbsbuild/obj/scene_32_actors.rel
                                          [ scene_32_actors ]
C:/Users/Shawn/AppData/Local/Temp/_gbsbuild/obj/scene_32_collisions.rel
                                          [ scene_32_collisions ]
C:/Users/Shawn/AppData/Local/Temp/_gbsbuild/obj/scene_32_init.rel
                                          [ scene_32_init ]
C:/Users/Shawn/AppData/Local/Temp/_gbsbuild/obj/scene_32_sprites.rel
                                          [ scene_32_sprites ]
C:/Users/Shawn/AppData/Local/Temp/_gbsbuild/obj/scene_32_triggers.rel
                                          [ scene_32_triggers ]
C:/Users/Shawn/AppData/Local/Temp/_gbsbuild/obj/scene_32.rel
                                          [ scene_32 ]
C:/Users/Shawn/AppData/Local/Temp/_gbsbuild/obj/scene_33_collisions.rel
                                          [ scene_33_collisions ]
C:/Users/Shawn/AppData/Local/Temp/_gbsbuild/obj/scene_33_init.rel
                                          [ scene_33_init ]
C:/Users/Shawn/AppData/Local/Temp/_gbsbuild/obj/scene_33_triggers.rel
                                          [ scene_33_triggers ]
C:/Users/Shawn/AppData/Local/Temp/_gbsbuild/obj/scene_33.rel
                                          [ scene_33 ]
C:/Users/Shawn/AppData/Local/Temp/_gbsbuild/obj/scene_34_collisions.rel
                                          [ scene_34_collisions ]
C:/Users/Shawn/AppData/Local/Temp/_gbsbuild/obj/scene_34_init.rel
                                          [ scene_34_init ]
C:/Users/Shawn/AppData/Local/Temp/_gbsbuild/obj/scene_34_triggers.rel
                                          [ scene_34_triggers ]
C:/Users/Shawn/AppData/Local/Temp/_gbsbuild/obj/scene_34.rel
                                          [ scene_34 ]
C:/Users/Shawn/AppData/Local/Temp/_gbsbuild/obj/scene_35_collisions.rel
                                          [ scene_35_collisions ]
C:/Users/Shawn/AppData/Local/Temp/_gbsbuild/obj/scene_35_init.rel
                                          [ scene_35_init ]
C:/Users/Shawn/AppData/Local/Temp/_gbsbuild/obj/scene_35.rel
                                          [ scene_35 ]
C:/Users/Shawn/AppData/Local/Temp/_gbsbuild/obj/scene_36_actors.rel
                                          [ scene_36_actors ]
C:/Users/Shawn/AppData/Local/Temp/_gbsbuild/obj/scene_36_collisions.rel
                                          [ scene_36_collisions ]
C:/Users/Shawn/AppData/Local/Temp/_gbsbuild/obj/scene_36_init.rel
                                          [ scene_36_init ]
C:/Users/Shawn/AppData/Local/Temp/_gbsbuild/obj/scene_36_sprites.rel
                                          [ scene_36_sprites ]
C:/Users/Shawn/AppData/Local/Temp/_gbsbuild/obj/scene_36_triggers.rel
                                          [ scene_36_triggers ]
C:/Users/Shawn/AppData/Local/Temp/_gbsbuild/obj/scene_36.rel
                                          [ scene_36 ]
C:/Users/Shawn/AppData/Local/Temp/_gbsbuild/obj/scene_37_actors.rel
                                          [ scene_37_actors ]
C:/Users/Shawn/AppData/Local/Temp/_gbsbuild/obj/scene_37_collisions.rel
                                          [ scene_37_collisions ]
C:/Users/Shawn/AppData/Local/Temp/_gbsbuild/obj/scene_37_init.rel
                                          [ scene_37_init ]
C:/Users/Shawn/AppData/Local/Temp/_gbsbuild/obj/scene_37_sprites.rel
                                          [ scene_37_sprites ]
C:/Users/Shawn/AppData/Local/Temp/_gbsbuild/obj/scene_37_triggers.rel
                                          [ scene_37_triggers ]
C:/Users/Shawn/AppData/Local/Temp/_gbsbuild/obj/scene_37.rel
                                          [ scene_37 ]
C:/Users/Shawn/AppData/Local/Temp/_gbsbuild/obj/scene_38_collisions.rel
                                          [ scene_38_collisions ]
C:/Users/Shawn/AppData/Local/Temp/_gbsbuild/obj/scene_38_init.rel
                                          [ scene_38_init ]
C:/Users/Shawn/AppData/Local/Temp/_gbsbuild/obj/scene_38_triggers.rel
                                          [ scene_38_triggers ]
C:/Users/Shawn/AppData/Local/Temp/_gbsbuild/obj/scene_38.rel
                                          [ scene_38 ]
C:/Users/Shawn/AppData/Local/Temp/_gbsbuild/obj/scene_39_collisions.rel
                                          [ scene_39_collisions ]
C:/Users/Shawn/AppData/Local/Temp/_gbsbuild/obj/scene_39_init.rel
                                          [ scene_39_init ]
C:/Users/Shawn/AppData/Local/Temp/_gbsbuild/obj/scene_39.rel
                                          [ scene_39 ]
C:/Users/Shawn/AppData/Local/Temp/_gbsbuild/obj/scene_4_actors.rel
                                          [ scene_4_actors ]
C:/Users/Shawn/AppData/Local/Temp/_gbsbuild/obj/scene_4_collisions.rel
                                          [ scene_4_collisions ]
C:/Users/Shawn/AppData/Local/Temp/_gbsbuild/obj/scene_4_init.rel
                                          [ scene_4_init ]
C:/Users/Shawn/AppData/Local/Temp/_gbsbuild/obj/scene_4_sprites.rel
                                          [ scene_4_sprites ]
C:/Users/Shawn/AppData/Local/Temp/_gbsbuild/obj/scene_4_triggers.rel
                                          [ scene_4_triggers ]
C:/Users/Shawn/AppData/Local/Temp/_gbsbuild/obj/scene_4.rel
                                          [ scene_4 ]
C:/Users/Shawn/AppData/Local/Temp/_gbsbuild/obj/scene_40_collisions.rel
                                          [ scene_40_collisions ]
C:/Users/Shawn/AppData/Local/Temp/_gbsbuild/obj/scene_40_init.rel
                                          [ scene_40_init ]
C:/Users/Shawn/AppData/Local/Temp/_gbsbuild/obj/scene_40.rel
                                          [ scene_40 ]
C:/Users/Shawn/AppData/Local/Temp/_gbsbuild/obj/scene_41_actors.rel
                                          [ scene_41_actors ]
C:/Users/Shawn/AppData/Local/Temp/_gbsbuild/obj/scene_41_collisions.rel
                                          [ scene_41_collisions ]
C:/Users/Shawn/AppData/Local/Temp/_gbsbuild/obj/scene_41_init.rel
                                          [ scene_41_init ]
C:/Users/Shawn/AppData/Local/Temp/_gbsbuild/obj/scene_41_sprites.rel
                                          [ scene_41_sprites ]
C:/Users/Shawn/AppData/Local/Temp/_gbsbuild/obj/scene_41_triggers.rel
                                          [ scene_41_triggers ]
C:/Users/Shawn/AppData/Local/Temp/_gbsbuild/obj/scene_41.rel
                                          [ scene_41 ]
C:/Users/Shawn/AppData/Local/Temp/_gbsbuild/obj/scene_42_actors.rel
                                          [ scene_42_actors ]
C:/Users/Shawn/AppData/Local/Temp/_gbsbuild/obj/scene_42_collisions.rel
                                          [ scene_42_collisions ]
C:/Users/Shawn/AppData/Local/Temp/_gbsbuild/obj/scene_42_init.rel
                                          [ scene_42_init ]
C:/Users/Shawn/AppData/Local/Temp/_gbsbuild/obj/scene_42_sprites.rel
                                          [ scene_42_sprites ]
C:/Users/Shawn/AppData/Local/Temp/_gbsbuild/obj/scene_42.rel
                                          [ scene_42 ]
C:/Users/Shawn/AppData/Local/Temp/_gbsbuild/obj/scene_43_actors.rel
                                          [ scene_43_actors ]
C:/Users/Shawn/AppData/Local/Temp/_gbsbuild/obj/scene_43_collisions.rel
                                          [ scene_43_collisions ]
C:/Users/Shawn/AppData/Local/Temp/_gbsbuild/obj/scene_43_init.rel
                                          [ scene_43_init ]
C:/Users/Shawn/AppData/Local/Temp/_gbsbuild/obj/scene_43_sprites.rel
                                          [ scene_43_sprites ]
C:/Users/Shawn/AppData/Local/Temp/_gbsbuild/obj/scene_43_triggers.rel
                                          [ scene_43_triggers ]
C:/Users/Shawn/AppData/Local/Temp/_gbsbuild/obj/scene_43.rel
                                          [ scene_43 ]
C:/Users/Shawn/AppData/Local/Temp/_gbsbuild/obj/scene_44_collisions.rel
                                          [ scene_44_collisions ]
C:/Users/Shawn/AppData/Local/Temp/_gbsbuild/obj/scene_44_init.rel
                                          [ scene_44_init ]
C:/Users/Shawn/AppData/Local/Temp/_gbsbuild/obj/scene_44.rel
                                          [ scene_44 ]
C:/Users/Shawn/AppData/Local/Temp/_gbsbuild/obj/scene_46_actors.rel
                                          [ scene_46_actors ]
C:/Users/Shawn/AppData/Local/Temp/_gbsbuild/obj/scene_46_collisions.rel
                                          [ scene_46_collisions ]
C:/Users/Shawn/AppData/Local/Temp/_gbsbuild/obj/scene_46_init.rel
                                          [ scene_46_init ]
C:/Users/Shawn/AppData/Local/Temp/_gbsbuild/obj/scene_46_sprites.rel
                                          [ scene_46_sprites ]
C:/Users/Shawn/AppData/Local/Temp/_gbsbuild/obj/scene_46_triggers.rel
                                          [ scene_46_triggers ]
C:/Users/Shawn/AppData/Local/Temp/_gbsbuild/obj/scene_46.rel
                                          [ scene_46 ]
C:/Users/Shawn/AppData/Local/Temp/_gbsbuild/obj/scene_47_collisions.rel
                                          [ scene_47_collisions ]
C:/Users/Shawn/AppData/Local/Temp/_gbsbuild/obj/scene_47_init.rel
                                          [ scene_47_init ]
C:/Users/Shawn/AppData/Local/Temp/_gbsbuild/obj/scene_47.rel
                                          [ scene_47 ]
C:/Users/Shawn/AppData/Local/Temp/_gbsbuild/obj/scene_5_collisions.rel
                                          [ scene_5_collisions ]
C:/Users/Shawn/AppData/Local/Temp/_gbsbuild/obj/scene_5_init.rel
                                          [ scene_5_init ]
C:/Users/Shawn/AppData/Local/Temp/_gbsbuild/obj/scene_5.rel
                                          [ scene_5 ]
C:/Users/Shawn/AppData/Local/Temp/_gbsbuild/obj/scene_6_actors.rel
                                          [ scene_6_actors ]
C:/Users/Shawn/AppData/Local/Temp/_gbsbuild/obj/scene_6_collisions.rel
                                          [ scene_6_collisions ]
C:/Users/Shawn/AppData/Local/Temp/_gbsbuild/obj/scene_6_init.rel
                                          [ scene_6_init ]
C:/Users/Shawn/AppData/Local/Temp/_gbsbuild/obj/scene_6_sprites.rel
                                          [ scene_6_sprites ]
C:/Users/Shawn/AppData/Local/Temp/_gbsbuild/obj/scene_6.rel
                                          [ scene_6 ]
C:/Users/Shawn/AppData/Local/Temp/_gbsbuild/obj/scene_7_collisions.rel
                                          [ scene_7_collisions ]
C:/Users/Shawn/AppData/Local/Temp/_gbsbuild/obj/scene_7_init.rel
                                          [ scene_7_init ]
C:/Users/Shawn/AppData/Local/Temp/_gbsbuild/obj/scene_7.rel
                                          [ scene_7 ]
C:/Users/Shawn/AppData/Local/Temp/_gbsbuild/obj/scene_8_collisions.rel
                                          [ scene_8_collisions ]
C:/Users/Shawn/AppData/Local/Temp/_gbsbuild/obj/scene_8_init.rel
                                          [ scene_8_init ]
C:/Users/Shawn/AppData/Local/Temp/_gbsbuild/obj/scene_8.rel
                                          [ scene_8 ]
C:/Users/Shawn/AppData/Local/Temp/_gbsbuild/obj/scene_9_collisions.rel
                                          [ scene_9_collisions ]
C:/Users/Shawn/AppData/Local/Temp/_gbsbuild/obj/scene_9_init.rel
                                          [ scene_9_init ]
C:/Users/Shawn/AppData/Local/Temp/_gbsbuild/obj/scene_9.rel
                                          [ scene_9 ]
C:/Users/Shawn/AppData/Local/Temp/_gbsbuild/obj/script_engine_init.rel
                                          [  ]
C:/Users/Shawn/AppData/Local/Temp/_gbsbuild/obj/script_input_0.rel
                                          [ script_input_0 ]
C:/Users/Shawn/AppData/Local/Temp/_gbsbuild/obj/script_input_1.rel
                                          [ script_input_1 ]
C:/Users/Shawn/AppData/Local/Temp/_gbsbuild/obj/script_input_10.rel
                                          [ script_input_10 ]
C:/Users/Shawn/AppData/Local/Temp/_gbsbuild/obj/script_input_104.rel
                                          [ script_input_104 ]
C:/Users/Shawn/AppData/Local/Temp/_gbsbuild/obj/script_input_12.rel
                                          [ script_input_12 ]
C:/Users/Shawn/AppData/Local/Temp/_gbsbuild/obj/script_input_121.rel
                                          [ script_input_121 ]
C:/Users/Shawn/AppData/Local/Temp/_gbsbuild/obj/script_input_123.rel
                                          [ script_input_123 ]
C:/Users/Shawn/AppData/Local/Temp/_gbsbuild/obj/script_input_132.rel
                                          [ script_input_132 ]
C:/Users/Shawn/AppData/Local/Temp/_gbsbuild/obj/script_input_14.rel
                                          [ script_input_14 ]
C:/Users/Shawn/AppData/Local/Temp/_gbsbuild/obj/script_input_15.rel
                                          [ script_input_15 ]
C:/Users/Shawn/AppData/Local/Temp/_gbsbuild/obj/script_input_18.rel
                                          [ script_input_18 ]
C:/Users/Shawn/AppData/Local/Temp/_gbsbuild/obj/script_input_20.rel
                                          [ script_input_20 ]
C:/Users/Shawn/AppData/Local/Temp/_gbsbuild/obj/script_input_22.rel
                                          [ script_input_22 ]
C:/Users/Shawn/AppData/Local/Temp/_gbsbuild/obj/script_input_25.rel
                                          [ script_input_25 ]
C:/Users/Shawn/AppData/Local/Temp/_gbsbuild/obj/script_input_26.rel
                                          [ script_input_26 ]
C:/Users/Shawn/AppData/Local/Temp/_gbsbuild/obj/script_input_27.rel
                                          [ script_input_27 ]
C:/Users/Shawn/AppData/Local/Temp/_gbsbuild/obj/script_input_28.rel
                                          [ script_input_28 ]
C:/Users/Shawn/AppData/Local/Temp/_gbsbuild/obj/script_input_3.rel
                                          [ script_input_3 ]
C:/Users/Shawn/AppData/Local/Temp/_gbsbuild/obj/script_input_30.rel
                                          [ script_input_30 ]
C:/Users/Shawn/AppData/Local/Temp/_gbsbuild/obj/script_input_32.rel
                                          [ script_input_32 ]
C:/Users/Shawn/AppData/Local/Temp/_gbsbuild/obj/script_input_33.rel
                                          [ script_input_33 ]
C:/Users/Shawn/AppData/Local/Temp/_gbsbuild/obj/script_input_39.rel
                                          [ script_input_39 ]
C:/Users/Shawn/AppData/Local/Temp/_gbsbuild/obj/script_input_4.rel
                                          [ script_input_4 ]
C:/Users/Shawn/AppData/Local/Temp/_gbsbuild/obj/script_input_40.rel
                                          [ script_input_40 ]
C:/Users/Shawn/AppData/Local/Temp/_gbsbuild/obj/script_input_42.rel
                                          [ script_input_42 ]
C:/Users/Shawn/AppData/Local/Temp/_gbsbuild/obj/script_input_49.rel
                                          [ script_input_49 ]
C:/Users/Shawn/AppData/Local/Temp/_gbsbuild/obj/script_input_50.rel
                                          [ script_input_50 ]
C:/Users/Shawn/AppData/Local/Temp/_gbsbuild/obj/script_input_52.rel
                                          [ script_input_52 ]
C:/Users/Shawn/AppData/Local/Temp/_gbsbuild/obj/script_input_56.rel
                                          [ script_input_56 ]
C:/Users/Shawn/AppData/Local/Temp/_gbsbuild/obj/script_input_58.rel
                                          [ script_input_58 ]
C:/Users/Shawn/AppData/Local/Temp/_gbsbuild/obj/script_input_6.rel
                                          [ script_input_6 ]
C:/Users/Shawn/AppData/Local/Temp/_gbsbuild/obj/script_input_60.rel
                                          [ script_input_60 ]
C:/Users/Shawn/AppData/Local/Temp/_gbsbuild/obj/script_input_63.rel
                                          [ script_input_63 ]
C:/Users/Shawn/AppData/Local/Temp/_gbsbuild/obj/script_input_65.rel
                                          [ script_input_65 ]
C:/Users/Shawn/AppData/Local/Temp/_gbsbuild/obj/script_input_70.rel
                                          [ script_input_70 ]
C:/Users/Shawn/AppData/Local/Temp/_gbsbuild/obj/script_input_72.rel
                                          [ script_input_72 ]
C:/Users/Shawn/AppData/Local/Temp/_gbsbuild/obj/script_input_75.rel
                                          [ script_input_75 ]
C:/Users/Shawn/AppData/Local/Temp/_gbsbuild/obj/script_input_78.rel
                                          [ script_input_78 ]
C:/Users/Shawn/AppData/Local/Temp/_gbsbuild/obj/script_input_8.rel
                                          [ script_input_8 ]
C:/Users/Shawn/AppData/Local/Temp/_gbsbuild/obj/script_input_81.rel
                                          [ script_input_81 ]
C:/Users/Shawn/AppData/Local/Temp/_gbsbuild/obj/script_input_84.rel
                                          [ script_input_84 ]
C:/Users/Shawn/AppData/Local/Temp/_gbsbuild/obj/script_input_87.rel
                                          [ script_input_87 ]
C:/Users/Shawn/AppData/Local/Temp/_gbsbuild/obj/script_input_9.rel
                                          [ script_input_9 ]
C:/Users/Shawn/AppData/Local/Temp/_gbsbuild/obj/script_input_90.rel
                                          [ script_input_90 ]
C:/Users/Shawn/AppData/Local/Temp/_gbsbuild/obj/script_input_93.rel
                                          [ script_input_93 ]
C:/Users/Shawn/AppData/Local/Temp/_gbsbuild/obj/script_input_96.rel
                                          [ script_input_96 ]
C:/Users/Shawn/AppData/Local/Temp/_gbsbuild/obj/script_input_98.rel
                                          [ script_input_98 ]
C:/Users/Shawn/AppData/Local/Temp/_gbsbuild/obj/script_input.rel
                                          [ script_input ]
C:/Users/Shawn/AppData/Local/Temp/_gbsbuild/obj/script_timer_0.rel
                                          [ script_timer_0 ]
C:/Users/Shawn/AppData/Local/Temp/_gbsbuild/obj/script_timer_1.rel
                                          [ script_timer_1 ]
C:/Users/Shawn/AppData/Local/Temp/_gbsbuild/obj/script_timer_17.rel
                                          [ script_timer_17 ]
C:/Users/Shawn/AppData/Local/Temp/_gbsbuild/obj/script_timer_2.rel
                                          [ script_timer_2 ]
C:/Users/Shawn/AppData/Local/Temp/_gbsbuild/obj/script_timer_20.rel
                                          [ script_timer_20 ]
C:/Users/Shawn/AppData/Local/Temp/_gbsbuild/obj/script_timer_62.rel
                                          [ script_timer_62 ]
C:/Users/Shawn/AppData/Local/Temp/_gbsbuild/obj/script_timer_71.rel
                                          [ script_timer_71 ]
C:/Users/Shawn/AppData/Local/Temp/_gbsbuild/obj/script_timer.rel
                                          [ script_timer ]
C:/Users/Shawn/AppData/Local/Temp/_gbsbuild/obj/sound_boss_jumpscare_wav.rel
                                          [ sound_boss_jumpscare_wav ]
C:/Users/Shawn/AppData/Local/Temp/_gbsbuild/obj/sound_game_over_wav.rel
                                          [ sound_game_over_wav ]
C:/Users/Shawn/AppData/Local/Temp/_gbsbuild/obj/sound_legacy_0_0.rel
                                          [ sound_legacy_0_0 ]
C:/Users/Shawn/AppData/Local/Temp/_gbsbuild/obj/sound_legacy_0_1.rel
                                          [ sound_legacy_0_1 ]
C:/Users/Shawn/AppData/Local/Temp/_gbsbuild/obj/sound_legacy_0_2.rel
                                          [ sound_legacy_0_2 ]
C:/Users/Shawn/AppData/Local/Temp/_gbsbuild/obj/sound_legacy_0_3.rel
                                          [ sound_legacy_0_3 ]
C:/Users/Shawn/AppData/Local/Temp/_gbsbuild/obj/sound_legacy_0_4.rel
                                          [ sound_legacy_0_4 ]
C:/Users/Shawn/AppData/Local/Temp/_gbsbuild/obj/sound_legacy_0.rel
                                          [ sound_legacy_0 ]
C:/Users/Shawn/AppData/Local/Temp/_gbsbuild/obj/sound_scream1_wav.rel
                                          [ sound_scream1_wav ]
C:/Users/Shawn/AppData/Local/Temp/_gbsbuild/obj/sound_scream2_wav.rel
                                          [ sound_scream2_wav ]
C:/Users/Shawn/AppData/Local/Temp/_gbsbuild/obj/sound_treasure_wav.rel
                                          [ sound_treasure_wav ]
C:/Users/Shawn/AppData/Local/Temp/_gbsbuild/obj/sound_type1_wav.rel
                                          [ sound_type1_wav ]
C:/Users/Shawn/AppData/Local/Temp/_gbsbuild/obj/sprite_boombar_bank2_tileset.rel
                                          [ sprite_boombar_bank2_tileset ]
C:/Users/Shawn/AppData/Local/Temp/_gbsbuild/obj/sprite_boombar_tileset.rel
                                          [ sprite_boombar_tileset ]
C:/Users/Shawn/AppData/Local/Temp/_gbsbuild/obj/sprite_boombar.rel
                                          [ sprite_boombar ]
C:/Users/Shawn/AppData/Local/Temp/_gbsbuild/obj/sprite_breakbar_bank2_tileset.rel
                                          [ sprite_breakbar_bank2_tileset ]
C:/Users/Shawn/AppData/Local/Temp/_gbsbuild/obj/sprite_breakbar_tileset.rel
                                          [ sprite_breakbar_tileset ]
C:/Users/Shawn/AppData/Local/Temp/_gbsbuild/obj/sprite_breakbar.rel
                                          [ sprite_breakbar ]
C:/Users/Shawn/AppData/Local/Temp/_gbsbuild/obj/sprite_clock_bank2_tileset.rel
                                          [ sprite_clock_bank2_tileset ]
C:/Users/Shawn/AppData/Local/Temp/_gbsbuild/obj/sprite_clock_tileset.rel
                                          [ sprite_clock_tileset ]
C:/Users/Shawn/AppData/Local/Temp/_gbsbuild/obj/sprite_clock.rel
                                          [ sprite_clock ]
C:/Users/Shawn/AppData/Local/Temp/_gbsbuild/obj/sprite_conveyor.rel
                                          [ sprite_conveyor ]
C:/Users/Shawn/AppData/Local/Temp/_gbsbuild/obj/sprite_cursor_bank2_tileset.rel
                                          [ sprite_cursor_bank2_tileset ]
C:/Users/Shawn/AppData/Local/Temp/_gbsbuild/obj/sprite_cursor_tileset.rel
                                          [ sprite_cursor_tileset ]
C:/Users/Shawn/AppData/Local/Temp/_gbsbuild/obj/sprite_cursor.rel
                                          [ sprite_cursor ]
C:/Users/Shawn/AppData/Local/Temp/_gbsbuild/obj/sprite_elevator_bank2_tileset.rel
                                          [ sprite_elevator_bank2_tileset ]
C:/Users/Shawn/AppData/Local/Temp/_gbsbuild/obj/sprite_elevator_tileset.rel
                                          [ sprite_elevator_tileset ]
C:/Users/Shawn/AppData/Local/Temp/_gbsbuild/obj/sprite_elevator.rel
                                          [ sprite_elevator ]
C:/Users/Shawn/AppData/Local/Temp/_gbsbuild/obj/sprite_end_slide_floor_trig.rel
                                          [ sprite_end_slide_floor_trig ]
C:/Users/Shawn/AppData/Local/Temp/_gbsbuild/obj/sprite_energy_bar_full_trig.rel
                                          [ sprite_energy_bar_full_trig ]
C:/Users/Shawn/AppData/Local/Temp/_gbsbuild/obj/sprite_energy_bars_bank2_tileset.rel
                                          [ sprite_energy_bars_bank2_tileset ]
C:/Users/Shawn/AppData/Local/Temp/_gbsbuild/obj/sprite_energy_bars_stress_tileset.rel
                                          [ sprite_energy_bars_stress_tilese ]
C:/Users/Shawn/AppData/Local/Temp/_gbsbuild/obj/sprite_energy_bars_stress.rel
                                          [ sprite_energy_bars_stress ]
C:/Users/Shawn/AppData/Local/Temp/_gbsbuild/obj/sprite_energy_bars_tileset.rel
                                          [ sprite_energy_bars_tileset ]
C:/Users/Shawn/AppData/Local/Temp/_gbsbuild/obj/sprite_energy_bars.rel
                                          [ sprite_energy_bars ]
C:/Users/Shawn/AppData/Local/Temp/_gbsbuild/obj/sprite_eyes_bank2_tileset.rel
                                          [ sprite_eyes_bank2_tileset ]
C:/Users/Shawn/AppData/Local/Temp/_gbsbuild/obj/sprite_eyes_tileset.rel
                                          [ sprite_eyes_tileset ]
C:/Users/Shawn/AppData/Local/Temp/_gbsbuild/obj/sprite_eyes.rel
                                          [ sprite_eyes ]
C:/Users/Shawn/AppData/Local/Temp/_gbsbuild/obj/sprite_final_glass_bank2_tileset.rel
                                          [ sprite_final_glass_bank2_tileset ]
C:/Users/Shawn/AppData/Local/Temp/_gbsbuild/obj/sprite_final_glass_tileset.rel
                                          [ sprite_final_glass_tileset ]
C:/Users/Shawn/AppData/Local/Temp/_gbsbuild/obj/sprite_final_glass.rel
                                          [ sprite_final_glass ]
C:/Users/Shawn/AppData/Local/Temp/_gbsbuild/obj/sprite_fire_bank2_tileset.rel
                                          [ sprite_fire_bank2_tileset ]
C:/Users/Shawn/AppData/Local/Temp/_gbsbuild/obj/sprite_fire_tileset.rel
                                          [ sprite_fire_tileset ]
C:/Users/Shawn/AppData/Local/Temp/_gbsbuild/obj/sprite_fire.rel
                                          [ sprite_fire ]
C:/Users/Shawn/AppData/Local/Temp/_gbsbuild/obj/sprite_get_key_bank2_tileset.rel
                                          [ sprite_get_key_bank2_tileset ]
C:/Users/Shawn/AppData/Local/Temp/_gbsbuild/obj/sprite_get_key_tileset.rel
                                          [ sprite_get_key_tileset ]
C:/Users/Shawn/AppData/Local/Temp/_gbsbuild/obj/sprite_get_key.rel
                                          [ sprite_get_key ]
C:/Users/Shawn/AppData/Local/Temp/_gbsbuild/obj/sprite_hearts_bank2_tileset.rel
                                          [ sprite_hearts_bank2_tileset ]
C:/Users/Shawn/AppData/Local/Temp/_gbsbuild/obj/sprite_hearts_tileset.rel
                                          [ sprite_hearts_tileset ]
C:/Users/Shawn/AppData/Local/Temp/_gbsbuild/obj/sprite_hearts.rel
                                          [ sprite_hearts ]
C:/Users/Shawn/AppData/Local/Temp/_gbsbuild/obj/sprite_interact_button_bank2_tileset.rel
                                          [ sprite_interact_button_bank2_til ]
C:/Users/Shawn/AppData/Local/Temp/_gbsbuild/obj/sprite_interact_button_tileset.rel
                                          [ sprite_interact_button_tileset ]
C:/Users/Shawn/AppData/Local/Temp/_gbsbuild/obj/sprite_interact_button.rel
                                          [ sprite_interact_button ]
C:/Users/Shawn/AppData/Local/Temp/_gbsbuild/obj/sprite_items_bank2_tileset.rel
                                          [ sprite_items_bank2_tileset ]
C:/Users/Shawn/AppData/Local/Temp/_gbsbuild/obj/sprite_items_tileset.rel
                                          [ sprite_items_tileset ]
C:/Users/Shawn/AppData/Local/Temp/_gbsbuild/obj/sprite_items.rel
                                          [ sprite_items ]
C:/Users/Shawn/AppData/Local/Temp/_gbsbuild/obj/sprite_jo_bot_bank2_tileset.rel
                                          [ sprite_jo_bot_bank2_tileset ]
C:/Users/Shawn/AppData/Local/Temp/_gbsbuild/obj/sprite_jo_bot_tileset.rel
                                          [ sprite_jo_bot_tileset ]
C:/Users/Shawn/AppData/Local/Temp/_gbsbuild/obj/sprite_jo_bot.rel
                                          [ sprite_jo_bot ]
C:/Users/Shawn/AppData/Local/Temp/_gbsbuild/obj/sprite_locker_dot_bank2_tileset.rel
                                          [ sprite_locker_dot_bank2_tileset ]
C:/Users/Shawn/AppData/Local/Temp/_gbsbuild/obj/sprite_locker_dot_tileset.rel
                                          [ sprite_locker_dot_tileset ]
C:/Users/Shawn/AppData/Local/Temp/_gbsbuild/obj/sprite_locker_dot.rel
                                          [ sprite_locker_dot ]
C:/Users/Shawn/AppData/Local/Temp/_gbsbuild/obj/sprite_peekers_bank2_tileset.rel
                                          [ sprite_peekers_bank2_tileset ]
C:/Users/Shawn/AppData/Local/Temp/_gbsbuild/obj/sprite_peekers_tileset.rel
                                          [ sprite_peekers_tileset ]
C:/Users/Shawn/AppData/Local/Temp/_gbsbuild/obj/sprite_peekers.rel
                                          [ sprite_peekers ]
C:/Users/Shawn/AppData/Local/Temp/_gbsbuild/obj/sprite_player_larry_bank2_tileset.rel
                                          [ sprite_player_larry_bank2_tilese ]
C:/Users/Shawn/AppData/Local/Temp/_gbsbuild/obj/sprite_player_larry_tileset.rel
                                          [ sprite_player_larry_tileset ]
C:/Users/Shawn/AppData/Local/Temp/_gbsbuild/obj/sprite_player_larry.rel
                                          [ sprite_player_larry ]
C:/Users/Shawn/AppData/Local/Temp/_gbsbuild/obj/sprite_press_start_bank2_tileset.rel
                                          [ sprite_press_start_bank2_tileset ]
C:/Users/Shawn/AppData/Local/Temp/_gbsbuild/obj/sprite_press_start_tileset.rel
                                          [ sprite_press_start_tileset ]
C:/Users/Shawn/AppData/Local/Temp/_gbsbuild/obj/sprite_press_start.rel
                                          [ sprite_press_start ]
C:/Users/Shawn/AppData/Local/Temp/_gbsbuild/obj/sprite_push_to_start_bank2_tileset.rel
                                          [ sprite_push_to_start_bank2_tiles ]
C:/Users/Shawn/AppData/Local/Temp/_gbsbuild/obj/sprite_push_to_start_tileset.rel
                                          [ sprite_push_to_start_tileset ]
C:/Users/Shawn/AppData/Local/Temp/_gbsbuild/obj/sprite_push_to_start.rel
                                          [ sprite_push_to_start ]
C:/Users/Shawn/AppData/Local/Temp/_gbsbuild/obj/sprite_secret_bank2_tileset.rel
                                          [ sprite_secret_bank2_tileset ]
C:/Users/Shawn/AppData/Local/Temp/_gbsbuild/obj/sprite_secret_tileset.rel
                                          [ sprite_secret_tileset ]
C:/Users/Shawn/AppData/Local/Temp/_gbsbuild/obj/sprite_secret.rel
                                          [ sprite_secret ]
C:/Users/Shawn/AppData/Local/Temp/_gbsbuild/obj/sprite_shutdown_button_tileset.rel
                                          [ sprite_shutdown_button_tileset ]
C:/Users/Shawn/AppData/Local/Temp/_gbsbuild/obj/sprite_shutdown_button.rel
                                          [ sprite_shutdown_button ]
C:/Users/Shawn/AppData/Local/Temp/_gbsbuild/obj/sprite_vent_cover_tileset.rel
                                          [ sprite_vent_cover_tileset ]
C:/Users/Shawn/AppData/Local/Temp/_gbsbuild/obj/sprite_vent_cover.rel
                                          [ sprite_vent_cover ]
C:/Users/Shawn/AppData/Local/Temp/_gbsbuild/obj/spritesheet_none.rel
                                          [ spritesheet_none ]
C:/Users/Shawn/AppData/Local/Temp/_gbsbuild/obj/tileset_default_frame.rel
                                          [ tileset_default_frame ]
C:/Users/Shawn/AppData/Local/Temp/_gbsbuild/obj/tileset_vending_button_tile.rel
                                          [ tileset_vending_button_tile ]
C:/Users/Shawn/AppData/Local/Temp/_gbsbuild/obj/trigger_0_interact.rel
                                          [ trigger_0_interact ]
C:/Users/Shawn/AppData/Local/Temp/_gbsbuild/obj/trigger_1_interact.rel
                                          [ trigger_1_interact ]
C:/Users/Shawn/AppData/Local/Temp/_gbsbuild/obj/trigger_10_interact.rel
                                          [ trigger_10_interact ]
C:/Users/Shawn/AppData/Local/Temp/_gbsbuild/obj/trigger_100_interact.rel
                                          [ trigger_100_interact ]
C:/Users/Shawn/AppData/Local/Temp/_gbsbuild/obj/trigger_101_interact.rel
                                          [ trigger_101_interact ]
C:/Users/Shawn/AppData/Local/Temp/_gbsbuild/obj/trigger_102_interact.rel
                                          [ trigger_102_interact ]
C:/Users/Shawn/AppData/Local/Temp/_gbsbuild/obj/trigger_11_interact.rel
                                          [ trigger_11_interact ]
C:/Users/Shawn/AppData/Local/Temp/_gbsbuild/obj/trigger_12_interact.rel
                                          [ trigger_12_interact ]
C:/Users/Shawn/AppData/Local/Temp/_gbsbuild/obj/trigger_13_interact.rel
                                          [ trigger_13_interact ]
C:/Users/Shawn/AppData/Local/Temp/_gbsbuild/obj/trigger_14_interact.rel
                                          [ trigger_14_interact ]
C:/Users/Shawn/AppData/Local/Temp/_gbsbuild/obj/trigger_15_interact.rel
                                          [ trigger_15_interact ]
C:/Users/Shawn/AppData/Local/Temp/_gbsbuild/obj/trigger_16_interact.rel
                                          [ trigger_16_interact ]
C:/Users/Shawn/AppData/Local/Temp/_gbsbuild/obj/trigger_17_interact.rel
                                          [ trigger_17_interact ]
C:/Users/Shawn/AppData/Local/Temp/_gbsbuild/obj/trigger_18_interact.rel
                                          [ trigger_18_interact ]
C:/Users/Shawn/AppData/Local/Temp/_gbsbuild/obj/trigger_19_interact.rel
                                          [ trigger_19_interact ]
C:/Users/Shawn/AppData/Local/Temp/_gbsbuild/obj/trigger_2_interact.rel
                                          [ trigger_2_interact ]
C:/Users/Shawn/AppData/Local/Temp/_gbsbuild/obj/trigger_20_interact.rel
                                          [ trigger_20_interact ]
C:/Users/Shawn/AppData/Local/Temp/_gbsbuild/obj/trigger_21_interact.rel
                                          [ trigger_21_interact ]
C:/Users/Shawn/AppData/Local/Temp/_gbsbuild/obj/trigger_22_interact.rel
                                          [ trigger_22_interact ]
C:/Users/Shawn/AppData/Local/Temp/_gbsbuild/obj/trigger_23_interact.rel
                                          [ trigger_23_interact ]
C:/Users/Shawn/AppData/Local/Temp/_gbsbuild/obj/trigger_24_interact.rel
                                          [ trigger_24_interact ]
C:/Users/Shawn/AppData/Local/Temp/_gbsbuild/obj/trigger_25_interact.rel
                                          [ trigger_25_interact ]
C:/Users/Shawn/AppData/Local/Temp/_gbsbuild/obj/trigger_26_interact.rel
                                          [ trigger_26_interact ]
C:/Users/Shawn/AppData/Local/Temp/_gbsbuild/obj/trigger_27_interact.rel
                                          [ trigger_27_interact ]
C:/Users/Shawn/AppData/Local/Temp/_gbsbuild/obj/trigger_28_interact.rel
                                          [ trigger_28_interact ]
C:/Users/Shawn/AppData/Local/Temp/_gbsbuild/obj/trigger_29_interact.rel
                                          [ trigger_29_interact ]
C:/Users/Shawn/AppData/Local/Temp/_gbsbuild/obj/trigger_3_interact.rel
                                          [ trigger_3_interact ]
C:/Users/Shawn/AppData/Local/Temp/_gbsbuild/obj/trigger_30_interact.rel
                                          [ trigger_30_interact ]
C:/Users/Shawn/AppData/Local/Temp/_gbsbuild/obj/trigger_31_interact.rel
                                          [ trigger_31_interact ]
C:/Users/Shawn/AppData/Local/Temp/_gbsbuild/obj/trigger_32_interact.rel
                                          [ trigger_32_interact ]
C:/Users/Shawn/AppData/Local/Temp/_gbsbuild/obj/trigger_33_interact.rel
                                          [ trigger_33_interact ]
C:/Users/Shawn/AppData/Local/Temp/_gbsbuild/obj/trigger_34_interact.rel
                                          [ trigger_34_interact ]
C:/Users/Shawn/AppData/Local/Temp/_gbsbuild/obj/trigger_35_interact.rel
                                          [ trigger_35_interact ]
C:/Users/Shawn/AppData/Local/Temp/_gbsbuild/obj/trigger_36_interact.rel
                                          [ trigger_36_interact ]
C:/Users/Shawn/AppData/Local/Temp/_gbsbuild/obj/trigger_37_interact.rel
                                          [ trigger_37_interact ]
C:/Users/Shawn/AppData/Local/Temp/_gbsbuild/obj/trigger_38_interact.rel
                                          [ trigger_38_interact ]
C:/Users/Shawn/AppData/Local/Temp/_gbsbuild/obj/trigger_39_interact.rel
                                          [ trigger_39_interact ]
C:/Users/Shawn/AppData/Local/Temp/_gbsbuild/obj/trigger_4_interact.rel
                                          [ trigger_4_interact ]
C:/Users/Shawn/AppData/Local/Temp/_gbsbuild/obj/trigger_40_interact.rel
                                          [ trigger_40_interact ]
C:/Users/Shawn/AppData/Local/Temp/_gbsbuild/obj/trigger_41_interact.rel
                                          [ trigger_41_interact ]
C:/Users/Shawn/AppData/Local/Temp/_gbsbuild/obj/trigger_42_interact.rel
                                          [ trigger_42_interact ]
C:/Users/Shawn/AppData/Local/Temp/_gbsbuild/obj/trigger_43_interact.rel
                                          [ trigger_43_interact ]
C:/Users/Shawn/AppData/Local/Temp/_gbsbuild/obj/trigger_44_interact.rel
                                          [ trigger_44_interact ]
C:/Users/Shawn/AppData/Local/Temp/_gbsbuild/obj/trigger_45_interact.rel
                                          [ trigger_45_interact ]
C:/Users/Shawn/AppData/Local/Temp/_gbsbuild/obj/trigger_46_interact.rel
                                          [ trigger_46_interact ]
C:/Users/Shawn/AppData/Local/Temp/_gbsbuild/obj/trigger_47_interact.rel
                                          [ trigger_47_interact ]
C:/Users/Shawn/AppData/Local/Temp/_gbsbuild/obj/trigger_48_interact.rel
                                          [ trigger_48_interact ]
C:/Users/Shawn/AppData/Local/Temp/_gbsbuild/obj/trigger_49_interact.rel
                                          [ trigger_49_interact ]
C:/Users/Shawn/AppData/Local/Temp/_gbsbuild/obj/trigger_5_interact.rel
                                          [ trigger_5_interact ]
C:/Users/Shawn/AppData/Local/Temp/_gbsbuild/obj/trigger_50_interact.rel
                                          [ trigger_50_interact ]
C:/Users/Shawn/AppData/Local/Temp/_gbsbuild/obj/trigger_51_interact.rel
                                          [ trigger_51_interact ]
C:/Users/Shawn/AppData/Local/Temp/_gbsbuild/obj/trigger_52_interact.rel
                                          [ trigger_52_interact ]
C:/Users/Shawn/AppData/Local/Temp/_gbsbuild/obj/trigger_53_interact.rel
                                          [ trigger_53_interact ]
C:/Users/Shawn/AppData/Local/Temp/_gbsbuild/obj/trigger_54_interact.rel
                                          [ trigger_54_interact ]
C:/Users/Shawn/AppData/Local/Temp/_gbsbuild/obj/trigger_55_interact.rel
                                          [ trigger_55_interact ]
C:/Users/Shawn/AppData/Local/Temp/_gbsbuild/obj/trigger_56_interact.rel
                                          [ trigger_56_interact ]
C:/Users/Shawn/AppData/Local/Temp/_gbsbuild/obj/trigger_57_interact.rel
                                          [ trigger_57_interact ]
C:/Users/Shawn/AppData/Local/Temp/_gbsbuild/obj/trigger_58_interact.rel
                                          [ trigger_58_interact ]
C:/Users/Shawn/AppData/Local/Temp/_gbsbuild/obj/trigger_59_interact.rel
                                          [ trigger_59_interact ]
C:/Users/Shawn/AppData/Local/Temp/_gbsbuild/obj/trigger_6_interact.rel
                                          [ trigger_6_interact ]
C:/Users/Shawn/AppData/Local/Temp/_gbsbuild/obj/trigger_60_interact.rel
                                          [ trigger_60_interact ]
C:/Users/Shawn/AppData/Local/Temp/_gbsbuild/obj/trigger_61_interact.rel
                                          [ trigger_61_interact ]
C:/Users/Shawn/AppData/Local/Temp/_gbsbuild/obj/trigger_62_interact.rel
                                          [ trigger_62_interact ]
C:/Users/Shawn/AppData/Local/Temp/_gbsbuild/obj/trigger_63_interact.rel
                                          [ trigger_63_interact ]
C:/Users/Shawn/AppData/Local/Temp/_gbsbuild/obj/trigger_64_interact.rel
                                          [ trigger_64_interact ]
C:/Users/Shawn/AppData/Local/Temp/_gbsbuild/obj/trigger_65_interact.rel
                                          [ trigger_65_interact ]
C:/Users/Shawn/AppData/Local/Temp/_gbsbuild/obj/trigger_66_interact.rel
                                          [ trigger_66_interact ]
C:/Users/Shawn/AppData/Local/Temp/_gbsbuild/obj/trigger_67_interact.rel
                                          [ trigger_67_interact ]
C:/Users/Shawn/AppData/Local/Temp/_gbsbuild/obj/trigger_68_interact.rel
                                          [ trigger_68_interact ]
C:/Users/Shawn/AppData/Local/Temp/_gbsbuild/obj/trigger_69_interact.rel
                                          [ trigger_69_interact ]
C:/Users/Shawn/AppData/Local/Temp/_gbsbuild/obj/trigger_7_interact.rel
                                          [ trigger_7_interact ]
C:/Users/Shawn/AppData/Local/Temp/_gbsbuild/obj/trigger_70_interact.rel
                                          [ trigger_70_interact ]
C:/Users/Shawn/AppData/Local/Temp/_gbsbuild/obj/trigger_71_interact.rel
                                          [ trigger_71_interact ]
C:/Users/Shawn/AppData/Local/Temp/_gbsbuild/obj/trigger_72_interact.rel
                                          [ trigger_72_interact ]
C:/Users/Shawn/AppData/Local/Temp/_gbsbuild/obj/trigger_73_interact.rel
                                          [ trigger_73_interact ]
C:/Users/Shawn/AppData/Local/Temp/_gbsbuild/obj/trigger_74_interact.rel
                                          [ trigger_74_interact ]
C:/Users/Shawn/AppData/Local/Temp/_gbsbuild/obj/trigger_75_interact.rel
                                          [ trigger_75_interact ]
C:/Users/Shawn/AppData/Local/Temp/_gbsbuild/obj/trigger_76_interact.rel
                                          [ trigger_76_interact ]
C:/Users/Shawn/AppData/Local/Temp/_gbsbuild/obj/trigger_77_interact.rel
                                          [ trigger_77_interact ]
C:/Users/Shawn/AppData/Local/Temp/_gbsbuild/obj/trigger_78_interact.rel
                                          [ trigger_78_interact ]
C:/Users/Shawn/AppData/Local/Temp/_gbsbuild/obj/trigger_79_interact.rel
                                          [ trigger_79_interact ]
C:/Users/Shawn/AppData/Local/Temp/_gbsbuild/obj/trigger_8_interact.rel
                                          [ trigger_8_interact ]
C:/Users/Shawn/AppData/Local/Temp/_gbsbuild/obj/trigger_80_interact.rel
                                          [ trigger_80_interact ]
C:/Users/Shawn/AppData/Local/Temp/_gbsbuild/obj/trigger_81_interact.rel
                                          [ trigger_81_interact ]
C:/Users/Shawn/AppData/Local/Temp/_gbsbuild/obj/trigger_82_interact.rel
                                          [ trigger_82_interact ]
C:/Users/Shawn/AppData/Local/Temp/_gbsbuild/obj/trigger_83_interact.rel
                                          [ trigger_83_interact ]
C:/Users/Shawn/AppData/Local/Temp/_gbsbuild/obj/trigger_84_interact.rel
                                          [ trigger_84_interact ]
C:/Users/Shawn/AppData/Local/Temp/_gbsbuild/obj/trigger_85_interact.rel
                                          [ trigger_85_interact ]
C:/Users/Shawn/AppData/Local/Temp/_gbsbuild/obj/trigger_86_interact.rel
                                          [ trigger_86_interact ]
C:/Users/Shawn/AppData/Local/Temp/_gbsbuild/obj/trigger_87_interact.rel
                                          [ trigger_87_interact ]
C:/Users/Shawn/AppData/Local/Temp/_gbsbuild/obj/trigger_88_interact.rel
                                          [ trigger_88_interact ]
C:/Users/Shawn/AppData/Local/Temp/_gbsbuild/obj/trigger_89_interact.rel
                                          [ trigger_89_interact ]
C:/Users/Shawn/AppData/Local/Temp/_gbsbuild/obj/trigger_9_interact.rel
                                          [ trigger_9_interact ]
C:/Users/Shawn/AppData/Local/Temp/_gbsbuild/obj/trigger_90_interact.rel
                                          [ trigger_90_interact ]
C:/Users/Shawn/AppData/Local/Temp/_gbsbuild/obj/trigger_91_interact.rel
                                          [ trigger_91_interact ]
C:/Users/Shawn/AppData/Local/Temp/_gbsbuild/obj/trigger_92_interact.rel
                                          [ trigger_92_interact ]
C:/Users/Shawn/AppData/Local/Temp/_gbsbuild/obj/trigger_93_interact.rel
                                          [ trigger_93_interact ]
C:/Users/Shawn/AppData/Local/Temp/_gbsbuild/obj/trigger_94_interact.rel
                                          [ trigger_94_interact ]
C:/Users/Shawn/AppData/Local/Temp/_gbsbuild/obj/trigger_95_interact.rel
                                          [ trigger_95_interact ]
C:/Users/Shawn/AppData/Local/Temp/_gbsbuild/obj/trigger_96_interact.rel
                                          [ trigger_96_interact ]
C:/Users/Shawn/AppData/Local/Temp/_gbsbuild/obj/trigger_97_interact.rel
                                          [ trigger_97_interact ]
C:/Users/Shawn/AppData/Local/Temp/_gbsbuild/obj/trigger_98_interact.rel
                                          [ trigger_98_interact ]
C:/Users/Shawn/AppData/Local/Temp/_gbsbuild/obj/trigger_99_interact.rel
                                          [ trigger_99_interact ]
C:/Users/Shawn/AppData/Local/Temp/_gbsbuild/obj/main.rel
                                          [ main ]
C:/Users/Shawn/AppData/Local/Temp/_gbsbuild/obj/logo.rel
                                          [ logo ]
C:/Users/Shawn/AppData/Local/Temp/_gbsbuild/obj/platform.rel
                                          [ platform ]
C:/Users/Shawn/AppData/Local/Temp/_gbsbuild/obj/states_ptrs.rel
                                          [  ]
C:/Users/Shawn/AppData/Local/Temp/_gbsbuild/obj/topdown.rel
                                          [ topdown ]


Libraries Linked                          [ object file ]

C:\Users\Shawn\AppData\Local\Temp/_gbstools/gbdk/lib/gb/gb.lib
                                          [ fill_rect_wi.o ]
C:\Users\Shawn\AppData\Local\Temp/_gbstools/gbdk/lib/sm83/sm83.lib
                                          [ rand.o ]
lib/hUGEDriver.lib                        [ hUGEDriver.o ]
C:\Users\Shawn\AppData\Local\Temp/_gbstools/gbdk/lib/gb/gb.lib
                                          [ sfr.o ]
C:\Users\Shawn\AppData\Local\Temp/_gbstools/gbdk/lib/gb/gb.lib
                                          [ get_data.o ]
C:\Users\Shawn\AppData\Local\Temp/_gbstools/gbdk/lib/gb/gb.lib
                                          [ get_tile.o ]
C:\Users\Shawn\AppData\Local\Temp/_gbstools/gbdk/lib/gb/gb.lib
                                          [ cgb_palettes.o ]
C:\Users\Shawn\AppData\Local\Temp/_gbstools/gbdk/lib/gb/gb.lib
                                          [ metasprites_hide_spr.o ]
C:\Users\Shawn\AppData\Local\Temp/_gbstools/gbdk/lib/sm83/sm83.lib
                                          [ mul.o ]
C:\Users\Shawn\AppData\Local\Temp/_gbstools/gbdk/lib/gb/gb.lib
                                          [ set_tile.o ]
C:\Users\Shawn\AppData\Local\Temp/_gbstools/gbdk/lib/sm83/sm83.lib
                                          [ div.o ]
C:\Users\Shawn\AppData\Local\Temp/_gbstools/gbdk/lib/sm83/sm83.lib
                                          [ abs.o ]
C:\Users\Shawn\AppData\Local\Temp/_gbstools/gbdk/lib/gb/gb.lib
                                          [ set_wi_t.o ]
C:\Users\Shawn\AppData\Local\Temp/_gbstools/gbdk/lib/gb/gb.lib
                                          [ set_data.o ]
C:\Users\Shawn\AppData\Local\Temp/_gbstools/gbdk/lib/sm83/sm83.lib
                                          [ reverse.o ]
C:\Users\Shawn\AppData\Local\Temp/_gbstools/gbdk/lib/gb/gb.lib
                                          [ far_ptr.o ]
C:\Users\Shawn\AppData\Local\Temp/_gbstools/gbdk/lib/gb/gb.lib
                                          [ sgb.o ]
C:\Users\Shawn\AppData\Local\Temp/_gbstools/gbdk/lib/gb/gb.lib
                                          [ lcd.o ]
C:\Users\Shawn\AppData\Local\Temp/_gbstools/gbdk/lib/gb/gb.lib
                                          [ fill_rect.o ]
C:\Users\Shawn\AppData\Local\Temp/_gbstools/gbdk/lib/gb/gb.lib
                                          [ cpy_data.o ]
C:\Users\Shawn\AppData\Local\Temp/_gbstools/gbdk/lib/gb/gb.lib
                                          [ fill_rect_bk.o ]
C:\Users\Shawn\AppData\Local\Temp/_gbstools/gbdk/lib/gb/gb.lib
                                          [ pad.o ]
C:\Users\Shawn\AppData\Local\Temp/_gbstools/gbdk/lib/gb/gb.lib
                                          [ metasprites.o ]
C:\Users\Shawn\AppData\Local\Temp/_gbstools/gbdk/lib/sm83/sm83.lib
                                          [ __sdcc_call_hl.o ]
C:\Users\Shawn\AppData\Local\Temp/_gbstools/gbdk/lib/sm83/sm83.lib
                                          [ memcpy.o ]
C:\Users\Shawn\AppData\Local\Temp/_gbstools/gbdk/lib/sm83/sm83.lib
                                          [ _memset.o ]
C:\Users\Shawn\AppData\Local\Temp/_gbstools/gbdk/lib/gb/gb.lib
                                          [ set_xy_t.o ]
C:\Users\Shawn\AppData\Local\Temp/_gbstools/gbdk/lib/gb/gb.lib
                                          [ ___sdcc_bcall_ehl.o ]
C:\Users\Shawn\AppData\Local\Temp/_gbstools/gbdk/lib/gb/gb.lib
                                          [ cgb.o ]
C:\Users\Shawn\AppData\Local\Temp/_gbstools/gbdk/lib/gb/gb.lib
                                          [ set_bk_t.o ]

ASxxxx Linker V03.00/V05.40 + sdld,  page 183.

User Base Address Definitions

_DATA=0xC0A0
_CODE=0x0200
ASxxxx Linker V03.00/V05.40 + sdld,  page 184.

User Global Definitions

.STACK=0xDF00
_shadow_OAM=0xC000
.refresh_OAM=0xFF80
__start_save=28

